; Disassembly of the file "C:\Users\mikesp\Desktop\1943\bm15.10f"
; 
; CPU Type: Z80
; 
; Created with dZ80 2.0
; 
; on Saturday, 12 of August 2017 at 03:49 PM
; 
0000 00        nop     
0001 00        nop     
0002 00        nop     
0003 00        nop     
0004 00        nop     
0005 00        nop     
0006 00        nop     
0007 00        nop     
0008 00        nop     
0009 00        nop     
000a 00        nop     
000b 00        nop     
000c 00        nop     
000d 00        nop     
000e 00        nop     
000f 00        nop     
0010 00        nop     
0011 00        nop     
0012 00        nop     
0013 00        nop     
0014 00        nop     
0015 00        nop     
0016 00        nop     
0017 00        nop     
0018 00        nop     
0019 00        nop     
001a 00        nop     
001b 00        nop     
001c 00        nop     
001d 00        nop     
001e 00        nop     
001f 00        nop     
0020 00        nop     
0021 00        nop     
0022 00        nop     
0023 00        nop     
0024 00        nop     
0025 00        nop     
0026 00        nop     
0027 00        nop     
0028 00        nop     
0029 00        nop     
002a 00        nop     
002b 00        nop     
002c 00        nop     
002d 00        nop     
002e 00        nop     
002f 00        nop     
0030 00        nop     
0031 00        nop     
0032 00        nop     
0033 00        nop     
0034 00        nop     
0035 00        nop     
0036 00        nop     
0037 00        nop     
0038 00        nop     
0039 00        nop     
003a 00        nop     
003b 00        nop     
003c 00        nop     
003d 00        nop     
003e 00        nop     
003f 00        nop     
0040 00        nop     
0041 00        nop     
0042 00        nop     
0043 00        nop     
0044 00        nop     
0045 00        nop     
0046 00        nop     
0047 00        nop     
0048 00        nop     
0049 00        nop     
004a 00        nop     
004b 00        nop     
004c 00        nop     
004d 00        nop     
004e 00        nop     
004f 00        nop     
0050 00        nop     
0051 00        nop     
0052 00        nop     
0053 00        nop     
0054 00        nop     
0055 00        nop     
0056 00        nop     
0057 00        nop     
0058 00        nop     
0059 00        nop     
005a 00        nop     
005b 00        nop     
005c 00        nop     
005d 00        nop     
005e 00        nop     
005f 00        nop     
0060 00        nop     
0061 00        nop     
0062 00        nop     
0063 00        nop     
0064 00        nop     
0065 00        nop     
0066 00        nop     
0067 00        nop     
0068 00        nop     
0069 00        nop     
006a 00        nop     
006b 00        nop     
006c 00        nop     
006d 00        nop     
006e 00        nop     
006f 00        nop     
0070 00        nop     
0071 00        nop     
0072 00        nop     
0073 00        nop     
0074 00        nop     
0075 00        nop     
0076 00        nop     
0077 00        nop     
0078 00        nop     
0079 00        nop     
007a 00        nop     
007b 00        nop     
007c 00        nop     
007d 00        nop     
007e 00        nop     
007f 00        nop     
0080 00        nop     
0081 00        nop     
0082 00        nop     
0083 00        nop     
0084 00        nop     
0085 00        nop     
0086 00        nop     
0087 00        nop     
0088 00        nop     
0089 00        nop     
008a 00        nop     
008b 00        nop     
008c 00        nop     
008d 00        nop     
008e 00        nop     
008f 00        nop     
0090 00        nop     
0091 00        nop     
0092 00        nop     
0093 00        nop     
0094 00        nop     
0095 00        nop     
0096 00        nop     
0097 00        nop     
0098 00        nop     
0099 00        nop     
009a 00        nop     
009b 00        nop     
009c 00        nop     
009d 00        nop     
009e 00        nop     
009f 00        nop     
00a0 00        nop     
00a1 00        nop     
00a2 00        nop     
00a3 00        nop     
00a4 00        nop     
00a5 00        nop     
00a6 00        nop     
00a7 00        nop     
00a8 00        nop     
00a9 00        nop     
00aa 00        nop     
00ab 00        nop     
00ac 00        nop     
00ad 00        nop     
00ae 00        nop     
00af 00        nop     
00b0 00        nop     
00b1 00        nop     
00b2 00        nop     
00b3 00        nop     
00b4 00        nop     
00b5 00        nop     
00b6 00        nop     
00b7 00        nop     
00b8 00        nop     
00b9 00        nop     
00ba 00        nop     
00bb 00        nop     
00bc 00        nop     
00bd 00        nop     
00be 00        nop     
00bf 00        nop     
00c0 00        nop     
00c1 00        nop     
00c2 00        nop     
00c3 00        nop     
00c4 00        nop     
00c5 00        nop     
00c6 00        nop     
00c7 00        nop     
00c8 00        nop     
00c9 00        nop     
00ca 00        nop     
00cb 00        nop     
00cc 00        nop     
00cd 00        nop     
00ce 00        nop     
00cf 00        nop     
00d0 00        nop     
00d1 00        nop     
00d2 00        nop     
00d3 00        nop     
00d4 00        nop     
00d5 00        nop     
00d6 00        nop     
00d7 00        nop     
00d8 00        nop     
00d9 00        nop     
00da 00        nop     
00db 00        nop     
00dc 00        nop     
00dd 00        nop     
00de 00        nop     
00df 00        nop     
00e0 00        nop     
00e1 00        nop     
00e2 00        nop     
00e3 00        nop     
00e4 00        nop     
00e5 00        nop     
00e6 00        nop     
00e7 00        nop     
00e8 00        nop     
00e9 00        nop     
00ea 00        nop     
00eb 00        nop     
00ec 00        nop     
00ed 00        nop     
00ee 00        nop     
00ef 00        nop     
00f0 00        nop     
00f1 00        nop     
00f2 00        nop     
00f3 00        nop     
00f4 00        nop     
00f5 00        nop     
00f6 00        nop     
00f7 00        nop     
00f8 00        nop     
00f9 00        nop     
00fa 00        nop     
00fb 00        nop     
00fc 00        nop     
00fd 00        nop     
00fe 00        nop     
00ff 00        nop     
0100 00        nop     
0101 00        nop     
0102 00        nop     
0103 00        nop     
0104 00        nop     
0105 00        nop     
0106 00        nop     
0107 00        nop     
0108 00        nop     
0109 00        nop     
010a 00        nop     
010b 00        nop     
010c f0        ret     p

010d 4c        ld      c,h
010e c7        rst     00h
010f f0        ret     p

0110 f5        push    af
0111 f5        push    af
0112 fafaf5    jp      m,0f5fah
0115 f5        push    af
0116 0f        rrca    
0117 0f        rrca    
0118 0f        rrca    
0119 0f        rrca    
011a ff        rst     38h
011b ff        rst     38h
011c 0f        rrca    
011d 0f        rrca    
011e f0        ret     p

011f f0        ret     p

0120 f0        ret     p

0121 f0        ret     p

0122 f0        ret     p

0123 f0        ret     p

0124 f0        ret     p

0125 f0        ret     p

0126 f0        ret     p

0127 f0        ret     p

0128 f0        ret     p

0129 f0        ret     p

012a f0        ret     p

012b f0        ret     p

012c f0        ret     p

012d f0        ret     p

012e f0        ret     p

012f f0        ret     p

0130 f0        ret     p

0131 f0        ret     p

0132 f0        ret     p

0133 f0        ret     p

0134 f0        ret     p

0135 f0        ret     p

0136 f0        ret     p

0137 f0        ret     p

0138 f0        ret     p

0139 f0        ret     p

013a f0        ret     p

013b f0        ret     p

013c f0        ret     p

013d f0        ret     p

013e f0        ret     p

013f f0        ret     p

0140 00        nop     
0141 00        nop     
0142 00        nop     
0143 00        nop     
0144 00        nop     
0145 00        nop     
0146 00        nop     
0147 00        nop     
0148 00        nop     
0149 00        nop     
014a 00        nop     
014b 00        nop     
014c 00        nop     
014d 00        nop     
014e d300      out     (00h),a
0150 bc        cp      h
0151 e1        pop     hl
0152 fad6f5    jp      m,0f5d6h
0155 f5        push    af
0156 fafa00    jp      m,00fah
0159 75        ld      (hl),l
015a ff        rst     38h
015b 00        nop     
015c ff        rst     38h
015d ee0f      xor     0fh
015f 0f        rrca    
0160 f0        ret     p

0161 a5        and     l
0162 f0        ret     p

0163 f0        ret     p

0164 f0        ret     p

0165 f0        ret     p

0166 f0        ret     p

0167 f0        ret     p

0168 f0        ret     p

0169 f0        ret     p

016a f0        ret     p

016b f0        ret     p

016c f0        ret     p

016d f0        ret     p

016e f0        ret     p

016f f0        ret     p

0170 f0        ret     p

0171 f0        ret     p

0172 f0        ret     p

0173 f0        ret     p

0174 f0        ret     p

0175 f0        ret     p

0176 f0        ret     p

0177 f0        ret     p

0178 f0        ret     p

0179 f0        ret     p

017a f0        ret     p

017b f0        ret     p

017c f0        ret     p

017d f0        ret     p

017e 0f        rrca    
017f 0f        rrca    
0180 00        nop     
0181 00        nop     
0182 00        nop     
0183 00        nop     
0184 00        nop     
0185 00        nop     
0186 00        nop     
0187 00        nop     
0188 00        nop     
0189 00        nop     
018a 00        nop     
018b 00        nop     
018c 00        nop     
018d 00        nop     
018e 00        nop     
018f 00        nop     
0190 88        adc     a,b
0191 00        nop     
0192 e1        pop     hl
0193 88        adc     a,b
0194 92        sub     d
0195 e1        pop     hl
0196 fadef5    jp      m,0f5deh
0199 f5        push    af
019a fafa00    jp      m,00fah
019d 75        ld      (hl),l
019e ff        rst     38h
019f 00        nop     
01a0 0f        rrca    
01a1 ff        rst     38h
01a2 f0        ret     p

01a3 3f        ccf     
01a4 f0        ret     p

01a5 e1        pop     hl
01a6 f0        ret     p

01a7 f0        ret     p

01a8 f0        ret     p

01a9 f0        ret     p

01aa f0        ret     p

01ab f0        ret     p

01ac f0        ret     p

01ad f0        ret     p

01ae f0        ret     p

01af f0        ret     p

01b0 f0        ret     p

01b1 f0        ret     p

01b2 f0        ret     p

01b3 f0        ret     p

01b4 f0        ret     p

01b5 f0        ret     p

01b6 f0        ret     p

01b7 f0        ret     p

01b8 f0        ret     p

01b9 f0        ret     p

01ba f0        ret     p

01bb f0        ret     p

01bc f0        ret     p

01bd f0        ret     p

01be 0f        rrca    
01bf 0f        rrca    
01c0 00        nop     
01c1 00        nop     
01c2 00        nop     
01c3 00        nop     
01c4 00        nop     
01c5 00        nop     
01c6 00        nop     
01c7 00        nop     
01c8 00        nop     
01c9 00        nop     
01ca 00        nop     
01cb 00        nop     
01cc 00        nop     
01cd 00        nop     
01ce 00        nop     
01cf 00        nop     
01d0 00        nop     
01d1 00        nop     
01d2 00        nop     
01d3 00        nop     
01d4 88        adc     a,b
01d5 00        nop     
01d6 d300      out     (00h),a
01d8 f64c      or      4ch
01da fa0ef5    jp      m,0f50eh
01dd 5f        ld      e,a
01de faaf11    jp      m,11afh
01e1 5f        ld      e,a
01e2 ee61      xor     61h
01e4 ff        rst     38h
01e5 b8        cp      b
01e6 7f        ld      a,a
01e7 dc1fdc    call    c,0dc1fh
01ea 1f        rra     
01eb dc1fdc    call    c,0dc1fh
01ee 1f        rra     
01ef dc1fdc    call    c,0dc1fh
01f2 1f        rra     
01f3 dc1fdc    call    c,0dc1fh
01f6 1f        rra     
01f7 dc1f98    call    c,981fh
01fa 1f        rra     
01fb 98        sbc     a,b
01fc 1f        rra     
01fd 98        sbc     a,b
01fe 0f        rrca    
01ff 6e        ld      l,(hl)
0200 f0        ret     p

0201 f0        ret     p

0202 f0        ret     p

0203 f0        ret     p

0204 f0        ret     p

0205 f0        ret     p

0206 f0        ret     p

0207 f0        ret     p

0208 f0        ret     p

0209 f0        ret     p

020a f0        ret     p

020b f0        ret     p

020c f0        ret     p

020d f0        ret     p

020e f0        ret     p

020f f0        ret     p

0210 f0        ret     p

0211 f0        ret     p

0212 f0        ret     p

0213 f0        ret     p

0214 f0        ret     p

0215 f0        ret     p

0216 f0        ret     p

0217 f0        ret     p

0218 f0        ret     p

0219 f0        ret     p

021a f0        ret     p

021b f0        ret     p

021c f0        ret     p

021d f0        ret     p

021e f0        ret     p

021f f0        ret     p

0220 f0        ret     p

0221 f0        ret     p

0222 0f        rrca    
0223 0f        rrca    
0224 ff        rst     38h
0225 ff        rst     38h
0226 0f        rrca    
0227 1f        rra     
0228 0f        rrca    
0229 7f        ld      a,a
022a ee00      xor     00h
022c 115faf    ld      de,0af5fh
022f af        xor     a
0230 5f        ld      e,a
0231 5d        ld      e,l
0232 ab        xor     e
0233 0f        rrca    
0234 1f        rra     
0235 77        ld      (hl),a
0236 73        ld      (hl),e
0237 ff        rst     38h
0238 ff        rst     38h
0239 ff        rst     38h
023a ff        rst     38h
023b ff        rst     38h
023c ff        rst     38h
023d ff        rst     38h
023e ff        rst     38h
023f ff        rst     38h
0240 0f        rrca    
0241 0f        rrca    
0242 f0        ret     p

0243 f0        ret     p

0244 f0        ret     p

0245 f0        ret     p

0246 f0        ret     p

0247 f0        ret     p

0248 f0        ret     p

0249 f0        ret     p

024a f0        ret     p

024b f0        ret     p

024c f0        ret     p

024d f0        ret     p

024e f0        ret     p

024f f0        ret     p

0250 f0        ret     p

0251 f0        ret     p

0252 f0        ret     p

0253 f0        ret     p

0254 f0        ret     p

0255 f0        ret     p

0256 f0        ret     p

0257 f0        ret     p

0258 f0        ret     p

0259 f0        ret     p

025a f0        ret     p

025b f0        ret     p

025c f0        ret     p

025d f0        ret     p

025e f0        ret     p

025f f0        ret     p

0260 0f        rrca    
0261 3f        ccf     
0262 ff        rst     38h
0263 ff        rst     38h
0264 ff        rst     38h
0265 88        adc     a,b
0266 88        adc     a,b
0267 27        daa     
0268 57        ld      d,a
0269 5f        ld      e,a
026a af        xor     a
026b af        xor     a
026c 5f        ld      e,a
026d 5f        ld      e,a
026e af        xor     a
026f 47        ld      b,a
0270 0f        rrca    
0271 5d        ld      e,l
0272 bb        cp      e
0273 ff        rst     38h
0274 ff        rst     38h
0275 ff        rst     38h
0276 ff        rst     38h
0277 ff        rst     38h
0278 ff        rst     38h
0279 ff        rst     38h
027a ff        rst     38h
027b ff        rst     38h
027c fef0      cp      0f0h
027e e1        pop     hl
027f 0f        rrca    
0280 0f        rrca    
0281 0f        rrca    
0282 f0        ret     p

0283 f0        ret     p

0284 f0        ret     p

0285 f0        ret     p

0286 f0        ret     p

0287 f0        ret     p

0288 f0        ret     p

0289 f0        ret     p

028a f0        ret     p

028b f0        ret     p

028c f0        ret     p

028d f0        ret     p

028e f0        ret     p

028f f0        ret     p

0290 f0        ret     p

0291 f0        ret     p

0292 f0        ret     p

0293 f0        ret     p

0294 f0        ret     p

0295 f0        ret     p

0296 f0        ret     p

0297 f0        ret     p

0298 f0        ret     p

0299 f0        ret     p

029a f0        ret     p

029b c3c30f    jp      0fc3h
029e 0f        rrca    
029f ff        rst     38h
02a0 ff        rst     38h
02a1 cccc23    call    z,23cch
02a4 13        inc     de
02a5 5f        ld      e,a
02a6 af        xor     a
02a7 af        xor     a
02a8 5f        ld      e,a
02a9 5d        ld      e,l
02aa af        xor     a
02ab 8f        adc     a,a
02ac 0f        rrca    
02ad 7f        ld      a,a
02ae 5d        ld      e,l
02af ff        rst     38h
02b0 ff        rst     38h
02b1 ff        rst     38h
02b2 ff        rst     38h
02b3 ff        rst     38h
02b4 ff        rst     38h
02b5 ff        rst     38h
02b6 ff        rst     38h
02b7 fcfec3    call    m,0c3feh
02ba e1        pop     hl
02bb 0c        inc     c
02bc 0e00      ld      c,00h
02be 00        nop     
02bf 00        nop     
02c0 0f        rrca    
02c1 7c        ld      a,h
02c2 1f        rra     
02c3 98        sbc     a,b
02c4 1f        rra     
02c5 98        sbc     a,b
02c6 1f        rra     
02c7 98        sbc     a,b
02c8 1f        rra     
02c9 98        sbc     a,b
02ca 1f        rra     
02cb 98        sbc     a,b
02cc 1f        rra     
02cd 98        sbc     a,b
02ce 1f        rra     
02cf 98        sbc     a,b
02d0 1f        rra     
02d1 98        sbc     a,b
02d2 1f        rra     
02d3 98        sbc     a,b
02d4 1f        rra     
02d5 98        sbc     a,b
02d6 1f        rra     
02d7 98        sbc     a,b
02d8 1f        rra     
02d9 89        adc     a,c
02da 7f        ld      a,a
02db 21ee53    ld      hl,53eeh
02de 88        adc     a,b
02df 27        daa     
02e0 13        inc     de
02e1 5f        ld      e,a
02e2 af        xor     a
02e3 bd        cp      l
02e4 5f        ld      e,a
02e5 6e        ld      l,(hl)
02e6 ab        xor     e
02e7 4c        ld      c,h
02e8 1f        rra     
02e9 08        ex      af,af'
02ea fe08      cp      08h
02ec fe08      cp      08h
02ee fe08      cp      08h
02f0 fe08      cp      08h
02f2 e9        jp      (hl)
02f3 08        ex      af,af'
02f4 86        add     a,(hl)
02f5 00        nop     
02f6 08        ex      af,af'
02f7 00        nop     
02f8 00        nop     
02f9 00        nop     
02fa 00        nop     
02fb 00        nop     
02fc 00        nop     
02fd 00        nop     
02fe 00        nop     
02ff 00        nop     
0300 ff        rst     38h
0301 f0        ret     p

0302 f0        ret     p

0303 0f        rrca    
0304 0f        rrca    
0305 00        nop     
0306 00        nop     
0307 00        nop     
0308 00        nop     
0309 00        nop     
030a 00        nop     
030b 00        nop     
030c 00        nop     
030d 00        nop     
030e 00        nop     
030f 00        nop     
0310 00        nop     
0311 00        nop     
0312 00        nop     
0313 00        nop     
0314 00        nop     
0315 00        nop     
0316 00        nop     
0317 00        nop     
0318 00        nop     
0319 00        nop     
031a 00        nop     
031b 00        nop     
031c 00        nop     
031d 00        nop     
031e 00        nop     
031f 00        nop     
0320 00        nop     
0321 00        nop     
0322 00        nop     
0323 00        nop     
0324 00        nop     
0325 00        nop     
0326 00        nop     
0327 00        nop     
0328 00        nop     
0329 00        nop     
032a 00        nop     
032b 00        nop     
032c 00        nop     
032d 00        nop     
032e 00        nop     
032f 00        nop     
0330 00        nop     
0331 00        nop     
0332 00        nop     
0333 00        nop     
0334 00        nop     
0335 00        nop     
0336 00        nop     
0337 00        nop     
0338 00        nop     
0339 00        nop     
033a 00        nop     
033b 00        nop     
033c 00        nop     
033d 00        nop     
033e 00        nop     
033f 00        nop     
0340 0e00      ld      c,00h
0342 00        nop     
0343 00        nop     
0344 00        nop     
0345 00        nop     
0346 00        nop     
0347 00        nop     
0348 00        nop     
0349 00        nop     
034a 00        nop     
034b 00        nop     
034c 00        nop     
034d 00        nop     
034e 00        nop     
034f 00        nop     
0350 00        nop     
0351 00        nop     
0352 00        nop     
0353 00        nop     
0354 00        nop     
0355 00        nop     
0356 00        nop     
0357 00        nop     
0358 00        nop     
0359 00        nop     
035a 00        nop     
035b 00        nop     
035c 00        nop     
035d 00        nop     
035e 00        nop     
035f 00        nop     
0360 00        nop     
0361 00        nop     
0362 00        nop     
0363 00        nop     
0364 00        nop     
0365 00        nop     
0366 00        nop     
0367 00        nop     
0368 00        nop     
0369 00        nop     
036a 00        nop     
036b 00        nop     
036c 00        nop     
036d 00        nop     
036e 00        nop     
036f 00        nop     
0370 00        nop     
0371 00        nop     
0372 00        nop     
0373 00        nop     
0374 00        nop     
0375 00        nop     
0376 00        nop     
0377 00        nop     
0378 00        nop     
0379 00        nop     
037a 00        nop     
037b 00        nop     
037c 00        nop     
037d 00        nop     
037e 00        nop     
037f 00        nop     
0380 00        nop     
0381 00        nop     
0382 00        nop     
0383 00        nop     
0384 00        nop     
0385 00        nop     
0386 00        nop     
0387 00        nop     
0388 00        nop     
0389 00        nop     
038a 00        nop     
038b 00        nop     
038c 00        nop     
038d 00        nop     
038e 00        nop     
038f 00        nop     
0390 00        nop     
0391 00        nop     
0392 00        nop     
0393 00        nop     
0394 00        nop     
0395 00        nop     
0396 00        nop     
0397 00        nop     
0398 00        nop     
0399 00        nop     
039a 00        nop     
039b 00        nop     
039c 00        nop     
039d 00        nop     
039e 00        nop     
039f 00        nop     
03a0 00        nop     
03a1 00        nop     
03a2 00        nop     
03a3 00        nop     
03a4 00        nop     
03a5 00        nop     
03a6 00        nop     
03a7 00        nop     
03a8 00        nop     
03a9 00        nop     
03aa 00        nop     
03ab 00        nop     
03ac 00        nop     
03ad 00        nop     
03ae 00        nop     
03af 00        nop     
03b0 00        nop     
03b1 00        nop     
03b2 00        nop     
03b3 00        nop     
03b4 00        nop     
03b5 00        nop     
03b6 00        nop     
03b7 00        nop     
03b8 00        nop     
03b9 00        nop     
03ba 00        nop     
03bb 00        nop     
03bc 00        nop     
03bd 00        nop     
03be 00        nop     
03bf 00        nop     
03c0 00        nop     
03c1 00        nop     
03c2 00        nop     
03c3 00        nop     
03c4 00        nop     
03c5 00        nop     
03c6 00        nop     
03c7 00        nop     
03c8 00        nop     
03c9 00        nop     
03ca 00        nop     
03cb 00        nop     
03cc 00        nop     
03cd 00        nop     
03ce 00        nop     
03cf 00        nop     
03d0 00        nop     
03d1 00        nop     
03d2 00        nop     
03d3 00        nop     
03d4 00        nop     
03d5 00        nop     
03d6 00        nop     
03d7 00        nop     
03d8 00        nop     
03d9 00        nop     
03da 00        nop     
03db 00        nop     
03dc 00        nop     
03dd 00        nop     
03de 00        nop     
03df 00        nop     
03e0 00        nop     
03e1 00        nop     
03e2 00        nop     
03e3 00        nop     
03e4 00        nop     
03e5 00        nop     
03e6 00        nop     
03e7 00        nop     
03e8 00        nop     
03e9 00        nop     
03ea 00        nop     
03eb 00        nop     
03ec 00        nop     
03ed 00        nop     
03ee 00        nop     
03ef 00        nop     
03f0 00        nop     
03f1 00        nop     
03f2 00        nop     
03f3 00        nop     
03f4 00        nop     
03f5 00        nop     
03f6 00        nop     
03f7 00        nop     
03f8 00        nop     
03f9 00        nop     
03fa 00        nop     
03fb 00        nop     
03fc 00        nop     
03fd 00        nop     
03fe 00        nop     
03ff 00        nop     
0400 48        ld      c,b
0401 00        nop     
0402 3c        inc     a
0403 c0        ret     nz

0404 3c        inc     a
0405 c0        ret     nz

0406 48        ld      c,b
0407 00        nop     
0408 9e        sbc     a,(hl)
0409 80        add     a,b
040a ef        rst     28h
040b c0        ret     nz

040c ff        rst     38h
040d ecffff    call    pe,0ffffh
0410 ff        rst     38h
0411 ff        rst     38h
0412 ff        rst     38h
0413 ff        rst     38h
0414 ff        rst     38h
0415 ff        rst     38h
0416 ff        rst     38h
0417 ff        rst     38h
0418 f1        pop     af
0419 ff        rst     38h
041a 1ef7      ld      e,0f7h
041c 017800    ld      bc,0078h
041f 07        rlca    
0420 00        nop     
0421 00        nop     
0422 00        nop     
0423 00        nop     
0424 00        nop     
0425 00        nop     
0426 00        nop     
0427 00        nop     
0428 00        nop     
0429 00        nop     
042a 00        nop     
042b 00        nop     
042c 00        nop     
042d 00        nop     
042e 00        nop     
042f 00        nop     
0430 00        nop     
0431 00        nop     
0432 00        nop     
0433 00        nop     
0434 00        nop     
0435 00        nop     
0436 00        nop     
0437 00        nop     
0438 00        nop     
0439 00        nop     
043a 00        nop     
043b 00        nop     
043c 00        nop     
043d 00        nop     
043e 00        nop     
043f 00        nop     
0440 00        nop     
0441 33        inc     sp
0442 11de11    ld      de,11deh
0445 de00      sbc     a,00h
0447 320032    ld      (3200h),a
044a 80        add     a,b
044b 33        inc     sp
044c 113359    ld      de,5933h
044f cf        rst     08h
0450 ff        rst     38h
0451 ff        rst     38h
0452 ff        rst     38h
0453 ff        rst     38h
0454 ff        rst     38h
0455 ff        rst     38h
0456 ff        rst     38h
0457 ff        rst     38h
0458 ff        rst     38h
0459 ff        rst     38h
045a ff        rst     38h
045b ff        rst     38h
045c f0        ret     p

045d f0        ret     p

045e 0f        rrca    
045f 0f        rrca    
0460 00        nop     
0461 00        nop     
0462 00        nop     
0463 00        nop     
0464 00        nop     
0465 00        nop     
0466 00        nop     
0467 00        nop     
0468 00        nop     
0469 00        nop     
046a 00        nop     
046b 00        nop     
046c 00        nop     
046d 00        nop     
046e 00        nop     
046f 00        nop     
0470 00        nop     
0471 00        nop     
0472 00        nop     
0473 00        nop     
0474 00        nop     
0475 00        nop     
0476 00        nop     
0477 00        nop     
0478 00        nop     
0479 00        nop     
047a 00        nop     
047b 00        nop     
047c 00        nop     
047d 00        nop     
047e 00        nop     
047f 00        nop     
0480 bd        cp      l
0481 ff        rst     38h
0482 bc        cp      h
0483 ff        rst     38h
0484 8f        adc     a,a
0485 ff        rst     38h
0486 ee00      xor     00h
0488 af        xor     a
0489 af        xor     a
048a 5f        ld      e,a
048b 5f        ld      e,a
048c af        xor     a
048d af        xor     a
048e 0f        rrca    
048f 0f        rrca    
0490 ff        rst     38h
0491 ff        rst     38h
0492 ff        rst     38h
0493 ff        rst     38h
0494 ff        rst     38h
0495 ff        rst     38h
0496 ff        rst     38h
0497 ff        rst     38h
0498 ff        rst     38h
0499 ff        rst     38h
049a ff        rst     38h
049b ff        rst     38h
049c f0        ret     p

049d f0        ret     p

049e 0f        rrca    
049f 0f        rrca    
04a0 00        nop     
04a1 00        nop     
04a2 00        nop     
04a3 00        nop     
04a4 00        nop     
04a5 00        nop     
04a6 00        nop     
04a7 00        nop     
04a8 00        nop     
04a9 00        nop     
04aa 00        nop     
04ab 00        nop     
04ac 00        nop     
04ad 00        nop     
04ae 00        nop     
04af 00        nop     
04b0 00        nop     
04b1 00        nop     
04b2 00        nop     
04b3 00        nop     
04b4 00        nop     
04b5 00        nop     
04b6 00        nop     
04b7 00        nop     
04b8 00        nop     
04b9 00        nop     
04ba 00        nop     
04bb 00        nop     
04bc 00        nop     
04bd 00        nop     
04be 00        nop     
04bf 00        nop     
04c0 ff        rst     38h
04c1 ff        rst     38h
04c2 ff        rst     38h
04c3 ff        rst     38h
04c4 ff        rst     38h
04c5 ff        rst     38h
04c6 00        nop     
04c7 00        nop     
04c8 af        xor     a
04c9 af        xor     a
04ca 5f        ld      e,a
04cb 5f        ld      e,a
04cc af        xor     a
04cd af        xor     a
04ce 0f        rrca    
04cf 0f        rrca    
04d0 ff        rst     38h
04d1 ff        rst     38h
04d2 ff        rst     38h
04d3 ff        rst     38h
04d4 ff        rst     38h
04d5 ff        rst     38h
04d6 ff        rst     38h
04d7 ff        rst     38h
04d8 ff        rst     38h
04d9 ff        rst     38h
04da ff        rst     38h
04db ff        rst     38h
04dc f0        ret     p

04dd f7        rst     30h
04de 0f        rrca    
04df 7b        ld      a,e
04e0 00        nop     
04e1 35        dec     (hl)
04e2 00        nop     
04e3 35        dec     (hl)
04e4 00        nop     
04e5 35        dec     (hl)
04e6 00        nop     
04e7 12        ld      (de),a
04e8 00        nop     
04e9 010000    ld      bc,0000h
04ec 00        nop     
04ed 00        nop     
04ee 00        nop     
04ef 00        nop     
04f0 00        nop     
04f1 00        nop     
04f2 00        nop     
04f3 00        nop     
04f4 00        nop     
04f5 00        nop     
04f6 00        nop     
04f7 00        nop     
04f8 00        nop     
04f9 00        nop     
04fa 00        nop     
04fb 00        nop     
04fc 00        nop     
04fd 00        nop     
04fe 00        nop     
04ff 00        nop     
0500 0f        rrca    
0501 0f        rrca    
0502 ff        rst     38h
0503 ff        rst     38h
0504 f0        ret     p

0505 c3eb3c    jp      3cebh
0508 f5        push    af
0509 f5        push    af
050a fafaf5    jp      m,0f5fah
050d f5        push    af
050e 00        nop     
050f 00        nop     
0510 ff        rst     38h
0511 cc0f0f    call    z,0f0fh
0514 f0        ret     p

0515 91        sub     c
0516 0f        rrca    
0517 0f        rrca    
0518 0f        rrca    
0519 0f        rrca    
051a f0        ret     p

051b f0        ret     p

051c f0        ret     p

051d f0        ret     p

051e f0        ret     p

051f f0        ret     p

0520 f0        ret     p

0521 f0        ret     p

0522 f0        ret     p

0523 f0        ret     p

0524 f0        ret     p

0525 f0        ret     p

0526 f0        ret     p

0527 f0        ret     p

0528 f0        ret     p

0529 f0        ret     p

052a f0        ret     p

052b f0        ret     p

052c f0        ret     p

052d f0        ret     p

052e f0        ret     p

052f f0        ret     p

0530 f0        ret     p

0531 f0        ret     p

0532 f0        ret     p

0533 f0        ret     p

0534 f0        ret     p

0535 f0        ret     p

0536 f0        ret     p

0537 f0        ret     p

0538 f0        ret     p

0539 f0        ret     p

053a f0        ret     p

053b f0        ret     p

053c f0        ret     p

053d f0        ret     p

053e f0        ret     p

053f f0        ret     p

0540 0f        rrca    
0541 0f        rrca    
0542 ff        rst     38h
0543 f0        ret     p

0544 b9        cp      c
0545 ff        rst     38h
0546 f0        ret     p

0547 e1        pop     hl
0548 f5        push    af
0549 9e        sbc     a,(hl)
054a fafaf5    jp      m,0f5fah
054d f5        push    af
054e fafa00    jp      m,00fah
0551 00        nop     
0552 0f        rrca    
0553 0f        rrca    
0554 ff        rst     38h
0555 ff        rst     38h
0556 0f        rrca    
0557 0f        rrca    
0558 0f        rrca    
0559 0f        rrca    
055a f0        ret     p

055b f0        ret     p

055c f0        ret     p

055d f0        ret     p

055e f0        ret     p

055f f0        ret     p

0560 f0        ret     p

0561 b4        or      h
0562 f0        ret     p

0563 d2f0e1    jp      nc,0e1f0h
0566 f0        ret     p

0567 f0        ret     p

0568 c3f0f0    jp      0f0f0h
056b 78        ld      a,b
056c f0        ret     p

056d 96        sub     (hl)
056e f0        ret     p

056f e1        pop     hl
0570 f0        ret     p

0571 f0        ret     p

0572 f0        ret     p

0573 f0        ret     p

0574 87        add     a,a
0575 f0        ret     p

0576 f0        ret     p

0577 1ef0      ld      e,0f0h
0579 e1        pop     hl
057a f0        ret     p

057b f0        ret     p

057c f0        ret     p

057d f0        ret     p

057e 0f        rrca    
057f 0f        rrca    
0580 4c        ld      c,h
0581 00        nop     
0582 a6        and     (hl)
0583 00        nop     
0584 db00      in      a,(00h)
0586 6f        ld      l,a
0587 00        nop     
0588 f0        ret     p

0589 e1        pop     hl
058a fa9ef5    jp      m,0f59eh
058d f5        push    af
058e fafaf5    jp      m,0f5fah
0591 f5        push    af
0592 0f        rrca    
0593 0eff      ld      c,0ffh
0595 ff        rst     38h
0596 0f        rrca    
0597 0f        rrca    
0598 0f        rrca    
0599 0f        rrca    
059a f0        ret     p

059b f0        ret     p

059c f0        ret     p

059d f0        ret     p

059e f0        ret     p

059f f0        ret     p

05a0 f0        ret     p

05a1 f0        ret     p

05a2 f0        ret     p

05a3 f0        ret     p

05a4 f0        ret     p

05a5 f0        ret     p

05a6 78        ld      a,b
05a7 f0        ret     p

05a8 b4        or      h
05a9 f0        ret     p

05aa d2f0e1    jp      nc,0e1f0h
05ad f0        ret     p

05ae f0        ret     p

05af 78        ld      a,b
05b0 3c        inc     a
05b1 b4        or      h
05b2 d2d2e1    jp      nc,0e1d2h
05b5 69        ld      l,c
05b6 f0        ret     p

05b7 b4        or      h
05b8 3c        inc     a
05b9 c3c378    jp      78c3h
05bc f0        ret     p

05bd 87        add     a,a
05be f0        ret     p

05bf 0f        rrca    
05c0 00        nop     
05c1 00        nop     
05c2 00        nop     
05c3 00        nop     
05c4 00        nop     
05c5 00        nop     
05c6 00        nop     
05c7 00        nop     
05c8 a8        xor     b
05c9 00        nop     
05ca f0        ret     p

05cb d3f5      out     (0f5h),a
05cd 3c        inc     a
05ce fafaf5    jp      m,0f5fah
05d1 f5        push    af
05d2 32facc    ld      (0ccfah),a
05d5 00        nop     
05d6 0f        rrca    
05d7 0f        rrca    
05d8 0f        rrca    
05d9 0f        rrca    
05da 0f        rrca    
05db 0f        rrca    
05dc f0        ret     p

05dd f0        ret     p

05de f0        ret     p

05df f0        ret     p

05e0 f0        ret     p

05e1 f0        ret     p

05e2 f0        ret     p

05e3 f0        ret     p

05e4 f0        ret     p

05e5 f0        ret     p

05e6 f0        ret     p

05e7 f0        ret     p

05e8 f0        ret     p

05e9 f0        ret     p

05ea f0        ret     p

05eb f0        ret     p

05ec f0        ret     p

05ed f0        ret     p

05ee f0        ret     p

05ef f0        ret     p

05f0 f0        ret     p

05f1 f0        ret     p

05f2 f0        ret     p

05f3 f0        ret     p

05f4 f0        ret     p

05f5 f0        ret     p

05f6 78        ld      a,b
05f7 f0        ret     p

05f8 b4        or      h
05f9 f0        ret     p

05fa 5a        ld      e,d
05fb f0        ret     p

05fc 87        add     a,a
05fd f0        ret     p

05fe 0f        rrca    
05ff 0f        rrca    
0600 f0        ret     p

0601 f0        ret     p

0602 f0        ret     p

0603 f0        ret     p

0604 f0        ret     p

0605 f0        ret     p

0606 f0        ret     p

0607 f0        ret     p

0608 f0        ret     p

0609 f0        ret     p

060a f0        ret     p

060b f0        ret     p

060c f0        ret     p

060d f0        ret     p

060e f0        ret     p

060f f0        ret     p

0610 f0        ret     p

0611 f0        ret     p

0612 f0        ret     p

0613 f0        ret     p

0614 f0        ret     p

0615 f0        ret     p

0616 f0        ret     p

0617 f0        ret     p

0618 f0        ret     p

0619 f0        ret     p

061a f0        ret     p

061b f0        ret     p

061c f0        ret     p

061d f0        ret     p

061e f0        ret     p

061f f0        ret     p

0620 f0        ret     p

0621 f0        ret     p

0622 f0        ret     p

0623 f0        ret     p

0624 f0        ret     p

0625 f0        ret     p

0626 0f        rrca    
0627 0f        rrca    
0628 0f        rrca    
0629 0f        rrca    
062a f0        ret     p

062b 91        sub     c
062c 0f        rrca    
062d 0f        rrca    
062e 0f        rrca    
062f 0f        rrca    
0630 ff        rst     38h
0631 ff        rst     38h
0632 ff        rst     38h
0633 cc0000    call    z,0000h
0636 af        xor     a
0637 af        xor     a
0638 5f        ld      e,a
0639 5f        ld      e,a
063a af        xor     a
063b ae        xor     (hl)
063c 0f        rrca    
063d 0f        rrca    
063e ff        rst     38h
063f ff        rst     38h
0640 0f        rrca    
0641 0f        rrca    
0642 f0        ret     p

0643 f0        ret     p

0644 f0        ret     p

0645 f0        ret     p

0646 f0        ret     p

0647 e1        pop     hl
0648 f0        ret     p

0649 1e87      ld      e,87h
064b f0        ret     p

064c f0        ret     p

064d f0        ret     p

064e f0        ret     p

064f f0        ret     p

0650 f0        ret     p

0651 e1        pop     hl
0652 f0        ret     p

0653 96        sub     (hl)
0654 f0        ret     p

0655 78        ld      a,b
0656 c3f0f0    jp      0f0f0h
0659 f0        ret     p

065a f0        ret     p

065b e1        pop     hl
065c f0        ret     p

065d d2f0b4    jp      nc,0b4f0h
0660 f0        ret     p

0661 f0        ret     p

0662 f0        ret     p

0663 f0        ret     p

0664 f0        ret     p

0665 f0        ret     p

0666 0f        rrca    
0667 0f        rrca    
0668 0f        rrca    
0669 0f        rrca    
066a 0f        rrca    
066b 0f        rrca    
066c 0f        rrca    
066d 0f        rrca    
066e 0f        rrca    
066f 0f        rrca    
0670 ff        rst     38h
0671 ff        rst     38h
0672 00        nop     
0673 00        nop     
0674 5f        ld      e,a
0675 5f        ld      e,a
0676 af        xor     a
0677 af        xor     a
0678 5f        ld      e,a
0679 5f        ld      e,a
067a 8f        adc     a,a
067b 0f        rrca    
067c 0ef7      ld      c,0f7h
067e ff        rst     38h
067f ff        rst     38h
0680 f0        ret     p

0681 0f        rrca    
0682 f0        ret     p

0683 87        add     a,a
0684 c3783c    jp      3c78h
0687 c3f0b4    jp      0b4f0h
068a e1        pop     hl
068b 69        ld      l,c
068c d2d23c    jp      nc,3cd2h
068f b4        or      h
0690 f0        ret     p

0691 78        ld      a,b
0692 e1        pop     hl
0693 f0        ret     p

0694 d2f0b4    jp      nc,0b4f0h
0697 f0        ret     p

0698 78        ld      a,b
0699 f0        ret     p

069a f0        ret     p

069b f0        ret     p

069c f0        ret     p

069d f0        ret     p

069e f0        ret     p

069f f0        ret     p

06a0 f0        ret     p

06a1 f0        ret     p

06a2 f0        ret     p

06a3 f0        ret     p

06a4 0f        rrca    
06a5 0f        rrca    
06a6 0f        rrca    
06a7 0f        rrca    
06a8 0f        rrca    
06a9 0f        rrca    
06aa 7f        ld      a,a
06ab ff        rst     38h
06ac 0f        rrca    
06ad 0f        rrca    
06ae 0f        rrca    
06af 3f        ccf     
06b0 cc00af    call    z,0af00h
06b3 af        xor     a
06b4 5f        ld      e,a
06b5 5f        ld      e,a
06b6 af        xor     a
06b7 eb        ex      de,hl
06b8 8f        adc     a,a
06b9 0f        rrca    
06ba 2ef7      ld      l,0f7h
06bc bb        cp      e
06bd ff        rst     38h
06be ddff      rst     38h
06c0 0f        rrca    
06c1 0f        rrca    
06c2 87        add     a,a
06c3 f0        ret     p

06c4 5a        ld      e,d
06c5 f0        ret     p

06c6 b4        or      h
06c7 f0        ret     p

06c8 78        ld      a,b
06c9 f0        ret     p

06ca f0        ret     p

06cb f0        ret     p

06cc f0        ret     p

06cd f0        ret     p

06ce f0        ret     p

06cf f0        ret     p

06d0 f0        ret     p

06d1 f0        ret     p

06d2 f0        ret     p

06d3 f0        ret     p

06d4 f0        ret     p

06d5 f0        ret     p

06d6 f0        ret     p

06d7 f0        ret     p

06d8 f0        ret     p

06d9 f0        ret     p

06da f0        ret     p

06db f0        ret     p

06dc f0        ret     p

06dd f0        ret     p

06de f0        ret     p

06df f0        ret     p

06e0 f0        ret     p

06e1 f0        ret     p

06e2 f0        ret     p

06e3 96        sub     (hl)
06e4 0f        rrca    
06e5 0f        rrca    
06e6 0f        rrca    
06e7 0f        rrca    
06e8 0f        rrca    
06e9 0f        rrca    
06ea ff        rst     38h
06eb ff        rst     38h
06ec 2e00      ld      l,00h
06ee 01af5f    ld      bc,5fafh
06f1 5f        ld      e,a
06f2 af        xor     a
06f3 af        xor     a
06f4 5f        ld      e,a
06f5 47        ld      b,a
06f6 0f        rrca    
06f7 1f        rra     
06f8 5c        ld      e,h
06f9 ff        rst     38h
06fa ff        rst     38h
06fb ff        rst     38h
06fc ff        rst     38h
06fd ff        rst     38h
06fe ff        rst     38h
06ff ff        rst     38h
0700 ff        rst     38h
0701 ff        rst     38h
0702 0f        rrca    
0703 6d        ld      l,l
0704 f0        ret     p

0705 a7        and     a
0706 f0        ret     p

0707 a7        and     a
0708 77        ld      (hl),a
0709 43        ld      b,e
070a 5d        ld      e,l
070b cf        rst     08h
070c ff        rst     38h
070d cf        rst     08h
070e ff        rst     38h
070f deff      sbc     a,0ffh
0711 ef        rst     28h
0712 ff        rst     38h
0713 ff        rst     38h
0714 ff        rst     38h
0715 ff        rst     38h
0716 f1        pop     af
0717 ff        rst     38h
0718 1eff      ld      e,0ffh
071a 01f701    ld      bc,01f7h
071d f7        rst     30h
071e 01f700    ld      bc,00f7h
0721 78        ld      a,b
0722 00        nop     
0723 07        rlca    
0724 00        nop     
0725 00        nop     
0726 00        nop     
0727 00        nop     
0728 00        nop     
0729 00        nop     
072a 00        nop     
072b 00        nop     
072c 00        nop     
072d 00        nop     
072e 00        nop     
072f 00        nop     
0730 00        nop     
0731 00        nop     
0732 00        nop     
0733 00        nop     
0734 00        nop     
0735 00        nop     
0736 00        nop     
0737 00        nop     
0738 00        nop     
0739 00        nop     
073a 00        nop     
073b 00        nop     
073c 00        nop     
073d 00        nop     
073e 00        nop     
073f 00        nop     
0740 ff        rst     38h
0741 ff        rst     38h
0742 ff        rst     38h
0743 1e0f      ld      e,0fh
0745 78        ld      a,b
0746 c0        ret     nz

0747 00        nop     
0748 80        add     a,b
0749 00        nop     
074a 80        add     a,b
074b 6e        ld      l,(hl)
074c 81        add     a,c
074d aa        xor     d
074e c0        ret     nz

074f 98        sbc     a,b
0750 f0        ret     p

0751 fc4b2d    call    m,2d4bh
0754 8f        adc     a,a
0755 0f        rrca    
0756 ff        rst     38h
0757 6f        ld      l,a
0758 ff        rst     38h
0759 ff        rst     38h
075a ff        rst     38h
075b ff        rst     38h
075c ff        rst     38h
075d ff        rst     38h
075e ff        rst     38h
075f ff        rst     38h
0760 f0        ret     p

0761 f0        ret     p

0762 0f        rrca    
0763 0f        rrca    
0764 00        nop     
0765 00        nop     
0766 00        nop     
0767 00        nop     
0768 00        nop     
0769 00        nop     
076a 00        nop     
076b 00        nop     
076c 00        nop     
076d 00        nop     
076e 00        nop     
076f 00        nop     
0770 00        nop     
0771 00        nop     
0772 00        nop     
0773 00        nop     
0774 00        nop     
0775 00        nop     
0776 00        nop     
0777 00        nop     
0778 00        nop     
0779 00        nop     
077a 00        nop     
077b 00        nop     
077c 00        nop     
077d 00        nop     
077e 00        nop     
077f 00        nop     
0780 feff      cp      0ffh
0782 b7        or      a
0783 ff        rst     38h
0784 a7        and     a
0785 ff        rst     38h
0786 a7        and     a
0787 f0        ret     p

0788 a7        and     a
0789 0f        rrca    
078a a7        and     a
078b 00        nop     
078c a7        and     a
078d 00        nop     
078e a7        and     a
078f 00        nop     
0790 5f        ld      e,a
0791 00        nop     
0792 2e00      ld      l,00h
0794 4c        ld      c,h
0795 00        nop     
0796 00        nop     
0797 00        nop     
0798 08        ex      af,af'
0799 00        nop     
079a 08        ex      af,af'
079b 00        nop     
079c 08        ex      af,af'
079d 00        nop     
079e 08        ex      af,af'
079f 00        nop     
07a0 08        ex      af,af'
07a1 00        nop     
07a2 00        nop     
07a3 00        nop     
07a4 00        nop     
07a5 00        nop     
07a6 00        nop     
07a7 00        nop     
07a8 00        nop     
07a9 00        nop     
07aa 00        nop     
07ab 00        nop     
07ac 00        nop     
07ad 00        nop     
07ae 00        nop     
07af 00        nop     
07b0 00        nop     
07b1 00        nop     
07b2 00        nop     
07b3 00        nop     
07b4 00        nop     
07b5 00        nop     
07b6 00        nop     
07b7 00        nop     
07b8 00        nop     
07b9 00        nop     
07ba 00        nop     
07bb 00        nop     
07bc 00        nop     
07bd 00        nop     
07be 00        nop     
07bf 00        nop     
07c0 ff        rst     38h
07c1 ff        rst     38h
07c2 ff        rst     38h
07c3 fef8      cp      0f8h
07c5 e1        pop     hl
07c6 87        add     a,a
07c7 0e08      ld      c,08h
07c9 00        nop     
07ca 00        nop     
07cb 00        nop     
07cc 00        nop     
07cd 00        nop     
07ce 00        nop     
07cf 00        nop     
07d0 00        nop     
07d1 00        nop     
07d2 00        nop     
07d3 00        nop     
07d4 00        nop     
07d5 00        nop     
07d6 00        nop     
07d7 00        nop     
07d8 00        nop     
07d9 00        nop     
07da 00        nop     
07db 00        nop     
07dc 00        nop     
07dd 00        nop     
07de 00        nop     
07df 00        nop     
07e0 00        nop     
07e1 00        nop     
07e2 00        nop     
07e3 00        nop     
07e4 00        nop     
07e5 00        nop     
07e6 00        nop     
07e7 00        nop     
07e8 00        nop     
07e9 00        nop     
07ea 00        nop     
07eb 00        nop     
07ec 00        nop     
07ed 00        nop     
07ee 00        nop     
07ef 00        nop     
07f0 00        nop     
07f1 00        nop     
07f2 00        nop     
07f3 00        nop     
07f4 00        nop     
07f5 00        nop     
07f6 00        nop     
07f7 00        nop     
07f8 00        nop     
07f9 00        nop     
07fa 00        nop     
07fb 00        nop     
07fc 00        nop     
07fd 00        nop     
07fe 00        nop     
07ff 00        nop     
0800 00        nop     
0801 00        nop     
0802 00        nop     
0803 00        nop     
0804 00        nop     
0805 00        nop     
0806 00        nop     
0807 00        nop     
0808 00        nop     
0809 00        nop     
080a 00        nop     
080b 00        nop     
080c 00        nop     
080d 00        nop     
080e 00        nop     
080f 00        nop     
0810 00        nop     
0811 00        nop     
0812 00        nop     
0813 00        nop     
0814 00        nop     
0815 00        nop     
0816 00        nop     
0817 00        nop     
0818 00        nop     
0819 00        nop     
081a 00        nop     
081b 00        nop     
081c 00        nop     
081d 00        nop     
081e 00        nop     
081f 00        nop     
0820 00        nop     
0821 00        nop     
0822 00        nop     
0823 00        nop     
0824 00        nop     
0825 00        nop     
0826 00        nop     
0827 00        nop     
0828 00        nop     
0829 00        nop     
082a 0c        inc     c
082b 00        nop     
082c 2800      jr      z,082eh
082e c8        ret     z

082f ccffea    call    z,0eaffh
0832 0f        rrca    
0833 ea0fea    jp      pe,0ea0fh
0836 e1        pop     hl
0837 6e        ld      l,(hl)
0838 70        ld      (hl),b
0839 e1        pop     hl
083a 00        nop     
083b 53        ld      d,e
083c f0        ret     p

083d b7        or      a
083e ff        rst     38h
083f ff        rst     38h
0840 00        nop     
0841 00        nop     
0842 00        nop     
0843 00        nop     
0844 00        nop     
0845 00        nop     
0846 00        nop     
0847 00        nop     
0848 00        nop     
0849 00        nop     
084a 00        nop     
084b 00        nop     
084c 00        nop     
084d 00        nop     
084e 00        nop     
084f 00        nop     
0850 00        nop     
0851 00        nop     
0852 00        nop     
0853 00        nop     
0854 00        nop     
0855 00        nop     
0856 00        nop     
0857 00        nop     
0858 00        nop     
0859 00        nop     
085a 00        nop     
085b 00        nop     
085c 00        nop     
085d 00        nop     
085e 00        nop     
085f 00        nop     
0860 00        nop     
0861 00        nop     
0862 00        nop     
0863 00        nop     
0864 00        nop     
0865 00        nop     
0866 00        nop     
0867 00        nop     
0868 10f0      djnz    085ah
086a 12        ld      (de),a
086b f0        ret     p

086c 24        inc     h
086d 00        nop     
086e 48        ld      c,b
086f 00        nop     
0870 48        ld      c,b
0871 00        nop     
0872 48        ld      c,b
0873 00        nop     
0874 48        ld      c,b
0875 00        nop     
0876 48        ld      c,b
0877 00        nop     
0878 2c        inc     l
0879 52        ld      d,d
087a 48        ld      c,b
087b 84        add     a,h
087c 48        ld      c,b
087d 4c        ld      c,h
087e 34        inc     (hl)
087f f600      or      00h
0881 00        nop     
0882 00        nop     
0883 00        nop     
0884 00        nop     
0885 00        nop     
0886 00        nop     
0887 00        nop     
0888 00        nop     
0889 00        nop     
088a 00        nop     
088b 00        nop     
088c 00        nop     
088d 00        nop     
088e 00        nop     
088f 00        nop     
0890 00        nop     
0891 00        nop     
0892 00        nop     
0893 00        nop     
0894 00        nop     
0895 00        nop     
0896 00        nop     
0897 00        nop     
0898 00        nop     
0899 00        nop     
089a 00        nop     
089b 00        nop     
089c 00        nop     
089d 00        nop     
089e 00        nop     
089f 00        nop     
08a0 00        nop     
08a1 00        nop     
08a2 00        nop     
08a3 00        nop     
08a4 00        nop     
08a5 00        nop     
08a6 00        nop     
08a7 00        nop     
08a8 e0        ret     po

08a9 00        nop     
08aa 1e00      ld      e,00h
08ac 13        inc     de
08ad 80        add     a,b
08ae 01c801    ld      bc,01c8h
08b1 c8        ret     z

08b2 01c801    ld      bc,01c8h
08b5 c8        ret     z

08b6 01c801    ld      bc,01c8h
08b9 48        ld      c,b
08ba 014b21    ld      bc,214bh
08bd 7b        ld      a,e
08be 96        sub     (hl)
08bf f0        ret     p

08c0 00        nop     
08c1 00        nop     
08c2 00        nop     
08c3 00        nop     
08c4 00        nop     
08c5 00        nop     
08c6 00        nop     
08c7 00        nop     
08c8 00        nop     
08c9 00        nop     
08ca 00        nop     
08cb 00        nop     
08cc 00        nop     
08cd 00        nop     
08ce 00        nop     
08cf 00        nop     
08d0 00        nop     
08d1 00        nop     
08d2 00        nop     
08d3 00        nop     
08d4 00        nop     
08d5 00        nop     
08d6 00        nop     
08d7 00        nop     
08d8 00        nop     
08d9 00        nop     
08da 00        nop     
08db 00        nop     
08dc 00        nop     
08dd 00        nop     
08de 00        nop     
08df 00        nop     
08e0 00        nop     
08e1 00        nop     
08e2 00        nop     
08e3 00        nop     
08e4 00        nop     
08e5 00        nop     
08e6 00        nop     
08e7 00        nop     
08e8 00        nop     
08e9 00        nop     
08ea 00        nop     
08eb 00        nop     
08ec 00        nop     
08ed 00        nop     
08ee 00        nop     
08ef 00        nop     
08f0 00        nop     
08f1 00        nop     
08f2 00        nop     
08f3 00        nop     
08f4 00        nop     
08f5 00        nop     
08f6 00        nop     
08f7 00        nop     
08f8 00        nop     
08f9 00        nop     
08fa 0f        rrca    
08fb 4c        ld      c,h
08fc ff        rst     38h
08fd 8e        adc     a,(hl)
08fe f0        ret     p

08ff 6f        ld      l,a
0900 f0        ret     p

0901 f0        ret     p

0902 f5        push    af
0903 e7        rst     20h
0904 fafaf5    jp      m,0f5fah
0907 f5        push    af
0908 00        nop     
0909 10ff      djnz    090ah
090b ff        rst     38h
090c ff        rst     38h
090d ff        rst     38h
090e ff        rst     38h
090f ff        rst     38h
0910 0f        rrca    
0911 0f        rrca    
0912 0f        rrca    
0913 0f        rrca    
0914 f0        ret     p

0915 f0        ret     p

0916 0f        rrca    
0917 0f        rrca    
0918 0f        rrca    
0919 0f        rrca    
091a f0        ret     p

091b f0        ret     p

091c f0        ret     p

091d f0        ret     p

091e f0        ret     p

091f f0        ret     p

0920 f0        ret     p

0921 f0        ret     p

0922 f0        ret     p

0923 f0        ret     p

0924 f0        ret     p

0925 f0        ret     p

0926 f0        ret     p

0927 f0        ret     p

0928 f0        ret     p

0929 f0        ret     p

092a f0        ret     p

092b f0        ret     p

092c f0        ret     p

092d f0        ret     p

092e f0        ret     p

092f f0        ret     p

0930 f0        ret     p

0931 f0        ret     p

0932 f0        ret     p

0933 e1        pop     hl
0934 f0        ret     p

0935 e1        pop     hl
0936 f0        ret     p

0937 e1        pop     hl
0938 f0        ret     p

0939 e1        pop     hl
093a f0        ret     p

093b e1        pop     hl
093c f0        ret     p

093d e1        pop     hl
093e f0        ret     p

093f e1        pop     hl
0940 1d        dec     e
0941 77        ld      (hl),a
0942 f0        ret     p

0943 f0        ret     p

0944 faebf5    jp      m,0f5ebh
0947 f5        push    af
0948 fafa00    jp      m,00fah
094b 10ff      djnz    094ch
094d eeff      xor     0ffh
094f ff        rst     38h
0950 0f        rrca    
0951 0f        rrca    
0952 0f        rrca    
0953 0f        rrca    
0954 f0        ret     p

0955 f0        ret     p

0956 0f        rrca    
0957 0f        rrca    
0958 0f        rrca    
0959 0f        rrca    
095a f0        ret     p

095b f0        ret     p

095c f0        ret     p

095d f0        ret     p

095e f0        ret     p

095f f0        ret     p

0960 f0        ret     p

0961 f0        ret     p

0962 f0        ret     p

0963 f0        ret     p

0964 f0        ret     p

0965 f0        ret     p

0966 f0        ret     p

0967 f0        ret     p

0968 f0        ret     p

0969 f0        ret     p

096a f0        ret     p

096b f0        ret     p

096c f0        ret     p

096d f0        ret     p

096e f0        ret     p

096f f0        ret     p

0970 e1        pop     hl
0971 0f        rrca    
0972 0f        rrca    
0973 ff        rst     38h
0974 43        ld      b,e
0975 87        add     a,a
0976 0f        rrca    
0977 f7        rst     30h
0978 0b        dec     bc
0979 a2        and     d
097a 0b        dec     bc
097b f7        rst     30h
097c 0b        dec     bc
097d d5        push    de
097e c5        push    bc
097f 47        ld      b,a
0980 ac        xor     h
0981 78        ld      a,b
0982 2f        cpl     
0983 ff        rst     38h
0984 f0        ret     p

0985 f0        ret     p

0986 f5        push    af
0987 f5        push    af
0988 fafaf5    jp      m,0f5fah
098b f5        push    af
098c 00        nop     
098d 00        nop     
098e ff        rst     38h
098f ff        rst     38h
0990 0f        rrca    
0991 0f        rrca    
0992 0f        rrca    
0993 0f        rrca    
0994 0f        rrca    
0995 0f        rrca    
0996 0f        rrca    
0997 0f        rrca    
0998 0f        rrca    
0999 0f        rrca    
099a f0        ret     p

099b f0        ret     p

099c f0        ret     p

099d f0        ret     p

099e f0        ret     p

099f f0        ret     p

09a0 f0        ret     p

09a1 f0        ret     p

09a2 f0        ret     p

09a3 f0        ret     p

09a4 f0        ret     p

09a5 f0        ret     p

09a6 f0        ret     p

09a7 f0        ret     p

09a8 f0        ret     p

09a9 f0        ret     p

09aa f0        ret     p

09ab f0        ret     p

09ac f0        ret     p

09ad f0        ret     p

09ae f0        ret     p

09af f0        ret     p

09b0 0f        rrca    
09b1 0f        rrca    
09b2 ff        rst     38h
09b3 ff        rst     38h
09b4 0f        rrca    
09b5 0f        rrca    
09b6 ff        rst     38h
09b7 ff        rst     38h
09b8 aa        xor     d
09b9 aa        xor     d
09ba ff        rst     38h
09bb ff        rst     38h
09bc 55        ld      d,l
09bd 55        ld      d,l
09be ff        rst     38h
09bf ff        rst     38h
09c0 f0        ret     p

09c1 b7        or      a
09c2 ff        rst     38h
09c3 ff        rst     38h
09c4 f0        ret     p

09c5 f0        ret     p

09c6 f5        push    af
09c7 f5        push    af
09c8 fafaf5    jp      m,0f5fah
09cb f5        push    af
09cc 00        nop     
09cd 00        nop     
09ce ff        rst     38h
09cf ff        rst     38h
09d0 0f        rrca    
09d1 0f        rrca    
09d2 0f        rrca    
09d3 0f        rrca    
09d4 0f        rrca    
09d5 0f        rrca    
09d6 0f        rrca    
09d7 0f        rrca    
09d8 0f        rrca    
09d9 0f        rrca    
09da f0        ret     p

09db f0        ret     p

09dc f0        ret     p

09dd f0        ret     p

09de f0        ret     p

09df f0        ret     p

09e0 f0        ret     p

09e1 f0        ret     p

09e2 f0        ret     p

09e3 f0        ret     p

09e4 f0        ret     p

09e5 f0        ret     p

09e6 f0        ret     p

09e7 f0        ret     p

09e8 f0        ret     p

09e9 f0        ret     p

09ea f0        ret     p

09eb f0        ret     p

09ec f0        ret     p

09ed f0        ret     p

09ee f0        ret     p

09ef f0        ret     p

09f0 0f        rrca    
09f1 0f        rrca    
09f2 ff        rst     38h
09f3 ff        rst     38h
09f4 0f        rrca    
09f5 0f        rrca    
09f6 ff        rst     38h
09f7 ef        rst     28h
09f8 aa        xor     d
09f9 8b        adc     a,e
09fa ff        rst     38h
09fb cf        rst     08h
09fc 55        ld      d,l
09fd 47        ld      b,a
09fe 0f        rrca    
09ff 2d        dec     l
0a00 f0        ret     p

0a01 e1        pop     hl
0a02 f0        ret     p

0a03 e1        pop     hl
0a04 f0        ret     p

0a05 e1        pop     hl
0a06 f0        ret     p

0a07 e1        pop     hl
0a08 f0        ret     p

0a09 e1        pop     hl
0a0a f0        ret     p

0a0b e1        pop     hl
0a0c f0        ret     p

0a0d e1        pop     hl
0a0e f0        ret     p

0a0f e1        pop     hl
0a10 f0        ret     p

0a11 e1        pop     hl
0a12 f0        ret     p

0a13 e1        pop     hl
0a14 f0        ret     p

0a15 e1        pop     hl
0a16 f0        ret     p

0a17 e1        pop     hl
0a18 f0        ret     p

0a19 e1        pop     hl
0a1a f0        ret     p

0a1b e1        pop     hl
0a1c f0        ret     p

0a1d e1        pop     hl
0a1e f0        ret     p

0a1f e1        pop     hl
0a20 f0        ret     p

0a21 e1        pop     hl
0a22 f0        ret     p

0a23 e1        pop     hl
0a24 f0        ret     p

0a25 e1        pop     hl
0a26 0f        rrca    
0a27 0f        rrca    
0a28 0f        rrca    
0a29 0f        rrca    
0a2a f0        ret     p

0a2b e1        pop     hl
0a2c 0f        rrca    
0a2d 0f        rrca    
0a2e 0f        rrca    
0a2f 0f        rrca    
0a30 f0        ret     p

0a31 e1        pop     hl
0a32 f0        ret     p

0a33 e1        pop     hl
0a34 f0        ret     p

0a35 f0        ret     p

0a36 0f        rrca    
0a37 0f        rrca    
0a38 0f        rrca    
0a39 0f        rrca    
0a3a 0f        rrca    
0a3b 0f        rrca    
0a3c ff        rst     38h
0a3d ff        rst     38h
0a3e ff        rst     38h
0a3f ff        rst     38h
0a40 c5        push    bc
0a41 03        inc     bc
0a42 0b        dec     bc
0a43 f7        rst     30h
0a44 0b        dec     bc
0a45 d5        push    de
0a46 0b        dec     bc
0a47 f7        rst     30h
0a48 0b        dec     bc
0a49 a2        and     d
0a4a 0b        dec     bc
0a4b f7        rst     30h
0a4c 0b        dec     bc
0a4d d5        push    de
0a4e 0b        dec     bc
0a4f f7        rst     30h
0a50 0b        dec     bc
0a51 a2        and     d
0a52 0b        dec     bc
0a53 f7        rst     30h
0a54 0b        dec     bc
0a55 d5        push    de
0a56 0b        dec     bc
0a57 f7        rst     30h
0a58 0b        dec     bc
0a59 a2        and     d
0a5a 0b        dec     bc
0a5b f7        rst     30h
0a5c 0b        dec     bc
0a5d d5        push    de
0a5e 0b        dec     bc
0a5f f7        rst     30h
0a60 0b        dec     bc
0a61 a2        and     d
0a62 0b        dec     bc
0a63 f7        rst     30h
0a64 0b        dec     bc
0a65 d5        push    de
0a66 81        add     a,c
0a67 c7        rst     00h
0a68 81        add     a,c
0a69 83        add     a,e
0a6a 0b        dec     bc
0a6b f7        rst     30h
0a6c 81        add     a,c
0a6d c7        rst     00h
0a6e 81        add     a,c
0a6f f7        rst     30h
0a70 43        ld      b,e
0a71 00        nop     
0a72 0f        rrca    
0a73 ff        rst     38h
0a74 e1        pop     hl
0a75 3f        ccf     
0a76 0f        rrca    
0a77 7f        ld      a,a
0a78 0f        rrca    
0a79 ee1f      xor     1fh
0a7b cdff9b    call    9bffh
0a7e ff        rst     38h
0a7f 27        daa     
0a80 aa        xor     d
0a81 aa        xor     d
0a82 ff        rst     38h
0a83 ff        rst     38h
0a84 55        ld      d,l
0a85 55        ld      d,l
0a86 ff        rst     38h
0a87 ff        rst     38h
0a88 aa        xor     d
0a89 aa        xor     d
0a8a ff        rst     38h
0a8b ff        rst     38h
0a8c 55        ld      d,l
0a8d 55        ld      d,l
0a8e ff        rst     38h
0a8f ff        rst     38h
0a90 aa        xor     d
0a91 aa        xor     d
0a92 ff        rst     38h
0a93 ff        rst     38h
0a94 55        ld      d,l
0a95 55        ld      d,l
0a96 ff        rst     38h
0a97 ff        rst     38h
0a98 aa        xor     d
0a99 aa        xor     d
0a9a ff        rst     38h
0a9b ff        rst     38h
0a9c 55        ld      d,l
0a9d 55        ld      d,l
0a9e ff        rst     38h
0a9f ff        rst     38h
0aa0 aa        xor     d
0aa1 aa        xor     d
0aa2 ff        rst     38h
0aa3 ff        rst     38h
0aa4 55        ld      d,l
0aa5 55        ld      d,l
0aa6 0f        rrca    
0aa7 0f        rrca    
0aa8 0f        rrca    
0aa9 0f        rrca    
0aaa ff        rst     38h
0aab ff        rst     38h
0aac 0f        rrca    
0aad 0f        rrca    
0aae ff        rst     38h
0aaf ff        rst     38h
0ab0 f0        ret     p

0ab1 f0        ret     p

0ab2 ff        rst     38h
0ab3 ff        rst     38h
0ab4 ff        rst     38h
0ab5 ff        rst     38h
0ab6 ff        rst     38h
0ab7 ff        rst     38h
0ab8 00        nop     
0ab9 00        nop     
0aba af        xor     a
0abb af        xor     a
0abc 5f        ld      e,a
0abd 5f        ld      e,a
0abe af        xor     a
0abf af        xor     a
0ac0 0f        rrca    
0ac1 2d        dec     l
0ac2 ff        rst     38h
0ac3 cf        rst     08h
0ac4 55        ld      d,l
0ac5 47        ld      b,a
0ac6 ff        rst     38h
0ac7 cf        rst     08h
0ac8 aa        xor     d
0ac9 8b        adc     a,e
0aca ff        rst     38h
0acb cf        rst     08h
0acc 55        ld      d,l
0acd 47        ld      b,a
0ace ff        rst     38h
0acf cf        rst     08h
0ad0 aa        xor     d
0ad1 8b        adc     a,e
0ad2 ff        rst     38h
0ad3 cf        rst     08h
0ad4 55        ld      d,l
0ad5 47        ld      b,a
0ad6 ff        rst     38h
0ad7 cf        rst     08h
0ad8 aa        xor     d
0ad9 8b        adc     a,e
0ada ff        rst     38h
0adb cf        rst     08h
0adc 55        ld      d,l
0add 47        ld      b,a
0ade ff        rst     38h
0adf cf        rst     08h
0ae0 aa        xor     d
0ae1 8b        adc     a,e
0ae2 ff        rst     38h
0ae3 cf        rst     08h
0ae4 55        ld      d,l
0ae5 47        ld      b,a
0ae6 0f        rrca    
0ae7 2d        dec     l
0ae8 0f        rrca    
0ae9 2d        dec     l
0aea ff        rst     38h
0aeb cf        rst     08h
0aec 0f        rrca    
0aed 2d        dec     l
0aee ff        rst     38h
0aef cf        rst     08h
0af0 c0        ret     nz

0af1 01ffff    ld      bc,0ffffh
0af4 ff        rst     38h
0af5 ff        rst     38h
0af6 88        adc     a,b
0af7 00        nop     
0af8 57        ld      d,a
0af9 5f        ld      e,a
0afa af        xor     a
0afb af        xor     a
0afc 5f        ld      e,a
0afd 2b        dec     hl
0afe 0f        rrca    
0aff 1f        rra     
0b00 ff        rst     38h
0b01 ff        rst     38h
0b02 00        nop     
0b03 00        nop     
0b04 5f        ld      e,a
0b05 5f        ld      e,a
0b06 af        xor     a
0b07 af        xor     a
0b08 5f        ld      e,a
0b09 5f        ld      e,a
0b0a 0f        rrca    
0b0b 0f        rrca    
0b0c 73        ld      (hl),e
0b0d ff        rst     38h
0b0e ff        rst     38h
0b0f ff        rst     38h
0b10 ff        rst     38h
0b11 ff        rst     38h
0b12 ff        rst     38h
0b13 ff        rst     38h
0b14 ff        rst     38h
0b15 ff        rst     38h
0b16 ff        rst     38h
0b17 ff        rst     38h
0b18 ff        rst     38h
0b19 ff        rst     38h
0b1a f0        ret     p

0b1b f1        pop     af
0b1c 0f        rrca    
0b1d 1e00      ld      e,00h
0b1f 010001    ld      bc,0100h
0b22 00        nop     
0b23 010001    ld      bc,0100h
0b26 00        nop     
0b27 010001    ld      bc,0100h
0b2a 00        nop     
0b2b 00        nop     
0b2c 00        nop     
0b2d 00        nop     
0b2e 00        nop     
0b2f 00        nop     
0b30 00        nop     
0b31 00        nop     
0b32 00        nop     
0b33 00        nop     
0b34 00        nop     
0b35 00        nop     
0b36 00        nop     
0b37 00        nop     
0b38 00        nop     
0b39 00        nop     
0b3a 00        nop     
0b3b 00        nop     
0b3c 00        nop     
0b3d 00        nop     
0b3e 00        nop     
0b3f 00        nop     
0b40 ee5f      xor     5fh
0b42 01af5f    ld      bc,5fafh
0b45 5f        ld      e,a
0b46 af        xor     a
0b47 af        xor     a
0b48 5f        ld      e,a
0b49 5e        ld      e,(hl)
0b4a 0f        rrca    
0b4b 78        ld      a,b
0b4c ee48      xor     48h
0b4e ee48      xor     48h
0b50 ff        rst     38h
0b51 48        ld      c,b
0b52 ff        rst     38h
0b53 48        ld      c,b
0b54 ef        rst     28h
0b55 48        ld      c,b
0b56 ef        rst     28h
0b57 68        ld      l,b
0b58 ff        rst     38h
0b59 3c        inc     a
0b5a ff        rst     38h
0b5b 8f        adc     a,a
0b5c ff        rst     38h
0b5d cf        rst     08h
0b5e ff        rst     38h
0b5f ff        rst     38h
0b60 ff        rst     38h
0b61 ff        rst     38h
0b62 ff        rst     38h
0b63 ff        rst     38h
0b64 ff        rst     38h
0b65 ff        rst     38h
0b66 ff        rst     38h
0b67 ff        rst     38h
0b68 f7        rst     30h
0b69 ff        rst     38h
0b6a 78        ld      a,b
0b6b fa07a5    jp      m,0a507h
0b6e 00        nop     
0b6f 0a        ld      a,(bc)
0b70 00        nop     
0b71 00        nop     
0b72 00        nop     
0b73 00        nop     
0b74 00        nop     
0b75 00        nop     
0b76 00        nop     
0b77 00        nop     
0b78 00        nop     
0b79 00        nop     
0b7a 00        nop     
0b7b 00        nop     
0b7c 00        nop     
0b7d 00        nop     
0b7e 00        nop     
0b7f 00        nop     
0b80 0f        rrca    
0b81 1f        rra     
0b82 ff        rst     38h
0b83 bb        cp      e
0b84 ff        rst     38h
0b85 dd0f      rrca    
0b87 2ef0      ld      l,0f0h
0b89 d3f0      out     (0f0h),a
0b8b d300      out     (00h),a
0b8d 53        ld      d,e
0b8e 2053      jr      nz,0be3h
0b90 0653      ld      b,53h
0b92 2f        cpl     
0b93 53        ld      d,e
0b94 6e        ld      l,(hl)
0b95 53        ld      d,e
0b96 00        nop     
0b97 53        ld      d,e
0b98 f0        ret     p

0b99 a7        and     a
0b9a 0f        rrca    
0b9b 4e        ld      c,(hl)
0b9c 0f        rrca    
0b9d 0eff      ld      c,0ffh
0b9f caffca    jp      z,0caffh
0ba2 ff        rst     38h
0ba3 caffca    jp      z,0caffh
0ba6 ff        rst     38h
0ba7 caff84    jp      z,84ffh
0baa f0        ret     p

0bab 08        ex      af,af'
0bac 0f        rrca    
0bad 00        nop     
0bae 00        nop     
0baf 00        nop     
0bb0 00        nop     
0bb1 00        nop     
0bb2 00        nop     
0bb3 00        nop     
0bb4 00        nop     
0bb5 00        nop     
0bb6 00        nop     
0bb7 00        nop     
0bb8 00        nop     
0bb9 00        nop     
0bba 00        nop     
0bbb 00        nop     
0bbc 00        nop     
0bbd 00        nop     
0bbe 00        nop     
0bbf 00        nop     
0bc0 77        ld      (hl),a
0bc1 ff        rst     38h
0bc2 ff        rst     38h
0bc3 ff        rst     38h
0bc4 67        ld      h,a
0bc5 0f        rrca    
0bc6 ef        rst     28h
0bc7 78        ld      a,b
0bc8 7f        ld      a,a
0bc9 8e        adc     a,(hl)
0bca 7f        ld      a,a
0bcb ef        rst     28h
0bcc 7f        ld      a,a
0bcd ff        rst     38h
0bce 7f        ld      a,a
0bcf ff        rst     38h
0bd0 7f        ld      a,a
0bd1 ff        rst     38h
0bd2 7f        ld      a,a
0bd3 ff        rst     38h
0bd4 7f        ld      a,a
0bd5 ff        rst     38h
0bd6 7f        ld      a,a
0bd7 ff        rst     38h
0bd8 f0        ret     p

0bd9 ff        rst     38h
0bda 0f        rrca    
0bdb f0        ret     p

0bdc 00        nop     
0bdd 0f        rrca    
0bde 00        nop     
0bdf 00        nop     
0be0 00        nop     
0be1 00        nop     
0be2 00        nop     
0be3 00        nop     
0be4 00        nop     
0be5 00        nop     
0be6 00        nop     
0be7 00        nop     
0be8 00        nop     
0be9 00        nop     
0bea 00        nop     
0beb 00        nop     
0bec 00        nop     
0bed 00        nop     
0bee 00        nop     
0bef 00        nop     
0bf0 00        nop     
0bf1 00        nop     
0bf2 00        nop     
0bf3 00        nop     
0bf4 00        nop     
0bf5 00        nop     
0bf6 00        nop     
0bf7 00        nop     
0bf8 00        nop     
0bf9 00        nop     
0bfa 00        nop     
0bfb 00        nop     
0bfc 00        nop     
0bfd 00        nop     
0bfe 00        nop     
0bff 00        nop     
0c00 00        nop     
0c01 00        nop     
0c02 00        nop     
0c03 00        nop     
0c04 00        nop     
0c05 00        nop     
0c06 00        nop     
0c07 00        nop     
0c08 00        nop     
0c09 00        nop     
0c0a 00        nop     
0c0b 00        nop     
0c0c 00        nop     
0c0d 00        nop     
0c0e 00        nop     
0c0f 00        nop     
0c10 00        nop     
0c11 00        nop     
0c12 00        nop     
0c13 00        nop     
0c14 00        nop     
0c15 00        nop     
0c16 00        nop     
0c17 00        nop     
0c18 00        nop     
0c19 00        nop     
0c1a 00        nop     
0c1b 00        nop     
0c1c 00        nop     
0c1d 00        nop     
0c1e 00        nop     
0c1f 00        nop     
0c20 00        nop     
0c21 00        nop     
0c22 00        nop     
0c23 00        nop     
0c24 00        nop     
0c25 00        nop     
0c26 78        ld      a,b
0c27 80        add     a,b
0c28 ff        rst     38h
0c29 80        add     a,b
0c2a 1f        rra     
0c2b 80        add     a,b
0c2c d3f0      out     (0f0h),a
0c2e 9f        sbc     a,a
0c2f ff        rst     38h
0c30 3b        dec     sp
0c31 8f        adc     a,a
0c32 f0        ret     p

0c33 3b        dec     sp
0c34 ab        xor     e
0c35 e1        pop     hl
0c36 f5        push    af
0c37 56        ld      d,(hl)
0c38 faea31    jp      m,31eah
0c3b f5        push    af
0c3c cc10ff    call    z,0ff10h
0c3f ee00      xor     00h
0c41 00        nop     
0c42 00        nop     
0c43 00        nop     
0c44 00        nop     
0c45 00        nop     
0c46 00        nop     
0c47 00        nop     
0c48 00        nop     
0c49 00        nop     
0c4a 00        nop     
0c4b 00        nop     
0c4c 00        nop     
0c4d 00        nop     
0c4e 00        nop     
0c4f 00        nop     
0c50 00        nop     
0c51 00        nop     
0c52 00        nop     
0c53 00        nop     
0c54 00        nop     
0c55 00        nop     
0c56 00        nop     
0c57 00        nop     
0c58 00        nop     
0c59 00        nop     
0c5a 00        nop     
0c5b 00        nop     
0c5c 00        nop     
0c5d 00        nop     
0c5e 00        nop     
0c5f 00        nop     
0c60 00        nop     
0c61 010012    ld      bc,1200h
0c64 00        nop     
0c65 24        inc     h
0c66 00        nop     
0c67 48        ld      c,b
0c68 00        nop     
0c69 48        ld      c,b
0c6a 00        nop     
0c6b 68        ld      l,b
0c6c 0f        rrca    
0c6d d1        pop     de
0c6e cf        rst     08h
0c6f 80        add     a,b
0c70 78        ld      a,b
0c71 f3        di      
0c72 3c        inc     a
0c73 c1        pop     bc
0c74 67        ld      h,a
0c75 7f        ld      a,a
0c76 c2f7bc    jp      nz,0bcf7h
0c79 b7        or      a
0c7a f5        push    af
0c7b 78        ld      a,b
0c7c faab31    jp      m,31abh
0c7f f5        push    af
0c80 00        nop     
0c81 00        nop     
0c82 00        nop     
0c83 00        nop     
0c84 00        nop     
0c85 00        nop     
0c86 00        nop     
0c87 00        nop     
0c88 00        nop     
0c89 00        nop     
0c8a 00        nop     
0c8b 00        nop     
0c8c 00        nop     
0c8d 00        nop     
0c8e 00        nop     
0c8f 00        nop     
0c90 00        nop     
0c91 00        nop     
0c92 00        nop     
0c93 00        nop     
0c94 00        nop     
0c95 00        nop     
0c96 00        nop     
0c97 00        nop     
0c98 00        nop     
0c99 00        nop     
0c9a 00        nop     
0c9b 00        nop     
0c9c 00        nop     
0c9d 00        nop     
0c9e 00        nop     
0c9f 00        nop     
0ca0 0f        rrca    
0ca1 00        nop     
0ca2 c38010    jp      1080h
0ca5 48        ld      c,b
0ca6 00        nop     
0ca7 e400e4    call    po,0e400h
0caa cee4      adc     a,0e4h
0cac 22e4aa    ld      (0aae4h),hl
0caf e446e4    call    po,0e446h
0cb2 8c        adc     a,h
0cb3 e488f4    call    po,0f488h
0cb6 c0        ret     nz

0cb7 f4f8f5    call    p,0f5f8h
0cba 5c        ld      e,h
0cbb 2d        dec     l
0cbc e1        pop     hl
0cbd 78        ld      a,b
0cbe d6b5      sub     0b5h
0cc0 00        nop     
0cc1 00        nop     
0cc2 00        nop     
0cc3 00        nop     
0cc4 00        nop     
0cc5 00        nop     
0cc6 00        nop     
0cc7 00        nop     
0cc8 00        nop     
0cc9 00        nop     
0cca 00        nop     
0ccb 00        nop     
0ccc 00        nop     
0ccd 00        nop     
0cce 00        nop     
0ccf 00        nop     
0cd0 00        nop     
0cd1 00        nop     
0cd2 00        nop     
0cd3 00        nop     
0cd4 00        nop     
0cd5 00        nop     
0cd6 00        nop     
0cd7 00        nop     
0cd8 00        nop     
0cd9 00        nop     
0cda 00        nop     
0cdb 00        nop     
0cdc 00        nop     
0cdd 00        nop     
0cde 00        nop     
0cdf 00        nop     
0ce0 00        nop     
0ce1 00        nop     
0ce2 00        nop     
0ce3 00        nop     
0ce4 00        nop     
0ce5 00        nop     
0ce6 00        nop     
0ce7 00        nop     
0ce8 00        nop     
0ce9 03        inc     bc
0cea 00        nop     
0ceb 2f        cpl     
0cec 77        ld      (hl),a
0ced ff        rst     38h
0cee ff        rst     38h
0cef fb        ei      
0cf0 ff        rst     38h
0cf1 ff        rst     38h
0cf2 cf        rst     08h
0cf3 0f        rrca    
0cf4 8f        adc     a,a
0cf5 0f        rrca    
0cf6 9e        sbc     a,(hl)
0cf7 34        inc     (hl)
0cf8 3c        inc     a
0cf9 97        sub     a
0cfa f8        ret     m

0cfb c0        ret     nz

0cfc f0        ret     p

0cfd f0        ret     p

0cfe ff        rst     38h
0cff ff        rst     38h
0d00 ff        rst     38h
0d01 ff        rst     38h
0d02 3f        ccf     
0d03 ff        rst     38h
0d04 87        add     a,a
0d05 0f        rrca    
0d06 87        add     a,a
0d07 0f        rrca    
0d08 a5        and     l
0d09 0f        rrca    
0d0a 96        sub     (hl)
0d0b c397cd    jp      0cd97h
0d0e 97        sub     a
0d0f cd3cc2    call    0c23ch
0d12 3d        dec     a
0d13 cc97cd    call    z,0cd97h
0d16 3c        inc     a
0d17 c23dcc    jp      nz,0cc3dh
0d1a 97        sub     a
0d1b cd96c3    call    0c396h
0d1e 97        sub     a
0d1f cd97cd    call    0cd97h
0d22 96        sub     (hl)
0d23 c397cd    jp      0cd97h
0d26 97        sub     a
0d27 cd96c3    call    0c396h
0d2a 97        sub     a
0d2b cd1fcd    call    0cd1fh
0d2e 9e        sbc     a,(hl)
0d2f c31ec3    jp      0c31eh
0d32 1f        rra     
0d33 cd1fcd    call    0cd1fh
0d36 1ec3      ld      e,0c3h
0d38 1f        rra     
0d39 cd1fcd    call    0cd1fh
0d3c 1ec3      ld      e,0c3h
0d3e 97        sub     a
0d3f cccc72    call    z,72cch
0d42 ff        rst     38h
0d43 88        adc     a,b
0d44 ff        rst     38h
0d45 ff        rst     38h
0d46 3f        ccf     
0d47 ff        rst     38h
0d48 4b        ld      c,e
0d49 1c        inc     e
0d4a 78        ld      a,b
0d4b 86        add     a,(hl)
0d4c 78        ld      a,b
0d4d 97        sub     a
0d4e 78        ld      a,b
0d4f 97        sub     a
0d50 0f        rrca    
0d51 3d        dec     a
0d52 0f        rrca    
0d53 3d        dec     a
0d54 78        ld      a,b
0d55 97        sub     a
0d56 0f        rrca    
0d57 3d        dec     a
0d58 0f        rrca    
0d59 3d        dec     a
0d5a 78        ld      a,b
0d5b 97        sub     a
0d5c 78        ld      a,b
0d5d 97        sub     a
0d5e 78        ld      a,b
0d5f 97        sub     a
0d60 78        ld      a,b
0d61 97        sub     a
0d62 78        ld      a,b
0d63 97        sub     a
0d64 78        ld      a,b
0d65 97        sub     a
0d66 78        ld      a,b
0d67 97        sub     a
0d68 78        ld      a,b
0d69 97        sub     a
0d6a 78        ld      a,b
0d6b 97        sub     a
0d6c 78        ld      a,b
0d6d 97        sub     a
0d6e 78        ld      a,b
0d6f 97        sub     a
0d70 78        ld      a,b
0d71 97        sub     a
0d72 78        ld      a,b
0d73 97        sub     a
0d74 78        ld      a,b
0d75 97        sub     a
0d76 78        ld      a,b
0d77 97        sub     a
0d78 78        ld      a,b
0d79 97        sub     a
0d7a 78        ld      a,b
0d7b 97        sub     a
0d7c 78        ld      a,b
0d7d 97        sub     a
0d7e 0f        rrca    
0d7f 3d        dec     a
0d80 ea78f5    jp      pe,0f578h
0d83 f5        push    af
0d84 10fa      djnz    0d80h
0d86 ee31      xor     31h
0d88 b7        or      a
0d89 cc37ff    call    z,0ff37h
0d8c 37        scf     
0d8d ff        rst     38h
0d8e 07        rlca    
0d8f 3f        ccf     
0d90 03        inc     bc
0d91 0f        rrca    
0d92 03        inc     bc
0d93 0f        rrca    
0d94 16f0      ld      d,0f0h
0d96 03        inc     bc
0d97 0f        rrca    
0d98 03        inc     bc
0d99 0f        rrca    
0d9a 16f0      ld      d,0f0h
0d9c 16f0      ld      d,0f0h
0d9e 16f0      ld      d,0f0h
0da0 16f0      ld      d,0f0h
0da2 16f0      ld      d,0f0h
0da4 16f0      ld      d,0f0h
0da6 16f0      ld      d,0f0h
0da8 16f0      ld      d,0f0h
0daa 16f0      ld      d,0f0h
0dac 16f0      ld      d,0f0h
0dae 16f0      ld      d,0f0h
0db0 16f0      ld      d,0f0h
0db2 16f0      ld      d,0f0h
0db4 16f0      ld      d,0f0h
0db6 16f0      ld      d,0f0h
0db8 16f0      ld      d,0f0h
0dba 16f0      ld      d,0f0h
0dbc 16f0      ld      d,0f0h
0dbe 16f0      ld      d,0f0h
0dc0 f0        ret     p

0dc1 f0        ret     p

0dc2 f5        push    af
0dc3 f5        push    af
0dc4 fafaf5    jp      m,0f5fah
0dc7 f5        push    af
0dc8 00        nop     
0dc9 00        nop     
0dca ff        rst     38h
0dcb df        rst     18h
0dcc ff        rst     38h
0dcd fdff      rst     38h
0dcf dd0f      rrca    
0dd1 2f        cpl     
0dd2 0f        rrca    
0dd3 2f        cpl     
0dd4 f0        ret     p

0dd5 d0        ret     nc

0dd6 0f        rrca    
0dd7 2f        cpl     
0dd8 0f        rrca    
0dd9 2f        cpl     
0dda f0        ret     p

0ddb d0        ret     nc

0ddc f0        ret     p

0ddd d0        ret     nc

0dde f0        ret     p

0ddf d0        ret     nc

0de0 f0        ret     p

0de1 d0        ret     nc

0de2 f0        ret     p

0de3 d0        ret     nc

0de4 f0        ret     p

0de5 d0        ret     nc

0de6 f0        ret     p

0de7 d0        ret     nc

0de8 f0        ret     p

0de9 d0        ret     nc

0dea f0        ret     p

0deb d0        ret     nc

0dec f0        ret     p

0ded d0        ret     nc

0dee f0        ret     p

0def d0        ret     nc

0df0 f0        ret     p

0df1 d0        ret     nc

0df2 f0        ret     p

0df3 d0        ret     nc

0df4 f0        ret     p

0df5 d0        ret     nc

0df6 f0        ret     p

0df7 d0        ret     nc

0df8 f0        ret     p

0df9 d0        ret     nc

0dfa f0        ret     p

0dfb d0        ret     nc

0dfc f0        ret     p

0dfd d0        ret     nc

0dfe 0f        rrca    
0dff 2f        cpl     
0e00 97        sub     a
0e01 cc1ec3    call    z,0c31eh
0e04 1f        rra     
0e05 cd1fcd    call    0cd1fh
0e08 1ec3      ld      e,0c3h
0e0a 1f        rra     
0e0b cd1fcd    call    0cd1fh
0e0e 1ec3      ld      e,0c3h
0e10 1ec3      ld      e,0c3h
0e12 1f        rra     
0e13 cd1fcd    call    0cd1fh
0e16 1ec3      ld      e,0c3h
0e18 1f        rra     
0e19 cd1fcd    call    0cd1fh
0e1c 1ec3      ld      e,0c3h
0e1e 1f        rra     
0e1f cd1fcd    call    0cd1fh
0e22 1ec3      ld      e,0c3h
0e24 1f        rra     
0e25 cd97cc    call    0cc97h
0e28 96        sub     (hl)
0e29 c21fcd    jp      nz,0cd1fh
0e2c 1f        rra     
0e2d cc1ec2    call    z,0c21eh
0e30 97        sub     a
0e31 cd1fcd    call    0cd1fh
0e34 96        sub     (hl)
0e35 c38601    jp      0186h
0e38 87        add     a,a
0e39 0f        rrca    
0e3a 3c        inc     a
0e3b f0        ret     p

0e3c f0        ret     p

0e3d f0        ret     p

0e3e f0        ret     p

0e3f f0        ret     p

0e40 0f        rrca    
0e41 3d        dec     a
0e42 78        ld      a,b
0e43 97        sub     a
0e44 78        ld      a,b
0e45 97        sub     a
0e46 78        ld      a,b
0e47 97        sub     a
0e48 78        ld      a,b
0e49 97        sub     a
0e4a 78        ld      a,b
0e4b 97        sub     a
0e4c 78        ld      a,b
0e4d 97        sub     a
0e4e 78        ld      a,b
0e4f 97        sub     a
0e50 78        ld      a,b
0e51 97        sub     a
0e52 78        ld      a,b
0e53 97        sub     a
0e54 78        ld      a,b
0e55 97        sub     a
0e56 78        ld      a,b
0e57 97        sub     a
0e58 78        ld      a,b
0e59 97        sub     a
0e5a 78        ld      a,b
0e5b 97        sub     a
0e5c 78        ld      a,b
0e5d 97        sub     a
0e5e 78        ld      a,b
0e5f 97        sub     a
0e60 78        ld      a,b
0e61 97        sub     a
0e62 78        ld      a,b
0e63 97        sub     a
0e64 78        ld      a,b
0e65 97        sub     a
0e66 0f        rrca    
0e67 3d        dec     a
0e68 0f        rrca    
0e69 3d        dec     a
0e6a 78        ld      a,b
0e6b 97        sub     a
0e6c 0f        rrca    
0e6d 3d        dec     a
0e6e 0f        rrca    
0e6f 3d        dec     a
0e70 78        ld      a,b
0e71 97        sub     a
0e72 78        ld      a,b
0e73 97        sub     a
0e74 78        ld      a,b
0e75 97        sub     a
0e76 78        ld      a,b
0e77 97        sub     a
0e78 78        ld      a,b
0e79 97        sub     a
0e7a 0f        rrca    
0e7b 5f        ld      e,a
0e7c 0f        rrca    
0e7d 5f        ld      e,a
0e7e 0f        rrca    
0e7f 5f        ld      e,a
0e80 16f0      ld      d,0f0h
0e82 16f0      ld      d,0f0h
0e84 16f0      ld      d,0f0h
0e86 16f0      ld      d,0f0h
0e88 16f0      ld      d,0f0h
0e8a 16f0      ld      d,0f0h
0e8c 16f0      ld      d,0f0h
0e8e 16f0      ld      d,0f0h
0e90 16f0      ld      d,0f0h
0e92 16f0      ld      d,0f0h
0e94 16f0      ld      d,0f0h
0e96 16f0      ld      d,0f0h
0e98 16f0      ld      d,0f0h
0e9a 16f0      ld      d,0f0h
0e9c 16f0      ld      d,0f0h
0e9e 16f0      ld      d,0f0h
0ea0 16f0      ld      d,0f0h
0ea2 16f0      ld      d,0f0h
0ea4 16f0      ld      d,0f0h
0ea6 03        inc     bc
0ea7 0f        rrca    
0ea8 03        inc     bc
0ea9 0f        rrca    
0eaa 16f0      ld      d,0f0h
0eac 03        inc     bc
0ead 0f        rrca    
0eae 03        inc     bc
0eaf 0f        rrca    
0eb0 16f0      ld      d,0f0h
0eb2 16f0      ld      d,0f0h
0eb4 16f0      ld      d,0f0h
0eb6 16f0      ld      d,0f0h
0eb8 16f0      ld      d,0f0h
0eba 27        daa     
0ebb 0f        rrca    
0ebc 27        daa     
0ebd 0f        rrca    
0ebe 27        daa     
0ebf 1f        rra     
0ec0 0f        rrca    
0ec1 2f        cpl     
0ec2 f0        ret     p

0ec3 d0        ret     nc

0ec4 f0        ret     p

0ec5 d0        ret     nc

0ec6 f0        ret     p

0ec7 d0        ret     nc

0ec8 f0        ret     p

0ec9 d0        ret     nc

0eca f0        ret     p

0ecb d0        ret     nc

0ecc f0        ret     p

0ecd d0        ret     nc

0ece f0        ret     p

0ecf d0        ret     nc

0ed0 f0        ret     p

0ed1 d0        ret     nc

0ed2 f0        ret     p

0ed3 d0        ret     nc

0ed4 f0        ret     p

0ed5 d0        ret     nc

0ed6 f0        ret     p

0ed7 d0        ret     nc

0ed8 f0        ret     p

0ed9 d0        ret     nc

0eda f0        ret     p

0edb d0        ret     nc

0edc f0        ret     p

0edd d0        ret     nc

0ede f0        ret     p

0edf d0        ret     nc

0ee0 f0        ret     p

0ee1 d0        ret     nc

0ee2 f0        ret     p

0ee3 d0        ret     nc

0ee4 f0        ret     p

0ee5 d0        ret     nc

0ee6 0f        rrca    
0ee7 2f        cpl     
0ee8 0f        rrca    
0ee9 2f        cpl     
0eea f0        ret     p

0eeb d0        ret     nc

0eec 0f        rrca    
0eed 2f        cpl     
0eee 0f        rrca    
0eef 2f        cpl     
0ef0 f0        ret     p

0ef1 d0        ret     nc

0ef2 f0        ret     p

0ef3 d0        ret     nc

0ef4 f0        ret     p

0ef5 d0        ret     nc

0ef6 f0        ret     p

0ef7 c1        pop     bc
0ef8 0f        rrca    
0ef9 0d        dec     c
0efa 0f        rrca    
0efb 0d        dec     c
0efc 0f        rrca    
0efd 1d        dec     e
0efe ff        rst     38h
0eff fdf0      ret     p

0f01 87        add     a,a
0f02 f0        ret     p

0f03 1f        rra     
0f04 e1        pop     hl
0f05 3f        ccf     
0f06 c33fa7    jp      0a73fh
0f09 b7        or      a
0f0a 4f        ld      c,a
0f0b 2ee9      ld      l,0e9h
0f0d 5d        ld      e,l
0f0e 30ab      jr      nc,0ebbh
0f10 99        sbc     a,c
0f11 57        ld      d,a
0f12 eeaf      xor     0afh
0f14 114faf    ld      de,0af4fh
0f17 9f        sbc     a,a
0f18 5f        ld      e,a
0f19 3f        ccf     
0f1a af        xor     a
0f1b 7f        ld      a,a
0f1c 0f        rrca    
0f1d ff        rst     38h
0f1e eefe      xor     0feh
0f20 eeed      xor     0edh
0f22 3f        ccf     
0f23 cab784    jp      z,84b7h
0f26 b7        or      a
0f27 08        ex      af,af'
0f28 27        daa     
0f29 00        nop     
0f2a 4e        ld      c,(hl)
0f2b 00        nop     
0f2c 0c        inc     c
0f2d 00        nop     
0f2e 08        ex      af,af'
0f2f 00        nop     
0f30 08        ex      af,af'
0f31 00        nop     
0f32 08        ex      af,af'
0f33 00        nop     
0f34 08        ex      af,af'
0f35 00        nop     
0f36 08        ex      af,af'
0f37 00        nop     
0f38 08        ex      af,af'
0f39 00        nop     
0f3a 00        nop     
0f3b 00        nop     
0f3c 00        nop     
0f3d 00        nop     
0f3e 00        nop     
0f3f 00        nop     
0f40 ff        rst     38h
0f41 9b        sbc     a,e
0f42 ff        rst     38h
0f43 aa        xor     d
0f44 ff        rst     38h
0f45 ff        rst     38h
0f46 88        adc     a,b
0f47 00        nop     
0f48 57        ld      d,a
0f49 5f        ld      e,a
0f4a af        xor     a
0f4b af        xor     a
0f4c 5f        ld      e,a
0f4d 5f        ld      e,a
0f4e 8f        adc     a,a
0f4f 0f        rrca    
0f50 3f        ccf     
0f51 ff        rst     38h
0f52 7f        ld      a,a
0f53 ff        rst     38h
0f54 ff        rst     38h
0f55 ff        rst     38h
0f56 ff        rst     38h
0f57 ff        rst     38h
0f58 ff        rst     38h
0f59 ff        rst     38h
0f5a ff        rst     38h
0f5b ff        rst     38h
0f5c ff        rst     38h
0f5d ff        rst     38h
0f5e f0        ret     p

0f5f f0        ret     p

0f60 0f        rrca    
0f61 0f        rrca    
0f62 00        nop     
0f63 00        nop     
0f64 00        nop     
0f65 00        nop     
0f66 00        nop     
0f67 00        nop     
0f68 00        nop     
0f69 00        nop     
0f6a 00        nop     
0f6b 00        nop     
0f6c 00        nop     
0f6d 00        nop     
0f6e 00        nop     
0f6f 00        nop     
0f70 00        nop     
0f71 00        nop     
0f72 00        nop     
0f73 00        nop     
0f74 00        nop     
0f75 00        nop     
0f76 00        nop     
0f77 00        nop     
0f78 00        nop     
0f79 00        nop     
0f7a 00        nop     
0f7b 00        nop     
0f7c 00        nop     
0f7d 00        nop     
0f7e 00        nop     
0f7f 00        nop     
0f80 15        dec     d
0f81 ff        rst     38h
0f82 15        dec     d
0f83 ff        rst     38h
0f84 ff        rst     38h
0f85 ff        rst     38h
0f86 00        nop     
0f87 215f5f    ld      hl,5f5fh
0f8a af        xor     a
0f8b af        xor     a
0f8c 5f        ld      e,a
0f8d 6f        ld      l,a
0f8e 0f        rrca    
0f8f 1f        rra     
0f90 ff        rst     38h
0f91 ff        rst     38h
0f92 ff        rst     38h
0f93 ff        rst     38h
0f94 ff        rst     38h
0f95 ff        rst     38h
0f96 ff        rst     38h
0f97 ff        rst     38h
0f98 ff        rst     38h
0f99 ff        rst     38h
0f9a ff        rst     38h
0f9b ff        rst     38h
0f9c ff        rst     38h
0f9d f0        ret     p

0f9e f0        ret     p

0f9f 0f        rrca    
0fa0 0f        rrca    
0fa1 00        nop     
0fa2 00        nop     
0fa3 00        nop     
0fa4 00        nop     
0fa5 00        nop     
0fa6 00        nop     
0fa7 00        nop     
0fa8 00        nop     
0fa9 00        nop     
0faa 00        nop     
0fab 00        nop     
0fac 00        nop     
0fad 00        nop     
0fae 00        nop     
0faf 00        nop     
0fb0 00        nop     
0fb1 00        nop     
0fb2 00        nop     
0fb3 00        nop     
0fb4 00        nop     
0fb5 00        nop     
0fb6 00        nop     
0fb7 00        nop     
0fb8 00        nop     
0fb9 00        nop     
0fba 00        nop     
0fbb 00        nop     
0fbc 00        nop     
0fbd 00        nop     
0fbe 00        nop     
0fbf 00        nop     
0fc0 ff        rst     38h
0fc1 df        rst     18h
0fc2 ff        rst     38h
0fc3 ff        rst     38h
0fc4 00        nop     
0fc5 13        inc     de
0fc6 af        xor     a
0fc7 af        xor     a
0fc8 5f        ld      e,a
0fc9 5f        ld      e,a
0fca af        xor     a
0fcb af        xor     a
0fcc 0f        rrca    
0fcd 1f        rra     
0fce 73        ld      (hl),e
0fcf ff        rst     38h
0fd0 ff        rst     38h
0fd1 ff        rst     38h
0fd2 ff        rst     38h
0fd3 ff        rst     38h
0fd4 ff        rst     38h
0fd5 ff        rst     38h
0fd6 ff        rst     38h
0fd7 ff        rst     38h
0fd8 ff        rst     38h
0fd9 ff        rst     38h
0fda ff        rst     38h
0fdb f0        ret     p

0fdc f0        ret     p

0fdd 0f        rrca    
0fde 0f        rrca    
0fdf 00        nop     
0fe0 00        nop     
0fe1 00        nop     
0fe2 00        nop     
0fe3 00        nop     
0fe4 00        nop     
0fe5 00        nop     
0fe6 00        nop     
0fe7 00        nop     
0fe8 00        nop     
0fe9 00        nop     
0fea 00        nop     
0feb 00        nop     
0fec 00        nop     
0fed 00        nop     
0fee 00        nop     
0fef 00        nop     
0ff0 00        nop     
0ff1 00        nop     
0ff2 00        nop     
0ff3 00        nop     
0ff4 00        nop     
0ff5 00        nop     
0ff6 00        nop     
0ff7 00        nop     
0ff8 00        nop     
0ff9 00        nop     
0ffa 00        nop     
0ffb 00        nop     
0ffc 00        nop     
0ffd 00        nop     
0ffe 00        nop     
0fff 00        nop     
1000 00        nop     
1001 00        nop     
1002 00        nop     
1003 00        nop     
1004 00        nop     
1005 00        nop     
1006 00        nop     
1007 00        nop     
1008 00        nop     
1009 00        nop     
100a 00        nop     
100b 00        nop     
100c 00        nop     
100d 00        nop     
100e 00        nop     
100f 00        nop     
1010 00        nop     
1011 00        nop     
1012 00        nop     
1013 00        nop     
1014 00        nop     
1015 00        nop     
1016 00        nop     
1017 00        nop     
1018 c0        ret     nz

1019 00        nop     
101a a4        and     h
101b 00        nop     
101c 12        ld      (de),a
101d 00        nop     
101e 318031    ld      sp,3180h
1021 80        add     a,b
1022 3180b9    ld      sp,0b980h
1025 81        add     a,c
1026 b9        cp      c
1027 c5        push    bc
1028 f9        ld      sp,hl
1029 a1        and     c
102a b6        or      (hl)
102b 1f        rra     
102c 0f        rrca    
102d 1f        rra     
102e ff        rst     38h
102f ff        rst     38h
1030 f0        ret     p

1031 f0        ret     p

1032 f5        push    af
1033 f5        push    af
1034 fafaf5    jp      m,0f5fah
1037 f5        push    af
1038 00        nop     
1039 00        nop     
103a ff        rst     38h
103b 15        dec     d
103c 87        add     a,a
103d 51        ld      d,c
103e 09        add     hl,bc
103f 110000    ld      de,0000h
1042 00        nop     
1043 00        nop     
1044 00        nop     
1045 00        nop     
1046 00        nop     
1047 00        nop     
1048 00        nop     
1049 00        nop     
104a 00        nop     
104b 00        nop     
104c 00        nop     
104d 00        nop     
104e 00        nop     
104f 00        nop     
1050 00        nop     
1051 00        nop     
1052 00        nop     
1053 00        nop     
1054 00        nop     
1055 00        nop     
1056 00        nop     
1057 00        nop     
1058 00        nop     
1059 00        nop     
105a 00        nop     
105b 00        nop     
105c 00        nop     
105d 00        nop     
105e 00        nop     
105f 00        nop     
1060 1688      ld      d,88h
1062 3f        ccf     
1063 c4e1c8    call    nz,0c8e1h
1066 e9        jp      (hl)
1067 8c        adc     a,h
1068 8f        adc     a,a
1069 84        add     a,h
106a ef        rst     28h
106b cc0fcc    call    z,0cc0fh
106e 3f        ccf     
106f 8f        adc     a,a
1070 f0        ret     p

1071 f0        ret     p

1072 f5        push    af
1073 f5        push    af
1074 fafaf5    jp      m,0f5fah
1077 f5        push    af
1078 00        nop     
1079 00        nop     
107a ff        rst     38h
107b ff        rst     38h
107c ff        rst     38h
107d ff        rst     38h
107e ff        rst     38h
107f ff        rst     38h
1080 00        nop     
1081 00        nop     
1082 00        nop     
1083 00        nop     
1084 00        nop     
1085 00        nop     
1086 00        nop     
1087 00        nop     
1088 00        nop     
1089 00        nop     
108a 00        nop     
108b 00        nop     
108c 00        nop     
108d 00        nop     
108e 00        nop     
108f 00        nop     
1090 00        nop     
1091 00        nop     
1092 00        nop     
1093 00        nop     
1094 00        nop     
1095 00        nop     
1096 00        nop     
1097 00        nop     
1098 00        nop     
1099 1600      ld      d,00h
109b 78        ld      a,b
109c 018012    ld      bc,1280h
109f 00        nop     
10a0 12        ld      (de),a
10a1 03        inc     bc
10a2 12        ld      (de),a
10a3 37        scf     
10a4 324c13    ld      (134ch),a
10a7 cc57bf    call    z,0bf57h
10aa df        rst     18h
10ab ef        rst     28h
10ac e9        jp      (hl)
10ad fcffff    call    m,0ffffh
10b0 f0        ret     p

10b1 f0        ret     p

10b2 f5        push    af
10b3 f5        push    af
10b4 fafaf5    jp      m,0f5fah
10b7 f5        push    af
10b8 00        nop     
10b9 00        nop     
10ba ff        rst     38h
10bb ff        rst     38h
10bc ff        rst     38h
10bd ff        rst     38h
10be ff        rst     38h
10bf ff        rst     38h
10c0 00        nop     
10c1 00        nop     
10c2 00        nop     
10c3 00        nop     
10c4 00        nop     
10c5 00        nop     
10c6 00        nop     
10c7 00        nop     
10c8 00        nop     
10c9 00        nop     
10ca 00        nop     
10cb 00        nop     
10cc 00        nop     
10cd 00        nop     
10ce 00        nop     
10cf 00        nop     
10d0 00        nop     
10d1 00        nop     
10d2 00        nop     
10d3 00        nop     
10d4 00        nop     
10d5 00        nop     
10d6 00        nop     
10d7 00        nop     
10d8 e200b5    jp      po,0b500h
10db 00        nop     
10dc 52        ld      d,d
10dd 88        adc     a,b
10de 218039    ld      hl,3980h
10e1 80        add     a,b
10e2 39        add     hl,sp
10e3 80        add     a,b
10e4 318031    ld      sp,3180h
10e7 87        add     a,a
10e8 79        ld      a,c
10e9 ff        rst     38h
10ea c30ff0    jp      0f00fh
10ed f0        ret     p

10ee ff        rst     38h
10ef ff        rst     38h
10f0 f0        ret     p

10f1 f0        ret     p

10f2 f5        push    af
10f3 c5        push    bc
10f4 fafaf5    jp      m,0f5fah
10f7 f5        push    af
10f8 00        nop     
10f9 00        nop     
10fa ff        rst     38h
10fb ff        rst     38h
10fc ff        rst     38h
10fd ff        rst     38h
10fe ff        rst     38h
10ff ff        rst     38h
1100 4d        ld      c,l
1101 ab        xor     e
1102 4d        ld      c,l
1103 1a        ld      a,(de)
1104 4d        ld      c,l
1105 1a        ld      a,(de)
1106 4d        ld      c,l
1107 1a        ld      a,(de)
1108 4d        ld      c,l
1109 1a        ld      a,(de)
110a 4d        ld      c,l
110b 1a        ld      a,(de)
110c 4d        ld      c,l
110d 1a        ld      a,(de)
110e 4d        ld      c,l
110f 1a        ld      a,(de)
1110 4d        ld      c,l
1111 1a        ld      a,(de)
1112 4d        ld      c,l
1113 1a        ld      a,(de)
1114 4d        ld      c,l
1115 0b        dec     bc
1116 4c        ld      c,h
1117 4f        ld      c,a
1118 4c        ld      c,h
1119 4f        ld      c,a
111a 4d        ld      c,l
111b 0b        dec     bc
111c 4c        ld      c,h
111d 4f        ld      c,a
111e 4c        ld      c,h
111f 4f        ld      c,a
1120 4d        ld      c,l
1121 1a        ld      a,(de)
1122 4d        ld      c,l
1123 1a        ld      a,(de)
1124 4d        ld      c,l
1125 1a        ld      a,(de)
1126 4d        ld      c,l
1127 1a        ld      a,(de)
1128 4d        ld      c,l
1129 1a        ld      a,(de)
112a 4d        ld      c,l
112b 1a        ld      a,(de)
112c 4d        ld      c,l
112d 1a        ld      a,(de)
112e 4d        ld      c,l
112f 384d      jr      c,117eh
1131 284d      jr      z,1180h
1133 284d      jr      z,1182h
1135 284d      jr      z,1184h
1137 284d      jr      z,1186h
1139 284d      jr      z,1188h
113b 284d      jr      z,118ah
113d 284d      jr      z,118ch
113f 39        add     hl,sp
1140 0f        rrca    
1141 0f        rrca    
1142 f0        ret     p

1143 f0        ret     p

1144 f0        ret     p

1145 f0        ret     p

1146 f0        ret     p

1147 f0        ret     p

1148 f0        ret     p

1149 f0        ret     p

114a f0        ret     p

114b f0        ret     p

114c f0        ret     p

114d f0        ret     p

114e f0        ret     p

114f f0        ret     p

1150 f0        ret     p

1151 f0        ret     p

1152 f0        ret     p

1153 f0        ret     p

1154 0f        rrca    
1155 0f        rrca    
1156 0f        rrca    
1157 0f        rrca    
1158 0f        rrca    
1159 0f        rrca    
115a 0f        rrca    
115b 0f        rrca    
115c 0f        rrca    
115d 0f        rrca    
115e 0f        rrca    
115f 0f        rrca    
1160 f0        ret     p

1161 f0        ret     p

1162 f0        ret     p

1163 f0        ret     p

1164 f0        ret     p

1165 f0        ret     p

1166 f0        ret     p

1167 f0        ret     p

1168 f0        ret     p

1169 f0        ret     p

116a f0        ret     p

116b f0        ret     p

116c 0f        rrca    
116d 0f        rrca    
116e ff        rst     38h
116f ff        rst     38h
1170 ff        rst     38h
1171 ff        rst     38h
1172 77        ld      (hl),a
1173 77        ld      (hl),a
1174 ff        rst     38h
1175 ef        rst     28h
1176 dd23      inc     ix
1178 ee44      xor     44h
117a ccb9cc    call    z,0ccb9h
117d c0        ret     nz

117e eee2      xor     0e2h
1180 0f        rrca    
1181 0f        rrca    
1182 f0        ret     p

1183 f0        ret     p

1184 f0        ret     p

1185 f0        ret     p

1186 f0        ret     p

1187 f0        ret     p

1188 f0        ret     p

1189 f0        ret     p

118a f0        ret     p

118b f0        ret     p

118c f0        ret     p

118d f0        ret     p

118e f0        ret     p

118f f0        ret     p

1190 f0        ret     p

1191 f0        ret     p

1192 f0        ret     p

1193 f0        ret     p

1194 0f        rrca    
1195 0f        rrca    
1196 0f        rrca    
1197 0f        rrca    
1198 0f        rrca    
1199 0f        rrca    
119a 0f        rrca    
119b 0f        rrca    
119c 0f        rrca    
119d 0f        rrca    
119e 0f        rrca    
119f 0f        rrca    
11a0 f0        ret     p

11a1 f0        ret     p

11a2 f0        ret     p

11a3 f0        ret     p

11a4 f0        ret     p

11a5 f0        ret     p

11a6 f0        ret     p

11a7 f0        ret     p

11a8 f0        ret     p

11a9 f0        ret     p

11aa f0        ret     p

11ab f0        ret     p

11ac 0f        rrca    
11ad 0f        rrca    
11ae ff        rst     38h
11af ff        rst     38h
11b0 fddd59    ld      e,c
11b3 4b        ld      c,e
11b4 3c        inc     a
11b5 67        ld      h,a
11b6 5e        ld      e,(hl)
11b7 91        sub     c
11b8 87        add     a,a
11b9 4e        ld      c,(hl)
11ba 60        ld      h,b
11bb 08        ex      af,af'
11bc ff        rst     38h
11bd ac        xor     h
11be 01080f    ld      bc,0f08h
11c1 0f        rrca    
11c2 f0        ret     p

11c3 e1        pop     hl
11c4 f0        ret     p

11c5 f0        ret     p

11c6 f0        ret     p

11c7 f0        ret     p

11c8 f0        ret     p

11c9 f0        ret     p

11ca f0        ret     p

11cb f0        ret     p

11cc f0        ret     p

11cd f0        ret     p

11ce f0        ret     p

11cf f0        ret     p

11d0 f0        ret     p

11d1 f0        ret     p

11d2 f0        ret     p

11d3 f0        ret     p

11d4 0f        rrca    
11d5 0f        rrca    
11d6 0f        rrca    
11d7 0f        rrca    
11d8 0f        rrca    
11d9 0f        rrca    
11da 0f        rrca    
11db 0f        rrca    
11dc 0f        rrca    
11dd 0f        rrca    
11de 0f        rrca    
11df 0f        rrca    
11e0 f0        ret     p

11e1 f0        ret     p

11e2 f0        ret     p

11e3 f0        ret     p

11e4 f0        ret     p

11e5 f0        ret     p

11e6 f0        ret     p

11e7 f0        ret     p

11e8 f0        ret     p

11e9 f0        ret     p

11ea f0        ret     p

11eb f0        ret     p

11ec 0f        rrca    
11ed 0f        rrca    
11ee ff        rst     38h
11ef ff        rst     38h
11f0 d1        pop     de
11f1 99        sbc     a,c
11f2 d0        ret     nc

11f3 bb        cp      e
11f4 48        ld      c,b
11f5 77        ld      (hl),a
11f6 2c        inc     l
11f7 77        ld      (hl),a
11f8 9f        sbc     a,a
11f9 33        inc     sp
11fa cf        rst     08h
11fb 7f        ld      a,a
11fc ef        rst     28h
11fd 97        sub     a
11fe 66        ld      h,(hl)
11ff 25        dec     h
1200 4d        ld      c,l
1201 39        add     hl,sp
1202 4d        ld      c,l
1203 284d      jr      z,1252h
1205 284d      jr      z,1254h
1207 284d      jr      z,1256h
1209 284d      jr      z,1258h
120b 284d      jr      z,125ah
120d 284d      jr      z,125ch
120f 284d      jr      z,125eh
1211 284d      jr      z,1260h
1213 284d      jr      z,1262h
1215 284d      jr      z,1264h
1217 284d      jr      z,1266h
1219 284d      jr      z,1268h
121b 284d      jr      z,126ah
121d 284d      jr      z,126ch
121f 284d      jr      z,126eh
1221 284d      jr      z,1270h
1223 284d      jr      z,1272h
1225 284d      jr      z,1274h
1227 7d        ld      a,l
1228 4d        ld      c,l
1229 7d        ld      a,l
122a 4d        ld      c,l
122b 284d      jr      z,127ah
122d 284d      jr      z,127ch
122f 284d      jr      z,127eh
1231 384d      jr      c,1280h
1233 0b        dec     bc
1234 4d        ld      c,l
1235 1a        ld      a,(de)
1236 4d        ld      c,l
1237 1a        ld      a,(de)
1238 4d        ld      c,l
1239 1a        ld      a,(de)
123a 4d        ld      c,l
123b 1a        ld      a,(de)
123c 4d        ld      c,l
123d 1a        ld      a,(de)
123e 4d        ld      c,l
123f 1a        ld      a,(de)
1240 ff        rst     38h
1241 10dd      djnz    1220h
1243 54        ld      d,h
1244 eeee      xor     0eeh
1246 ee55      xor     55h
1248 63        ld      h,e
1249 33        inc     sp
124a 97        sub     a
124b 3b        dec     sp
124c d37f      out     (7fh),a
124e 5b        ld      e,e
124f 5d        ld      e,l
1250 69        ld      l,c
1251 59        ld      e,c
1252 78        ld      a,b
1253 b3        or      e
1254 1813      jr      1269h
1256 c0        ret     nz

1257 53        ld      d,e
1258 1037      djnz    1291h
125a 00        nop     
125b b7        or      a
125c 70        ld      (hl),b
125d 77        ld      (hl),a
125e f8        ret     m

125f f7        rst     30h
1260 e47fb6    call    po,0b67fh
1263 ff        rst     38h
1264 93        sub     e
1265 df        rst     18h
1266 2b        dec     hl
1267 a4        and     h
1268 ef        rst     28h
1269 4c        ld      c,h
126a df        rst     18h
126b bf        cp      a
126c ff        rst     38h
126d 8a        adc     a,d
126e ddfb      ei      
1270 f0        ret     p

1271 f0        ret     p

1272 0f        rrca    
1273 2ef0      ld      l,0f0h
1275 d3f0      out     (0f0h),a
1277 d3f0      out     (0f0h),a
1279 e1        pop     hl
127a f0        ret     p

127b e1        pop     hl
127c f0        ret     p

127d f0        ret     p

127e f0        ret     p

127f f0        ret     p

1280 f7        rst     30h
1281 cf        rst     08h
1282 b3        or      e
1283 df        rst     18h
1284 77        ld      (hl),a
1285 3f        ccf     
1286 cca623    call    z,23a6h
1289 5c        ld      e,h
128a dd29      add     ix,ix
128c ab        xor     e
128d f9        ld      sp,hl
128e 15        dec     d
128f ff        rst     38h
1290 cc8b66    call    z,668bh
1293 cc55ae    call    z,0ae55h
1296 4c        ld      c,h
1297 e8        ret     pe

1298 f674      or      74h
129a f7        rst     30h
129b b2        or      d
129c 7f        ld      a,a
129d d9        exx     
129e 7f        ld      a,a
129f 182f      jr      12d0h
12a1 80        add     a,b
12a2 3e00      ld      a,00h
12a4 86        add     a,(hl)
12a5 00        nop     
12a6 e3        ex      (sp),hl
12a7 10fb      djnz    12a4h
12a9 f0        ret     p

12aa fdf7      rst     30h
12ac ef        rst     28h
12ad b7        or      a
12ae ff        rst     38h
12af ddf0      ret     p

12b1 f0        ret     p

12b2 47        ld      b,a
12b3 0f        rrca    
12b4 9e        sbc     a,(hl)
12b5 f0        ret     p

12b6 bc        cp      h
12b7 f0        ret     p

12b8 78        ld      a,b
12b9 f0        ret     p

12ba 78        ld      a,b
12bb f0        ret     p

12bc f0        ret     p

12bd f0        ret     p

12be f0        ret     p

12bf f0        ret     p

12c0 5d        ld      e,l
12c1 1a        ld      a,(de)
12c2 09        add     hl,bc
12c3 49        ld      c,c
12c4 55        ld      d,l
12c5 bd        cp      l
12c6 ccdffe    call    z,0fedfh
12c9 11ffb9    ld      de,0b9ffh
12cc 3c        inc     a
12cd 37        scf     
12ce 6e        ld      l,(hl)
12cf 7f        ld      a,a
12d0 dcdddc    call    c,0dcddh
12d3 3b        dec     sp
12d4 98        sbc     a,b
12d5 7f        ld      a,a
12d6 a9        xor     c
12d7 ff        rst     38h
12d8 45        ld      b,l
12d9 ff        rst     38h
12da 39        add     hl,sp
12db b7        or      a
12dc f5        push    af
12dd 5d        ld      e,l
12de b7        or      a
12df b9        cp      c
12e0 c37847    jp      4778h
12e3 3c        inc     a
12e4 57        ld      d,a
12e5 1f        rra     
12e6 df        rst     18h
12e7 33        inc     sp
12e8 77        ld      (hl),a
12e9 77        ld      (hl),a
12ea eeff      xor     0ffh
12ec 56        ld      d,(hl)
12ed 99        sbc     a,c
12ee ff        rst     38h
12ef ddf0      ret     p

12f1 f0        ret     p

12f2 0f        rrca    
12f3 0f        rrca    
12f4 f0        ret     p

12f5 f0        ret     p

12f6 f0        ret     p

12f7 f0        ret     p

12f8 f0        ret     p

12f9 f0        ret     p

12fa f0        ret     p

12fb f0        ret     p

12fc f0        ret     p

12fd f0        ret     p

12fe f0        ret     p

12ff f0        ret     p

1300 4d        ld      c,l
1301 9a        sbc     a,d
1302 61        ld      h,c
1303 eb        ex      de,hl
1304 ff        rst     38h
1305 bf        cp      a
1306 00        nop     
1307 33        inc     sp
1308 af        xor     a
1309 9d        sbc     a,l
130a 5f        ld      e,a
130b 4e        ld      c,(hl)
130c af        xor     a
130d be        cp      (hl)
130e 0f        rrca    
130f 7c        ld      a,h
1310 ff        rst     38h
1311 edee      db      0edh, 0eeh       ; Undocumented 8 T-State NOP
1313 dd2e6e    ld      ixl,6eh
1316 b7        or      a
1317 ff        rst     38h
1318 b7        or      a
1319 fea7      cp      0a7h
131b fea7      cp      0a7h
131d fe2f      cp      2fh
131f 1e5f      ld      e,5fh
1321 ff        rst     38h
1322 bf        cp      a
1323 ff        rst     38h
1324 7f        ld      a,a
1325 ff        rst     38h
1326 ff        rst     38h
1327 ff        rst     38h
1328 ff        rst     38h
1329 ff        rst     38h
132a f7        rst     30h
132b ff        rst     38h
132c 78        ld      a,b
132d f0        ret     p

132e 07        rlca    
132f 0f        rrca    
1330 00        nop     
1331 00        nop     
1332 00        nop     
1333 00        nop     
1334 00        nop     
1335 00        nop     
1336 00        nop     
1337 00        nop     
1338 00        nop     
1339 00        nop     
133a 00        nop     
133b 00        nop     
133c 00        nop     
133d 00        nop     
133e 00        nop     
133f 00        nop     
1340 f0        ret     p

1341 f0        ret     p

1342 f0        ret     p

1343 0f        rrca    
1344 69        ld      l,c
1345 a8        xor     b
1346 9e        sbc     a,(hl)
1347 62        ld      h,d
1348 ec6eda    call    pe,0da6eh
134b 7f        ld      a,a
134c b6        or      (hl)
134d ff        rst     38h
134e 7f        ld      a,a
134f 9b        sbc     a,e
1350 ff        rst     38h
1351 ef        rst     28h
1352 ff        rst     38h
1353 ff        rst     38h
1354 ff        rst     38h
1355 ff        rst     38h
1356 f7        rst     30h
1357 ff        rst     38h
1358 fb        ei      
1359 ff        rst     38h
135a fdff      rst     38h
135c fef0      cp      0f0h
135e 3f        ccf     
135f ff        rst     38h
1360 ff        rst     38h
1361 af        xor     a
1362 ff        rst     38h
1363 af        xor     a
1364 ff        rst     38h
1365 af        xor     a
1366 ff        rst     38h
1367 ff        rst     38h
1368 ff        rst     38h
1369 ff        rst     38h
136a ff        rst     38h
136b ff        rst     38h
136c ff        rst     38h
136d ff        rst     38h
136e f7        rst     30h
136f ff        rst     38h
1370 78        ld      a,b
1371 f7        rst     30h
1372 07        rlca    
1373 7b        ld      a,e
1374 00        nop     
1375 35        dec     (hl)
1376 00        nop     
1377 35        dec     (hl)
1378 00        nop     
1379 35        dec     (hl)
137a 00        nop     
137b 35        dec     (hl)
137c 00        nop     
137d 12        ld      (de),a
137e 00        nop     
137f 03        inc     bc
1380 c34c8b    jp      8b4ch
1383 8d        adc     a,l
1384 70        ld      (hl),b
1385 bf        cp      a
1386 fb        ei      
1387 bb        cp      e
1388 edff      db      0edh, 0ffh       ; Undocumented 8 T-State NOP
138a 33        inc     sp
138b ff        rst     38h
138c ff        rst     38h
138d b7        or      a
138e fe9f      cp      9fh
1390 cb33      sll     e
1392 ff        rst     38h
1393 ff        rst     38h
1394 ff        rst     38h
1395 ff        rst     38h
1396 ff        rst     38h
1397 ff        rst     38h
1398 ff        rst     38h
1399 ff        rst     38h
139a ff        rst     38h
139b ff        rst     38h
139c f0        ret     p

139d e0        ret     po

139e ff        rst     38h
139f ff        rst     38h
13a0 77        ld      (hl),a
13a1 ff        rst     38h
13a2 47        ld      b,a
13a3 8f        adc     a,a
13a4 df        rst     18h
13a5 32ddfe    ld      (0feddh),a
13a8 88        adc     a,b
13a9 70        ld      (hl),b
13aa 48        ld      c,b
13ab fa7ef0    jp      m,0f07eh
13ae 4f        ld      c,a
13af 69        ld      l,c
13b0 af        xor     a
13b1 0f        rrca    
13b2 df        rst     18h
13b3 ff        rst     38h
13b4 ef        rst     28h
13b5 0f        rrca    
13b6 fc2c6d    call    m,6d2ch
13b9 02        ld      (bc),a
13ba 3608      ld      (hl),08h
13bc 12        ld      (de),a
13bd 80        add     a,b
13be 03        inc     bc
13bf 08        ex      af,af'
13c0 00        nop     
13c1 9a        sbc     a,d
13c2 79        ld      a,c
13c3 eb        ex      de,hl
13c4 66        ld      h,(hl)
13c5 cf        rst     08h
13c6 df        rst     18h
13c7 ad        xor     l
13c8 ceed      adc     a,0edh
13ca 77        ld      (hl),a
13cb cf        rst     08h
13cc ff        rst     38h
13cd ef        rst     28h
13ce 22efdd    ld      (0ddefh),hl
13d1 df        rst     18h
13d2 ff        rst     38h
13d3 ff        rst     38h
13d4 fe11      cp      11h
13d6 ff        rst     38h
13d7 af        xor     a
13d8 ff        rst     38h
13d9 5f        ld      e,a
13da ef        rst     28h
13db af        xor     a
13dc 47        ld      b,a
13dd 0f        rrca    
13de ff        rst     38h
13df ff        rst     38h
13e0 ddff      rst     38h
13e2 4c        ld      c,h
13e3 017fef    ld      bc,0ef7fh
13e6 7f        ld      a,a
13e7 ef        rst     28h
13e8 5f        ld      e,a
13e9 ef        rst     28h
13ea 5f        ld      e,a
13eb ef        rst     28h
13ec 5f        ld      e,a
13ed ff        rst     38h
13ee 5f        ld      e,a
13ef ff        rst     38h
13f0 bd        cp      l
13f1 ff        rst     38h
13f2 1eff      ld      e,0ffh
13f4 01f701    ld      bc,01f7h
13f7 f7        rst     30h
13f8 01f600    ld      bc,00f6h
13fb 69        ld      l,c
13fc 00        nop     
13fd 0600      ld      b,00h
13ff 00        nop     
1400 00        nop     
1401 00        nop     
1402 00        nop     
1403 00        nop     
1404 00        nop     
1405 00        nop     
1406 00        nop     
1407 00        nop     
1408 00        nop     
1409 00        nop     
140a 00        nop     
140b 00        nop     
140c 00        nop     
140d 00        nop     
140e 00        nop     
140f 00        nop     
1410 00        nop     
1411 00        nop     
1412 00        nop     
1413 00        nop     
1414 00        nop     
1415 00        nop     
1416 00        nop     
1417 00        nop     
1418 f0        ret     p

1419 88        adc     a,b
141a 1f        rra     
141b c461ea    call    nz,0ea61h
141e 106c      djnz    148ch
1420 186d      jr      148fh
1422 187d      jr      14a1h
1424 187d      jr      14a3h
1426 107c      djnz    14a4h
1428 106c      djnz    1496h
142a 106c      djnz    1498h
142c e1        pop     hl
142d c8        ret     z

142e 1f        rra     
142f f7        rst     30h
1430 f0        ret     p

1431 f0        ret     p

1432 f5        push    af
1433 f5        push    af
1434 fafaf5    jp      m,0f5fah
1437 f5        push    af
1438 00        nop     
1439 00        nop     
143a ff        rst     38h
143b 8a        adc     a,d
143c ff        rst     38h
143d a8        xor     b
143e ff        rst     38h
143f 88        adc     a,b
1440 00        nop     
1441 00        nop     
1442 00        nop     
1443 00        nop     
1444 00        nop     
1445 00        nop     
1446 00        nop     
1447 00        nop     
1448 00        nop     
1449 00        nop     
144a 00        nop     
144b 00        nop     
144c 00        nop     
144d 00        nop     
144e 00        nop     
144f 00        nop     
1450 00        nop     
1451 00        nop     
1452 00        nop     
1453 00        nop     
1454 00        nop     
1455 00        nop     
1456 00        nop     
1457 00        nop     
1458 00        nop     
1459 00        nop     
145a 00        nop     
145b 00        nop     
145c 00        nop     
145d 00        nop     
145e 00        nop     
145f 00        nop     
1460 c200bc    jp      nz,0bc00h
1463 00        nop     
1464 ff        rst     38h
1465 80        add     a,b
1466 1f        rra     
1467 c8        ret     z

1468 e1        pop     hl
1469 ec106d    call    pe,6d10h
146c 107e      djnz    14ech
146e ff        rst     38h
146f fef0      cp      0f0h
1471 f0        ret     p

1472 f5        push    af
1473 f5        push    af
1474 fafaf5    jp      m,0f5fah
1477 f5        push    af
1478 00        nop     
1479 00        nop     
147a ff        rst     38h
147b ff        rst     38h
147c ff        rst     38h
147d ff        rst     38h
147e ff        rst     38h
147f ff        rst     38h
1480 00        nop     
1481 00        nop     
1482 00        nop     
1483 00        nop     
1484 00        nop     
1485 00        nop     
1486 00        nop     
1487 00        nop     
1488 00        nop     
1489 00        nop     
148a 00        nop     
148b 00        nop     
148c 00        nop     
148d 00        nop     
148e 00        nop     
148f 00        nop     
1490 00        nop     
1491 00        nop     
1492 00        nop     
1493 00        nop     
1494 00        nop     
1495 00        nop     
1496 00        nop     
1497 00        nop     
1498 00        nop     
1499 00        nop     
149a 00        nop     
149b 00        nop     
149c 00        nop     
149d 00        nop     
149e 00        nop     
149f 00        nop     
14a0 010c03    ld      bc,030ch
14a3 0e16      ld      c,16h
14a5 c327c3    jp      0c327h
14a8 67        ld      h,a
14a9 79        ld      a,c
14aa 77        ld      (hl),a
14ab ff        rst     38h
14ac 03        inc     bc
14ad 0e3b      ld      c,3bh
14af eef0      xor     0f0h
14b1 f0        ret     p

14b2 f5        push    af
14b3 f5        push    af
14b4 fafaf5    jp      m,0f5fah
14b7 f5        push    af
14b8 00        nop     
14b9 00        nop     
14ba ff        rst     38h
14bb ff        rst     38h
14bc ff        rst     38h
14bd ff        rst     38h
14be ff        rst     38h
14bf ff        rst     38h
14c0 00        nop     
14c1 00        nop     
14c2 00        nop     
14c3 00        nop     
14c4 00        nop     
14c5 00        nop     
14c6 00        nop     
14c7 00        nop     
14c8 00        nop     
14c9 00        nop     
14ca 00        nop     
14cb 00        nop     
14cc 00        nop     
14cd 00        nop     
14ce 00        nop     
14cf 00        nop     
14d0 00        nop     
14d1 00        nop     
14d2 00        nop     
14d3 00        nop     
14d4 00        nop     
14d5 00        nop     
14d6 00        nop     
14d7 00        nop     
14d8 00        nop     
14d9 70        ld      (hl),b
14da 00        nop     
14db 78        ld      a,b
14dc 018012    ld      bc,1280h
14df 00        nop     
14e0 12        ld      (de),a
14e1 00        nop     
14e2 12        ld      (de),a
14e3 00        nop     
14e4 12        ld      (de),a
14e5 33        inc     sp
14e6 23        inc     hl
14e7 55        ld      d,l
14e8 ff        rst     38h
14e9 00        nop     
14ea ff        rst     38h
14eb 98        sbc     a,b
14ec 7f        ld      a,a
14ed 67        ld      h,a
14ee ff        rst     38h
14ef bb        cp      e
14f0 f0        ret     p

14f1 f0        ret     p

14f2 f5        push    af
14f3 f5        push    af
14f4 fafaf5    jp      m,0f5fah
14f7 f5        push    af
14f8 00        nop     
14f9 00        nop     
14fa ee3b      xor     3bh
14fc eeb3      xor     0b3h
14fe ee33      xor     33h
1500 f0        ret     p

1501 85        add     a,l
1502 f0        ret     p

1503 85        add     a,l
1504 f0        ret     p

1505 85        add     a,l
1506 f0        ret     p

1507 85        add     a,l
1508 f0        ret     p

1509 85        add     a,l
150a f0        ret     p

150b 85        add     a,l
150c f0        ret     p

150d 85        add     a,l
150e f0        ret     p

150f 85        add     a,l
1510 f0        ret     p

1511 85        add     a,l
1512 f0        ret     p

1513 85        add     a,l
1514 0f        rrca    
1515 0d        dec     c
1516 0f        rrca    
1517 2f        cpl     
1518 0f        rrca    
1519 2f        cpl     
151a 0f        rrca    
151b 0d        dec     c
151c f0        ret     p

151d 85        add     a,l
151e f0        ret     p

151f 85        add     a,l
1520 f0        ret     p

1521 85        add     a,l
1522 f0        ret     p

1523 85        add     a,l
1524 f0        ret     p

1525 85        add     a,l
1526 f0        ret     p

1527 85        add     a,l
1528 f0        ret     p

1529 85        add     a,l
152a f0        ret     p

152b 85        add     a,l
152c f0        ret     p

152d 85        add     a,l
152e f0        ret     p

152f 85        add     a,l
1530 f0        ret     p

1531 85        add     a,l
1532 f0        ret     p

1533 85        add     a,l
1534 f0        ret     p

1535 85        add     a,l
1536 f0        ret     p

1537 85        add     a,l
1538 f0        ret     p

1539 85        add     a,l
153a f0        ret     p

153b 85        add     a,l
153c f0        ret     p

153d 85        add     a,l
153e f0        ret     p

153f 85        add     a,l
1540 f0        ret     p

1541 f0        ret     p

1542 f0        ret     p

1543 f0        ret     p

1544 f0        ret     p

1545 f0        ret     p

1546 f0        ret     p

1547 f0        ret     p

1548 f0        ret     p

1549 f0        ret     p

154a f0        ret     p

154b f0        ret     p

154c f0        ret     p

154d f0        ret     p

154e f0        ret     p

154f f0        ret     p

1550 f0        ret     p

1551 f0        ret     p

1552 f0        ret     p

1553 f0        ret     p

1554 0f        rrca    
1555 0f        rrca    
1556 0f        rrca    
1557 0f        rrca    
1558 0f        rrca    
1559 0f        rrca    
155a 0f        rrca    
155b 0f        rrca    
155c f0        ret     p

155d f0        ret     p

155e f0        ret     p

155f f0        ret     p

1560 f0        ret     p

1561 f0        ret     p

1562 f0        ret     p

1563 f0        ret     p

1564 f0        ret     p

1565 f0        ret     p

1566 f0        ret     p

1567 f0        ret     p

1568 f0        ret     p

1569 f0        ret     p

156a f0        ret     p

156b f0        ret     p

156c f0        ret     p

156d f0        ret     p

156e f0        ret     p

156f f0        ret     p

1570 f0        ret     p

1571 f0        ret     p

1572 f0        ret     p

1573 f0        ret     p

1574 f0        ret     p

1575 f0        ret     p

1576 f0        ret     p

1577 f0        ret     p

1578 f0        ret     p

1579 f0        ret     p

157a f0        ret     p

157b f0        ret     p

157c 0f        rrca    
157d 0f        rrca    
157e 0f        rrca    
157f 0f        rrca    
1580 0f        rrca    
1581 0f        rrca    
1582 f0        ret     p

1583 f0        ret     p

1584 f0        ret     p

1585 f0        ret     p

1586 f0        ret     p

1587 f0        ret     p

1588 f0        ret     p

1589 f0        ret     p

158a f0        ret     p

158b f0        ret     p

158c f0        ret     p

158d f0        ret     p

158e f0        ret     p

158f f0        ret     p

1590 f0        ret     p

1591 f0        ret     p

1592 f0        ret     p

1593 f0        ret     p

1594 0f        rrca    
1595 0f        rrca    
1596 0f        rrca    
1597 0f        rrca    
1598 0f        rrca    
1599 0f        rrca    
159a 0f        rrca    
159b 0f        rrca    
159c f0        ret     p

159d f0        ret     p

159e f0        ret     p

159f f0        ret     p

15a0 f0        ret     p

15a1 f0        ret     p

15a2 f0        ret     p

15a3 f0        ret     p

15a4 f0        ret     p

15a5 f0        ret     p

15a6 f0        ret     p

15a7 f0        ret     p

15a8 f0        ret     p

15a9 f0        ret     p

15aa f0        ret     p

15ab f0        ret     p

15ac f0        ret     p

15ad f0        ret     p

15ae f0        ret     p

15af f0        ret     p

15b0 f0        ret     p

15b1 f0        ret     p

15b2 f0        ret     p

15b3 f0        ret     p

15b4 f0        ret     p

15b5 f0        ret     p

15b6 f0        ret     p

15b7 f0        ret     p

15b8 f0        ret     p

15b9 f0        ret     p

15ba f0        ret     p

15bb f0        ret     p

15bc f0        ret     p

15bd e1        pop     hl
15be f0        ret     p

15bf e1        pop     hl
15c0 1f        rra     
15c1 47        ld      b,a
15c2 e1        pop     hl
15c3 34        inc     (hl)
15c4 e1        pop     hl
15c5 34        inc     (hl)
15c6 e1        pop     hl
15c7 34        inc     (hl)
15c8 e1        pop     hl
15c9 34        inc     (hl)
15ca e1        pop     hl
15cb 34        inc     (hl)
15cc e1        pop     hl
15cd 34        inc     (hl)
15ce e1        pop     hl
15cf 34        inc     (hl)
15d0 e1        pop     hl
15d1 34        inc     (hl)
15d2 e1        pop     hl
15d3 34        inc     (hl)
15d4 0f        rrca    
15d5 07        rlca    
15d6 0f        rrca    
15d7 8f        adc     a,a
15d8 0f        rrca    
15d9 8f        adc     a,a
15da 0f        rrca    
15db 07        rlca    
15dc e1        pop     hl
15dd 34        inc     (hl)
15de e1        pop     hl
15df 34        inc     (hl)
15e0 e1        pop     hl
15e1 34        inc     (hl)
15e2 e1        pop     hl
15e3 34        inc     (hl)
15e4 e1        pop     hl
15e5 34        inc     (hl)
15e6 e1        pop     hl
15e7 34        inc     (hl)
15e8 e1        pop     hl
15e9 34        inc     (hl)
15ea e1        pop     hl
15eb 34        inc     (hl)
15ec e1        pop     hl
15ed 34        inc     (hl)
15ee e1        pop     hl
15ef 34        inc     (hl)
15f0 e1        pop     hl
15f1 34        inc     (hl)
15f2 e1        pop     hl
15f3 34        inc     (hl)
15f4 e1        pop     hl
15f5 34        inc     (hl)
15f6 e1        pop     hl
15f7 34        inc     (hl)
15f8 e1        pop     hl
15f9 34        inc     (hl)
15fa e1        pop     hl
15fb 34        inc     (hl)
15fc 0f        rrca    
15fd 07        rlca    
15fe 0f        rrca    
15ff 8f        adc     a,a
1600 0f        rrca    
1601 0f        rrca    
1602 f0        ret     p

1603 f0        ret     p

1604 f0        ret     p

1605 f0        ret     p

1606 f0        ret     p

1607 f0        ret     p

1608 f0        ret     p

1609 f0        ret     p

160a f0        ret     p

160b f0        ret     p

160c f0        ret     p

160d f0        ret     p

160e f0        ret     p

160f f0        ret     p

1610 f0        ret     p

1611 f0        ret     p

1612 f0        ret     p

1613 f0        ret     p

1614 f0        ret     p

1615 f0        ret     p

1616 0f        rrca    
1617 0f        rrca    
1618 0f        rrca    
1619 0f        rrca    
161a f0        ret     p

161b f0        ret     p

161c f0        ret     p

161d f0        ret     p

161e f0        ret     p

161f f0        ret     p

1620 f0        ret     p

1621 f0        ret     p

1622 f0        ret     p

1623 f0        ret     p

1624 f0        ret     p

1625 f0        ret     p

1626 f0        ret     p

1627 f0        ret     p

1628 f0        ret     p

1629 f0        ret     p

162a f0        ret     p

162b f0        ret     p

162c f0        ret     p

162d f0        ret     p

162e f0        ret     p

162f f0        ret     p

1630 f0        ret     p

1631 f0        ret     p

1632 f0        ret     p

1633 f0        ret     p

1634 f0        ret     p

1635 f0        ret     p

1636 f0        ret     p

1637 f0        ret     p

1638 f0        ret     p

1639 f0        ret     p

163a f0        ret     p

163b f0        ret     p

163c f0        ret     p

163d e1        pop     hl
163e f0        ret     p

163f e1        pop     hl
1640 0f        rrca    
1641 0f        rrca    
1642 f0        ret     p

1643 f0        ret     p

1644 f0        ret     p

1645 f0        ret     p

1646 f0        ret     p

1647 f0        ret     p

1648 f0        ret     p

1649 f0        ret     p

164a f0        ret     p

164b f0        ret     p

164c f0        ret     p

164d f0        ret     p

164e f0        ret     p

164f f0        ret     p

1650 f0        ret     p

1651 f0        ret     p

1652 f0        ret     p

1653 f0        ret     p

1654 f0        ret     p

1655 f0        ret     p

1656 0f        rrca    
1657 0f        rrca    
1658 0f        rrca    
1659 0f        rrca    
165a f0        ret     p

165b f0        ret     p

165c f0        ret     p

165d f0        ret     p

165e f0        ret     p

165f f0        ret     p

1660 f0        ret     p

1661 f0        ret     p

1662 f0        ret     p

1663 f0        ret     p

1664 f0        ret     p

1665 f0        ret     p

1666 f0        ret     p

1667 f0        ret     p

1668 f0        ret     p

1669 f0        ret     p

166a f0        ret     p

166b f0        ret     p

166c f0        ret     p

166d f0        ret     p

166e f0        ret     p

166f f0        ret     p

1670 f0        ret     p

1671 f0        ret     p

1672 f0        ret     p

1673 f0        ret     p

1674 f0        ret     p

1675 f0        ret     p

1676 f0        ret     p

1677 f0        ret     p

1678 f0        ret     p

1679 f0        ret     p

167a f0        ret     p

167b f0        ret     p

167c 0f        rrca    
167d 0f        rrca    
167e 0f        rrca    
167f 0f        rrca    
1680 ab        xor     e
1681 5f        ld      e,a
1682 1a        ld      a,(de)
1683 97        sub     a
1684 1a        ld      a,(de)
1685 97        sub     a
1686 1a        ld      a,(de)
1687 97        sub     a
1688 1a        ld      a,(de)
1689 97        sub     a
168a 1a        ld      a,(de)
168b 97        sub     a
168c 1a        ld      a,(de)
168d 97        sub     a
168e 1a        ld      a,(de)
168f 97        sub     a
1690 1a        ld      a,(de)
1691 97        sub     a
1692 1a        ld      a,(de)
1693 97        sub     a
1694 0b        dec     bc
1695 1f        rra     
1696 4f        ld      c,a
1697 2d        dec     l
1698 4f        ld      c,a
1699 2d        dec     l
169a 0b        dec     bc
169b 1f        rra     
169c 1a        ld      a,(de)
169d 97        sub     a
169e 1a        ld      a,(de)
169f 97        sub     a
16a0 1a        ld      a,(de)
16a1 97        sub     a
16a2 1a        ld      a,(de)
16a3 97        sub     a
16a4 1a        ld      a,(de)
16a5 97        sub     a
16a6 1a        ld      a,(de)
16a7 97        sub     a
16a8 1a        ld      a,(de)
16a9 97        sub     a
16aa 1a        ld      a,(de)
16ab 97        sub     a
16ac 1a        ld      a,(de)
16ad 97        sub     a
16ae 1a        ld      a,(de)
16af 97        sub     a
16b0 1a        ld      a,(de)
16b1 97        sub     a
16b2 1a        ld      a,(de)
16b3 97        sub     a
16b4 1a        ld      a,(de)
16b5 97        sub     a
16b6 1a        ld      a,(de)
16b7 97        sub     a
16b8 1a        ld      a,(de)
16b9 97        sub     a
16ba 1a        ld      a,(de)
16bb 97        sub     a
16bc 0b        dec     bc
16bd 1f        rra     
16be 4f        ld      c,a
16bf 2d        dec     l
16c0 27        daa     
16c1 0f        rrca    
16c2 16f0      ld      d,0f0h
16c4 16f0      ld      d,0f0h
16c6 16f0      ld      d,0f0h
16c8 16f0      ld      d,0f0h
16ca 16f0      ld      d,0f0h
16cc 16f0      ld      d,0f0h
16ce 16f0      ld      d,0f0h
16d0 16f0      ld      d,0f0h
16d2 16f0      ld      d,0f0h
16d4 07        rlca    
16d5 0f        rrca    
16d6 cb0f      rrc     a
16d8 cb0f      rrc     a
16da 07        rlca    
16db 0f        rrca    
16dc 16f0      ld      d,0f0h
16de 16f0      ld      d,0f0h
16e0 16f0      ld      d,0f0h
16e2 16f0      ld      d,0f0h
16e4 16f0      ld      d,0f0h
16e6 16f0      ld      d,0f0h
16e8 16f0      ld      d,0f0h
16ea 16f0      ld      d,0f0h
16ec 16f0      ld      d,0f0h
16ee 16f0      ld      d,0f0h
16f0 16f0      ld      d,0f0h
16f2 16f0      ld      d,0f0h
16f4 16f0      ld      d,0f0h
16f6 16f0      ld      d,0f0h
16f8 16f0      ld      d,0f0h
16fa 16f0      ld      d,0f0h
16fc 07        rlca    
16fd 0f        rrca    
16fe 8b        adc     a,e
16ff 0f        rrca    
1700 ff        rst     38h
1701 88        adc     a,b
1702 ff        rst     38h
1703 a8        xor     b
1704 ff        rst     38h
1705 8a        adc     a,d
1706 00        nop     
1707 00        nop     
1708 af        xor     a
1709 af        xor     a
170a 5f        ld      e,a
170b 5f        ld      e,a
170c af        xor     a
170d af        xor     a
170e 0f        rrca    
170f 0f        rrca    
1710 cebf      adc     a,0bfh
1712 ac        xor     h
1713 9f        sbc     a,a
1714 2c        inc     l
1715 8f        adc     a,a
1716 48        ld      c,b
1717 8f        adc     a,a
1718 5d        ld      e,l
1719 7f        ld      a,a
171a c5        push    bc
171b feb3      cp      0b3h
171d 20aa      jr      nz,16c9h
171f 05        dec     b
1720 ee0a      xor     0ah
1722 f5        push    af
1723 f5        push    af
1724 b2        or      d
1725 fa0f0f    jp      m,0f0fh
1728 00        nop     
1729 11ffff    ld      de,0ffffh
172c ff        rst     38h
172d ff        rst     38h
172e ff        rst     38h
172f ff        rst     38h
1730 ff        rst     38h
1731 ff        rst     38h
1732 ff        rst     38h
1733 ff        rst     38h
1734 ff        rst     38h
1735 ff        rst     38h
1736 f0        ret     p

1737 f0        ret     p

1738 0f        rrca    
1739 0f        rrca    
173a 00        nop     
173b 00        nop     
173c 00        nop     
173d 00        nop     
173e 00        nop     
173f 00        nop     
1740 ff        rst     38h
1741 ff        rst     38h
1742 ff        rst     38h
1743 ff        rst     38h
1744 ff        rst     38h
1745 ff        rst     38h
1746 00        nop     
1747 00        nop     
1748 af        xor     a
1749 af        xor     a
174a 5f        ld      e,a
174b 5f        ld      e,a
174c af        xor     a
174d af        xor     a
174e 0f        rrca    
174f 0f        rrca    
1750 ff        rst     38h
1751 ff        rst     38h
1752 ff        rst     38h
1753 ef        rst     28h
1754 0f        rrca    
1755 0f        rrca    
1756 0f        rrca    
1757 1f        rra     
1758 f5        push    af
1759 e6fa      and     0fah
175b dca021    call    c,21a0h
175e 04        inc     b
175f 53        ld      d,e
1760 08        ex      af,af'
1761 b7        or      a
1762 f0        ret     p

1763 7f        ld      a,a
1764 e1        pop     hl
1765 fe0f      cp      0fh
1767 edce      db      0edh, 0ceh       ; Undocumented 8 T-State NOP
1769 caff84    jp      z,84ffh
176c fe08      cp      08h
176e ed00      db      0edh, 00h        ; Undocumented 8 T-State NOP
1770 ca0084    jp      z,8400h
1773 00        nop     
1774 84        add     a,h
1775 00        nop     
1776 08        ex      af,af'
1777 00        nop     
1778 08        ex      af,af'
1779 00        nop     
177a 00        nop     
177b 00        nop     
177c 00        nop     
177d 00        nop     
177e 00        nop     
177f 00        nop     
1780 ff        rst     38h
1781 ff        rst     38h
1782 ff        rst     38h
1783 ff        rst     38h
1784 ff        rst     38h
1785 ff        rst     38h
1786 00        nop     
1787 00        nop     
1788 af        xor     a
1789 af        xor     a
178a 5f        ld      e,a
178b 5f        ld      e,a
178c af        xor     a
178d af        xor     a
178e 0f        rrca    
178f 0f        rrca    
1790 9b        sbc     a,e
1791 66        ld      h,(hl)
1792 9b        sbc     a,e
1793 66        ld      h,(hl)
1794 9b        sbc     a,e
1795 9f        sbc     a,a
1796 37        scf     
1797 96        sub     (hl)
1798 b7        or      a
1799 ff        rst     38h
179a 6f        ld      l,a
179b 78        ld      a,b
179c ff        rst     38h
179d ff        rst     38h
179e ff        rst     38h
179f f0        ret     p

17a0 ff        rst     38h
17a1 ff        rst     38h
17a2 f7        rst     30h
17a3 ff        rst     38h
17a4 7b        ld      a,e
17a5 ff        rst     38h
17a6 35        dec     (hl)
17a7 ff        rst     38h
17a8 35        dec     (hl)
17a9 fb        ei      
17aa 35        dec     (hl)
17ab b5        or      l
17ac 34        inc     (hl)
17ad 1a        ld      a,(de)
17ae 07        rlca    
17af 09        add     hl,bc
17b0 00        nop     
17b1 00        nop     
17b2 00        nop     
17b3 00        nop     
17b4 00        nop     
17b5 00        nop     
17b6 00        nop     
17b7 00        nop     
17b8 00        nop     
17b9 00        nop     
17ba 00        nop     
17bb 00        nop     
17bc 00        nop     
17bd 00        nop     
17be 00        nop     
17bf 00        nop     
17c0 ff        rst     38h
17c1 ff        rst     38h
17c2 ff        rst     38h
17c3 ff        rst     38h
17c4 ff        rst     38h
17c5 ff        rst     38h
17c6 00        nop     
17c7 00        nop     
17c8 af        xor     a
17c9 af        xor     a
17ca 5f        ld      e,a
17cb 5f        ld      e,a
17cc af        xor     a
17cd af        xor     a
17ce 0f        rrca    
17cf 0f        rrca    
17d0 ff        rst     38h
17d1 ff        rst     38h
17d2 3b        dec     sp
17d3 8f        adc     a,a
17d4 0b        dec     bc
17d5 6f        ld      l,a
17d6 4f        ld      c,a
17d7 99        sbc     a,c
17d8 ff        rst     38h
17d9 99        sbc     a,c
17da 9f        sbc     a,a
17db ef        rst     28h
17dc bf        cp      a
17dd 7c        ld      a,h
17de ccb8ff    call    z,0ffb8h
17e1 8f        adc     a,a
17e2 ef        rst     28h
17e3 ff        rst     38h
17e4 ff        rst     38h
17e5 0f        rrca    
17e6 ff        rst     38h
17e7 ff        rst     38h
17e8 ff        rst     38h
17e9 ff        rst     38h
17ea ff        rst     38h
17eb feff      cp      0ffh
17ed e8        ret     pe

17ee f7        rst     30h
17ef 80        add     a,b
17f0 78        ld      a,b
17f1 08        ex      af,af'
17f2 07        rlca    
17f3 08        ex      af,af'
17f4 00        nop     
17f5 00        nop     
17f6 00        nop     
17f7 00        nop     
17f8 00        nop     
17f9 00        nop     
17fa 00        nop     
17fb 00        nop     
17fc 00        nop     
17fd 00        nop     
17fe 00        nop     
17ff 00        nop     
1800 00        nop     
1801 00        nop     
1802 00        nop     
1803 00        nop     
1804 00        nop     
1805 00        nop     
1806 00        nop     
1807 00        nop     
1808 00        nop     
1809 00        nop     
180a 00        nop     
180b 00        nop     
180c 00        nop     
180d 00        nop     
180e 00        nop     
180f 00        nop     
1810 00        nop     
1811 00        nop     
1812 00        nop     
1813 00        nop     
1814 00        nop     
1815 00        nop     
1816 00        nop     
1817 00        nop     
1818 00        nop     
1819 00        nop     
181a 00        nop     
181b 00        nop     
181c 00        nop     
181d 00        nop     
181e 00        nop     
181f 03        inc     bc
1820 00        nop     
1821 1e03      ld      e,03h
1823 7b        ld      a,e
1824 07        rlca    
1825 f7        rst     30h
1826 16ff      ld      d,0ffh
1828 3d        dec     a
1829 ff        rst     38h
182a 3d        dec     a
182b ff        rst     38h
182c f0        ret     p

182d f0        ret     p

182e ff        rst     38h
182f ff        rst     38h
1830 f0        ret     p

1831 f0        ret     p

1832 f5        push    af
1833 f5        push    af
1834 fafaf5    jp      m,0f5fah
1837 f5        push    af
1838 00        nop     
1839 00        nop     
183a ff        rst     38h
183b ff        rst     38h
183c ff        rst     38h
183d ff        rst     38h
183e ff        rst     38h
183f ff        rst     38h
1840 00        nop     
1841 00        nop     
1842 00        nop     
1843 00        nop     
1844 00        nop     
1845 00        nop     
1846 00        nop     
1847 00        nop     
1848 00        nop     
1849 00        nop     
184a 00        nop     
184b 00        nop     
184c 00        nop     
184d 00        nop     
184e 00        nop     
184f 00        nop     
1850 1000      djnz    1852h
1852 1000      djnz    1854h
1854 328856    ld      (5688h),a
1857 4c        ld      c,h
1858 76        halt    
1859 4c        ld      c,h
185a 56        ld      d,(hl)
185b 0c        inc     c
185c 3ee9      ld      a,0e9h
185e 1e7e      ld      e,7eh
1860 f0        ret     p

1861 97        sub     a
1862 ee61      xor     61h
1864 ff        rst     38h
1865 98        sbc     a,b
1866 ff        rst     38h
1867 eeff      xor     0ffh
1869 ff        rst     38h
186a ff        rst     38h
186b ff        rst     38h
186c f0        ret     p

186d f0        ret     p

186e ff        rst     38h
186f ff        rst     38h
1870 f0        ret     p

1871 f0        ret     p

1872 f5        push    af
1873 f5        push    af
1874 fafaf5    jp      m,0f5fah
1877 f5        push    af
1878 00        nop     
1879 00        nop     
187a ff        rst     38h
187b ff        rst     38h
187c ff        rst     38h
187d ff        rst     38h
187e ff        rst     38h
187f ff        rst     38h
1880 00        nop     
1881 00        nop     
1882 00        nop     
1883 00        nop     
1884 00        nop     
1885 00        nop     
1886 00        nop     
1887 00        nop     
1888 00        nop     
1889 00        nop     
188a 00        nop     
188b 00        nop     
188c 00        nop     
188d 00        nop     
188e 00        nop     
188f 00        nop     
1890 00        nop     
1891 00        nop     
1892 00        nop     
1893 00        nop     
1894 00        nop     
1895 00        nop     
1896 00        nop     
1897 00        nop     
1898 00        nop     
1899 00        nop     
189a 00        nop     
189b 00        nop     
189c 00        nop     
189d 00        nop     
189e 84        add     a,h
189f 00        nop     
18a0 e9        jp      (hl)
18a1 00        nop     
18a2 7e        ld      a,(hl)
18a3 08        ex      af,af'
18a4 b7        or      a
18a5 0c        inc     c
18a6 53        ld      d,e
18a7 c8        ret     z

18a8 218e21    ld      hl,218eh
18ab ecf04f    call    pe,4ff0h
18ae ff        rst     38h
18af ef        rst     28h
18b0 f0        ret     p

18b1 f0        ret     p

18b2 f5        push    af
18b3 f5        push    af
18b4 fafaf5    jp      m,0f5fah
18b7 f5        push    af
18b8 00        nop     
18b9 00        nop     
18ba ff        rst     38h
18bb ff        rst     38h
18bc ff        rst     38h
18bd ff        rst     38h
18be ff        rst     38h
18bf ff        rst     38h
18c0 00        nop     
18c1 00        nop     
18c2 00        nop     
18c3 00        nop     
18c4 00        nop     
18c5 00        nop     
18c6 00        nop     
18c7 00        nop     
18c8 00        nop     
18c9 00        nop     
18ca 00        nop     
18cb 00        nop     
18cc 00        nop     
18cd 00        nop     
18ce 00        nop     
18cf 00        nop     
18d0 00        nop     
18d1 00        nop     
18d2 00        nop     
18d3 00        nop     
18d4 00        nop     
18d5 00        nop     
18d6 00        nop     
18d7 00        nop     
18d8 117823    ld      de,2378h
18db e1        pop     hl
18dc 56        ld      d,(hl)
18dd 00        nop     
18de 24        inc     h
18df 00        nop     
18e0 24        inc     h
18e1 012402    ld      bc,0224h
18e4 24        inc     h
18e5 91        sub     c
18e6 24        inc     h
18e7 1024      djnz    190dh
18e9 00        nop     
18ea 34        inc     (hl)
18eb 00        nop     
18ec 16f0      ld      d,0f0h
18ee 07        rlca    
18ef 0f        rrca    
18f0 f0        ret     p

18f1 f0        ret     p

18f2 f5        push    af
18f3 f5        push    af
18f4 fafaf5    jp      m,0f5fah
18f7 f5        push    af
18f8 00        nop     
18f9 00        nop     
18fa ff        rst     38h
18fb ff        rst     38h
18fc ff        rst     38h
18fd ff        rst     38h
18fe ff        rst     38h
18ff ff        rst     38h
1900 ff        rst     38h
1901 ff        rst     38h
1902 ff        rst     38h
1903 ff        rst     38h
1904 ff        rst     38h
1905 ff        rst     38h
1906 00        nop     
1907 00        nop     
1908 af        xor     a
1909 af        xor     a
190a 5f        ld      e,a
190b 5f        ld      e,a
190c af        xor     a
190d af        xor     a
190e 0f        rrca    
190f 0f        rrca    
1910 ff        rst     38h
1911 ff        rst     38h
1912 ff        rst     38h
1913 ff        rst     38h
1914 0f        rrca    
1915 0f        rrca    
1916 f0        ret     p

1917 f0        ret     p

1918 00        nop     
1919 00        nop     
191a 00        nop     
191b 00        nop     
191c f0        ret     p

191d f0        ret     p

191e 0f        rrca    
191f 0f        rrca    
1920 ff        rst     38h
1921 ff        rst     38h
1922 ff        rst     38h
1923 ff        rst     38h
1924 ff        rst     38h
1925 ff        rst     38h
1926 ff        rst     38h
1927 ff        rst     38h
1928 ff        rst     38h
1929 ff        rst     38h
192a ff        rst     38h
192b fef0      cp      0f0h
192d e1        pop     hl
192e 0f        rrca    
192f 0e00      ld      c,00h
1931 00        nop     
1932 00        nop     
1933 00        nop     
1934 00        nop     
1935 00        nop     
1936 00        nop     
1937 00        nop     
1938 00        nop     
1939 00        nop     
193a 00        nop     
193b 00        nop     
193c 00        nop     
193d 00        nop     
193e 00        nop     
193f 00        nop     
1940 ff        rst     38h
1941 ff        rst     38h
1942 ff        rst     38h
1943 ff        rst     38h
1944 ff        rst     38h
1945 ff        rst     38h
1946 00        nop     
1947 00        nop     
1948 af        xor     a
1949 af        xor     a
194a 5f        ld      e,a
194b 5f        ld      e,a
194c af        xor     a
194d af        xor     a
194e 0f        rrca    
194f 0f        rrca    
1950 ff        rst     38h
1951 ff        rst     38h
1952 ff        rst     38h
1953 ff        rst     38h
1954 0f        rrca    
1955 ff        rst     38h
1956 f0        ret     p

1957 ff        rst     38h
1958 31ff73    ld      sp,73ffh
195b ff        rst     38h
195c f6f0      or      0f0h
195e 2d        dec     l
195f 0f        rrca    
1960 ca00ca    jp      z,0ca00h
1963 00        nop     
1964 ca00ca    jp      z,0ca00h
1967 00        nop     
1968 84        add     a,h
1969 00        nop     
196a 08        ex      af,af'
196b 00        nop     
196c 00        nop     
196d 00        nop     
196e 00        nop     
196f 00        nop     
1970 00        nop     
1971 00        nop     
1972 00        nop     
1973 00        nop     
1974 00        nop     
1975 00        nop     
1976 00        nop     
1977 00        nop     
1978 00        nop     
1979 00        nop     
197a 00        nop     
197b 00        nop     
197c 00        nop     
197d 00        nop     
197e 00        nop     
197f 00        nop     
1980 11df51    ld      de,51dfh
1983 df        rst     18h
1984 15        dec     d
1985 cc0000    call    z,0000h
1988 af        xor     a
1989 af        xor     a
198a 5f        ld      e,a
198b 5f        ld      e,a
198c af        xor     a
198d af        xor     a
198e 0f        rrca    
198f 0f        rrca    
1990 ff        rst     38h
1991 ff        rst     38h
1992 ff        rst     38h
1993 ff        rst     38h
1994 ff        rst     38h
1995 ff        rst     38h
1996 ff        rst     38h
1997 ff        rst     38h
1998 ff        rst     38h
1999 ff        rst     38h
199a ff        rst     38h
199b ff        rst     38h
199c f0        ret     p

199d f0        ret     p

199e 0f        rrca    
199f 0f        rrca    
19a0 00        nop     
19a1 00        nop     
19a2 00        nop     
19a3 00        nop     
19a4 00        nop     
19a5 00        nop     
19a6 00        nop     
19a7 00        nop     
19a8 00        nop     
19a9 00        nop     
19aa 00        nop     
19ab 00        nop     
19ac 00        nop     
19ad 00        nop     
19ae 00        nop     
19af 00        nop     
19b0 00        nop     
19b1 00        nop     
19b2 00        nop     
19b3 00        nop     
19b4 00        nop     
19b5 00        nop     
19b6 00        nop     
19b7 00        nop     
19b8 00        nop     
19b9 00        nop     
19ba 00        nop     
19bb 00        nop     
19bc 00        nop     
19bd 00        nop     
19be 00        nop     
19bf 00        nop     
19c0 15        dec     d
19c1 ff        rst     38h
19c2 15        dec     d
19c3 ff        rst     38h
19c4 15        dec     d
19c5 ff        rst     38h
19c6 00        nop     
19c7 00        nop     
19c8 af        xor     a
19c9 af        xor     a
19ca 5f        ld      e,a
19cb 5f        ld      e,a
19cc af        xor     a
19cd af        xor     a
19ce 0f        rrca    
19cf 0f        rrca    
19d0 ff        rst     38h
19d1 ff        rst     38h
19d2 ff        rst     38h
19d3 ff        rst     38h
19d4 ff        rst     38h
19d5 ff        rst     38h
19d6 ff        rst     38h
19d7 af        xor     a
19d8 ff        rst     38h
19d9 6f        ld      l,a
19da ff        rst     38h
19db 4f        ld      c,a
19dc f7        rst     30h
19dd c7        rst     00h
19de 7b        ld      a,e
19df d635      sub     35h
19e1 d635      sub     35h
19e3 d635      sub     35h
19e5 6b        ld      l,e
19e6 35        dec     (hl)
19e7 8d        adc     a,l
19e8 35        dec     (hl)
19e9 ce35      adc     a,35h
19eb ff        rst     38h
19ec 35        dec     (hl)
19ed ff        rst     38h
19ee 35        dec     (hl)
19ef ff        rst     38h
19f0 35        dec     (hl)
19f1 ff        rst     38h
19f2 35        dec     (hl)
19f3 ff        rst     38h
19f4 35        dec     (hl)
19f5 ff        rst     38h
19f6 12        ld      (de),a
19f7 f0        ret     p

19f8 010f00    ld      bc,000fh
19fb 00        nop     
19fc 00        nop     
19fd 00        nop     
19fe 00        nop     
19ff 00        nop     
1a00 00        nop     
1a01 00        nop     
1a02 00        nop     
1a03 00        nop     
1a04 00        nop     
1a05 00        nop     
1a06 00        nop     
1a07 00        nop     
1a08 00        nop     
1a09 00        nop     
1a0a 00        nop     
1a0b 00        nop     
1a0c 00        nop     
1a0d 00        nop     
1a0e 00        nop     
1a0f 00        nop     
1a10 00        nop     
1a11 00        nop     
1a12 00        nop     
1a13 00        nop     
1a14 00        nop     
1a15 00        nop     
1a16 00        nop     
1a17 00        nop     
1a18 00        nop     
1a19 00        nop     
1a1a 00        nop     
1a1b 00        nop     
1a1c 00        nop     
1a1d 00        nop     
1a1e 00        nop     
1a1f 00        nop     
1a20 00        nop     
1a21 00        nop     
1a22 00        nop     
1a23 00        nop     
1a24 00        nop     
1a25 00        nop     
1a26 00        nop     
1a27 00        nop     
1a28 88        adc     a,b
1a29 00        nop     
1a2a cc00f7    call    z,0f700h
1a2d ff        rst     38h
1a2e ff        rst     38h
1a2f ff        rst     38h
1a30 f0        ret     p

1a31 f0        ret     p

1a32 f5        push    af
1a33 f5        push    af
1a34 fafaf5    jp      m,0f5fah
1a37 f5        push    af
1a38 00        nop     
1a39 00        nop     
1a3a ff        rst     38h
1a3b ff        rst     38h
1a3c ff        rst     38h
1a3d ff        rst     38h
1a3e ff        rst     38h
1a3f ff        rst     38h
1a40 00        nop     
1a41 00        nop     
1a42 00        nop     
1a43 00        nop     
1a44 00        nop     
1a45 00        nop     
1a46 00        nop     
1a47 00        nop     
1a48 00        nop     
1a49 00        nop     
1a4a 00        nop     
1a4b 00        nop     
1a4c 00        nop     
1a4d 00        nop     
1a4e 00        nop     
1a4f 00        nop     
1a50 00        nop     
1a51 00        nop     
1a52 00        nop     
1a53 00        nop     
1a54 00        nop     
1a55 00        nop     
1a56 00        nop     
1a57 00        nop     
1a58 00        nop     
1a59 00        nop     
1a5a 00        nop     
1a5b 00        nop     
1a5c 00        nop     
1a5d 010001    ld      bc,0100h
1a60 00        nop     
1a61 03        inc     bc
1a62 00        nop     
1a63 03        inc     bc
1a64 00        nop     
1a65 03        inc     bc
1a66 00        nop     
1a67 03        inc     bc
1a68 00        nop     
1a69 03        inc     bc
1a6a 00        nop     
1a6b 03        inc     bc
1a6c cc03ee    call    z,0ee03h
1a6f 03        inc     bc
1a70 f0        ret     p

1a71 f0        ret     p

1a72 f5        push    af
1a73 f5        push    af
1a74 fafaf5    jp      m,0f5fah
1a77 f5        push    af
1a78 00        nop     
1a79 00        nop     
1a7a ff        rst     38h
1a7b ff        rst     38h
1a7c ff        rst     38h
1a7d ff        rst     38h
1a7e ff        rst     38h
1a7f ff        rst     38h
1a80 00        nop     
1a81 00        nop     
1a82 00        nop     
1a83 00        nop     
1a84 00        nop     
1a85 00        nop     
1a86 00        nop     
1a87 00        nop     
1a88 00        nop     
1a89 00        nop     
1a8a 00        nop     
1a8b 00        nop     
1a8c 00        nop     
1a8d 00        nop     
1a8e 00        nop     
1a8f 00        nop     
1a90 00        nop     
1a91 00        nop     
1a92 00        nop     
1a93 00        nop     
1a94 00        nop     
1a95 00        nop     
1a96 00        nop     
1a97 00        nop     
1a98 07        rlca    
1a99 0f        rrca    
1a9a 0f        rrca    
1a9b 3f        ccf     
1a9c 78        ld      a,b
1a9d f0        ret     p

1a9e 80        add     a,b
1a9f 00        nop     
1aa0 80        add     a,b
1aa1 0c        inc     c
1aa2 81        add     a,c
1aa3 44        ld      b,h
1aa4 82        add     a,d
1aa5 46        ld      b,(hl)
1aa6 82        add     a,d
1aa7 04        inc     b
1aa8 80        add     a,b
1aa9 00        nop     
1aaa 80        add     a,b
1aab 00        nop     
1aac f0        ret     p

1aad f0        ret     p

1aae 0f        rrca    
1aaf 0f        rrca    
1ab0 f0        ret     p

1ab1 f0        ret     p

1ab2 f5        push    af
1ab3 f5        push    af
1ab4 fafaf5    jp      m,0f5fah
1ab7 f5        push    af
1ab8 00        nop     
1ab9 00        nop     
1aba 15        dec     d
1abb 98        sbc     a,b
1abc 51        ld      d,c
1abd 9b        sbc     a,e
1abe 119b00    ld      de,009bh
1ac1 00        nop     
1ac2 00        nop     
1ac3 00        nop     
1ac4 00        nop     
1ac5 00        nop     
1ac6 00        nop     
1ac7 00        nop     
1ac8 00        nop     
1ac9 00        nop     
1aca 00        nop     
1acb 00        nop     
1acc 00        nop     
1acd 00        nop     
1ace 00        nop     
1acf 00        nop     
1ad0 00        nop     
1ad1 00        nop     
1ad2 00        nop     
1ad3 00        nop     
1ad4 00        nop     
1ad5 00        nop     
1ad6 00        nop     
1ad7 00        nop     
1ad8 4c        ld      c,h
1ad9 00        nop     
1ada ae        xor     (hl)
1adb 00        nop     
1adc 5f        ld      e,a
1add 00        nop     
1ade a7        and     a
1adf 00        nop     
1ae0 a7        and     a
1ae1 00        nop     
1ae2 a7        and     a
1ae3 32a703    ld      (03a7h),a
1ae6 a7        and     a
1ae7 67        ld      h,a
1ae8 a7        and     a
1ae9 16a7      ld      d,0a7h
1aeb cea7      adc     a,0a7h
1aed 3c        inc     a
1aee 5f        ld      e,a
1aef 7f        ld      a,a
1af0 f0        ret     p

1af1 f0        ret     p

1af2 f5        push    af
1af3 f5        push    af
1af4 fafaf5    jp      m,0f5fah
1af7 f5        push    af
1af8 00        nop     
1af9 00        nop     
1afa 95        sub     l
1afb ff        rst     38h
1afc 9d        sbc     a,l
1afd ff        rst     38h
1afe 9d        sbc     a,l
1aff ff        rst     38h
1b00 ff        rst     38h
1b01 ff        rst     38h
1b02 ff        rst     38h
1b03 ff        rst     38h
1b04 ff        rst     38h
1b05 ff        rst     38h
1b06 00        nop     
1b07 00        nop     
1b08 af        xor     a
1b09 af        xor     a
1b0a 5f        ld      e,a
1b0b 5f        ld      e,a
1b0c af        xor     a
1b0d af        xor     a
1b0e 0f        rrca    
1b0f 0f        rrca    
1b10 eeff      xor     0ffh
1b12 eefe      xor     0feh
1b14 3f        ccf     
1b15 1f        rra     
1b16 b7        or      a
1b17 fea7      cp      0a7h
1b19 ff        rst     38h
1b1a a7        and     a
1b1b ff        rst     38h
1b1c 5f        ld      e,a
1b1d ff        rst     38h
1b1e 3f        ccf     
1b1f ff        rst     38h
1b20 7f        ld      a,a
1b21 f8        ret     m

1b22 ff        rst     38h
1b23 87        add     a,a
1b24 f0        ret     p

1b25 08        ex      af,af'
1b26 0f        rrca    
1b27 00        nop     
1b28 00        nop     
1b29 00        nop     
1b2a 00        nop     
1b2b 00        nop     
1b2c 00        nop     
1b2d 00        nop     
1b2e 00        nop     
1b2f 00        nop     
1b30 00        nop     
1b31 00        nop     
1b32 00        nop     
1b33 00        nop     
1b34 00        nop     
1b35 00        nop     
1b36 00        nop     
1b37 00        nop     
1b38 00        nop     
1b39 00        nop     
1b3a 00        nop     
1b3b 00        nop     
1b3c 00        nop     
1b3d 00        nop     
1b3e 00        nop     
1b3f 00        nop     
1b40 ff        rst     38h
1b41 ff        rst     38h
1b42 ff        rst     38h
1b43 ff        rst     38h
1b44 ff        rst     38h
1b45 ff        rst     38h
1b46 00        nop     
1b47 00        nop     
1b48 af        xor     a
1b49 af        xor     a
1b4a 5f        ld      e,a
1b4b 5f        ld      e,a
1b4c af        xor     a
1b4d af        xor     a
1b4e 0f        rrca    
1b4f 0f        rrca    
1b50 ff        rst     38h
1b51 37        scf     
1b52 00        nop     
1b53 bf        cp      a
1b54 f7        rst     30h
1b55 af        xor     a
1b56 ff        rst     38h
1b57 9e        sbc     a,(hl)
1b58 ff        rst     38h
1b59 ac        xor     h
1b5a ff        rst     38h
1b5b bd        cp      l
1b5c ff        rst     38h
1b5d 9d        sbc     a,l
1b5e f9        ld      sp,hl
1b5f 9d        sbc     a,l
1b60 96        sub     (hl)
1b61 9d        sbc     a,l
1b62 09        add     hl,bc
1b63 95        sub     l
1b64 01a401    ld      bc,01a4h
1b67 e401d6    call    po,0d601h
1b6a 01e701    ld      bc,01e7h
1b6d f7        rst     30h
1b6e 01f701    ld      bc,01f7h
1b71 f7        rst     30h
1b72 01f701    ld      bc,01f7h
1b75 f7        rst     30h
1b76 00        nop     
1b77 7b        ld      a,e
1b78 00        nop     
1b79 7b        ld      a,e
1b7a 00        nop     
1b7b 35        dec     (hl)
1b7c 00        nop     
1b7d 12        ld      (de),a
1b7e 00        nop     
1b7f 01119b    ld      bc,9b11h
1b82 51        ld      d,c
1b83 9b        sbc     a,e
1b84 15        dec     d
1b85 98        sbc     a,b
1b86 00        nop     
1b87 00        nop     
1b88 af        xor     a
1b89 af        xor     a
1b8a 5f        ld      e,a
1b8b 5f        ld      e,a
1b8c af        xor     a
1b8d af        xor     a
1b8e 0f        rrca    
1b8f 0f        rrca    
1b90 cf        rst     08h
1b91 1f        rra     
1b92 3c        inc     a
1b93 e1        pop     hl
1b94 47        ld      b,a
1b95 0f        rrca    
1b96 e8        ret     pe

1b97 3e76      ld      a,76h
1b99 ff        rst     38h
1b9a 9f        sbc     a,a
1b9b fedf      cp      0dfh
1b9d 46        ld      b,(hl)
1b9e ff        rst     38h
1b9f 57        ld      d,a
1ba0 ee23      xor     23h
1ba2 6e        ld      l,(hl)
1ba3 33        inc     sp
1ba4 bf        cp      a
1ba5 11d7fe    ld      de,0fed7h
1ba8 fdeee6    xor     0e6h
1bab 77        ld      (hl),a
1bac 2c        inc     l
1bad 61        ld      h,c
1bae cf        rst     08h
1baf 1eff      ld      e,0ffh
1bb1 feff      cp      0ffh
1bb3 feff      cp      0ffh
1bb5 feff      cp      0ffh
1bb7 edff      db      0edh, 0ffh       ; Undocumented 8 T-State NOP
1bb9 edff      db      0edh, 0ffh       ; Undocumented 8 T-State NOP
1bbb caf084    jp      z,84f0h
1bbe 0f        rrca    
1bbf 08        ex      af,af'
1bc0 9d        sbc     a,l
1bc1 ff        rst     38h
1bc2 9d        sbc     a,l
1bc3 ff        rst     38h
1bc4 95        sub     l
1bc5 ff        rst     38h
1bc6 00        nop     
1bc7 00        nop     
1bc8 af        xor     a
1bc9 af        xor     a
1bca 5f        ld      e,a
1bcb 5f        ld      e,a
1bcc af        xor     a
1bcd af        xor     a
1bce 0f        rrca    
1bcf 0f        rrca    
1bd0 ff        rst     38h
1bd1 ff        rst     38h
1bd2 7f        ld      a,a
1bd3 ff        rst     38h
1bd4 b7        or      a
1bd5 0f        rrca    
1bd6 5b        ld      e,e
1bd7 f0        ret     p

1bd8 3d        dec     a
1bd9 00        nop     
1bda 85        add     a,l
1bdb 00        nop     
1bdc 45        ld      b,l
1bdd 00        nop     
1bde cd0f4d    call    4d0fh
1be1 ff        rst     38h
1be2 cdffc9    call    0c9ffh
1be5 ff        rst     38h
1be6 b1        or      c
1be7 ff        rst     38h
1be8 53        ld      d,e
1be9 ff        rst     38h
1bea b7        or      a
1beb ff        rst     38h
1bec 78        ld      a,b
1bed f0        ret     p

1bee 87        add     a,a
1bef 0f        rrca    
1bf0 08        ex      af,af'
1bf1 00        nop     
1bf2 08        ex      af,af'
1bf3 00        nop     
1bf4 08        ex      af,af'
1bf5 00        nop     
1bf6 00        nop     
1bf7 00        nop     
1bf8 00        nop     
1bf9 00        nop     
1bfa 00        nop     
1bfb 00        nop     
1bfc 00        nop     
1bfd 00        nop     
1bfe 00        nop     
1bff 00        nop     
1c00 00        nop     
1c01 00        nop     
1c02 00        nop     
1c03 00        nop     
1c04 00        nop     
1c05 00        nop     
1c06 00        nop     
1c07 00        nop     
1c08 00        nop     
1c09 00        nop     
1c0a 00        nop     
1c0b 00        nop     
1c0c 00        nop     
1c0d 00        nop     
1c0e 00        nop     
1c0f 00        nop     
1c10 00        nop     
1c11 00        nop     
1c12 00        nop     
1c13 00        nop     
1c14 00        nop     
1c15 00        nop     
1c16 00        nop     
1c17 00        nop     
1c18 00        nop     
1c19 00        nop     
1c1a 00        nop     
1c1b 00        nop     
1c1c 00        nop     
1c1d 00        nop     
1c1e 00        nop     
1c1f 00        nop     
1c20 00        nop     
1c21 00        nop     
1c22 f0        ret     p

1c23 f0        ret     p

1c24 ff        rst     38h
1c25 ff        rst     38h
1c26 f0        ret     p

1c27 f0        ret     p

1c28 ff        rst     38h
1c29 ccffee    call    z,0eeffh
1c2c f0        ret     p

1c2d f0        ret     p

1c2e ff        rst     38h
1c2f ff        rst     38h
1c30 f0        ret     p

1c31 f0        ret     p

1c32 f5        push    af
1c33 f5        push    af
1c34 fafaf5    jp      m,0f5fah
1c37 f5        push    af
1c38 00        nop     
1c39 00        nop     
1c3a ff        rst     38h
1c3b 8a        adc     a,d
1c3c ff        rst     38h
1c3d a8        xor     b
1c3e ff        rst     38h
1c3f 88        adc     a,b
1c40 00        nop     
1c41 00        nop     
1c42 00        nop     
1c43 00        nop     
1c44 00        nop     
1c45 00        nop     
1c46 00        nop     
1c47 00        nop     
1c48 00        nop     
1c49 00        nop     
1c4a 00        nop     
1c4b 00        nop     
1c4c 00        nop     
1c4d 00        nop     
1c4e 00        nop     
1c4f 00        nop     
1c50 00        nop     
1c51 00        nop     
1c52 00        nop     
1c53 00        nop     
1c54 00        nop     
1c55 00        nop     
1c56 00        nop     
1c57 00        nop     
1c58 00        nop     
1c59 00        nop     
1c5a 00        nop     
1c5b 00        nop     
1c5c 00        nop     
1c5d 00        nop     
1c5e 00        nop     
1c5f 00        nop     
1c60 00        nop     
1c61 00        nop     
1c62 f0        ret     p

1c63 c4ff8c    call    nz,8cffh
1c66 0f        rrca    
1c67 ea018e    jp      pe,8e01h
1c6a 107d      djnz    1ce9h
1c6c f0        ret     p

1c6d 4f        ld      c,a
1c6e ff        rst     38h
1c6f ef        rst     28h
1c70 f0        ret     p

1c71 f0        ret     p

1c72 f5        push    af
1c73 f5        push    af
1c74 fafaf5    jp      m,0f5fah
1c77 f5        push    af
1c78 00        nop     
1c79 00        nop     
1c7a ff        rst     38h
1c7b ff        rst     38h
1c7c ff        rst     38h
1c7d ff        rst     38h
1c7e ff        rst     38h
1c7f ff        rst     38h
1c80 00        nop     
1c81 00        nop     
1c82 00        nop     
1c83 00        nop     
1c84 00        nop     
1c85 00        nop     
1c86 00        nop     
1c87 00        nop     
1c88 00        nop     
1c89 00        nop     
1c8a 00        nop     
1c8b 00        nop     
1c8c 00        nop     
1c8d 00        nop     
1c8e 00        nop     
1c8f 00        nop     
1c90 00        nop     
1c91 00        nop     
1c92 00        nop     
1c93 00        nop     
1c94 00        nop     
1c95 00        nop     
1c96 00        nop     
1c97 00        nop     
1c98 11f023    ld      de,23f0h
1c9b e1        pop     hl
1c9c 56        ld      d,(hl)
1c9d 00        nop     
1c9e 24        inc     h
1c9f 00        nop     
1ca0 24        inc     h
1ca1 03        inc     bc
1ca2 24        inc     h
1ca3 04        inc     b
1ca4 24        inc     h
1ca5 04        inc     b
1ca6 24        inc     h
1ca7 222400    ld      (0024h),hl
1caa 34        inc     (hl)
1cab 00        nop     
1cac 1680      ld      d,80h
1cae 07        rlca    
1caf 0f        rrca    
1cb0 f0        ret     p

1cb1 f0        ret     p

1cb2 f5        push    af
1cb3 f5        push    af
1cb4 fafaf5    jp      m,0f5fah
1cb7 f5        push    af
1cb8 00        nop     
1cb9 00        nop     
1cba ff        rst     38h
1cbb ff        rst     38h
1cbc ff        rst     38h
1cbd ff        rst     38h
1cbe ff        rst     38h
1cbf ff        rst     38h
1cc0 00        nop     
1cc1 00        nop     
1cc2 00        nop     
1cc3 00        nop     
1cc4 00        nop     
1cc5 00        nop     
1cc6 00        nop     
1cc7 00        nop     
1cc8 00        nop     
1cc9 00        nop     
1cca 00        nop     
1ccb 00        nop     
1ccc 00        nop     
1ccd 00        nop     
1cce 00        nop     
1ccf 00        nop     
1cd0 00        nop     
1cd1 00        nop     
1cd2 00        nop     
1cd3 00        nop     
1cd4 00        nop     
1cd5 00        nop     
1cd6 00        nop     
1cd7 00        nop     
1cd8 f0        ret     p

1cd9 88        adc     a,b
1cda 3f        ccf     
1cdb c4e1ea    call    nz,0eae1h
1cde 106c      djnz    1d4ch
1ce0 106c      djnz    1d4eh
1ce2 186c      jr      1d50h
1ce4 106c      djnz    1d52h
1ce6 102c      djnz    1d14h
1ce8 102c      djnz    1d16h
1cea 103c      djnz    1d28h
1cec 21690f    ld      hl,0f69h
1cef e1        pop     hl
1cf0 f0        ret     p

1cf1 f0        ret     p

1cf2 f5        push    af
1cf3 f5        push    af
1cf4 fafaf5    jp      m,0f5fah
1cf7 f5        push    af
1cf8 00        nop     
1cf9 00        nop     
1cfa ee3b      xor     3bh
1cfc eeb3      xor     0b3h
1cfe ee33      xor     33h
1d00 ff        rst     38h
1d01 88        adc     a,b
1d02 ff        rst     38h
1d03 a8        xor     b
1d04 ff        rst     38h
1d05 8a        adc     a,d
1d06 00        nop     
1d07 00        nop     
1d08 af        xor     a
1d09 af        xor     a
1d0a 5f        ld      e,a
1d0b 5f        ld      e,a
1d0c af        xor     a
1d0d af        xor     a
1d0e 0f        rrca    
1d0f 0f        rrca    
1d10 ff        rst     38h
1d11 ff        rst     38h
1d12 ff        rst     38h
1d13 ff        rst     38h
1d14 0f        rrca    
1d15 0f        rrca    
1d16 f0        ret     p

1d17 f0        ret     p

1d18 00        nop     
1d19 00        nop     
1d1a 00        nop     
1d1b 00        nop     
1d1c 00        nop     
1d1d 00        nop     
1d1e 0f        rrca    
1d1f 0f        rrca    
1d20 ff        rst     38h
1d21 ff        rst     38h
1d22 ff        rst     38h
1d23 ff        rst     38h
1d24 ff        rst     38h
1d25 ff        rst     38h
1d26 ff        rst     38h
1d27 ff        rst     38h
1d28 ff        rst     38h
1d29 ff        rst     38h
1d2a ff        rst     38h
1d2b ff        rst     38h
1d2c f0        ret     p

1d2d f0        ret     p

1d2e 0f        rrca    
1d2f 0f        rrca    
1d30 00        nop     
1d31 00        nop     
1d32 00        nop     
1d33 00        nop     
1d34 00        nop     
1d35 00        nop     
1d36 00        nop     
1d37 00        nop     
1d38 00        nop     
1d39 00        nop     
1d3a 00        nop     
1d3b 00        nop     
1d3c 00        nop     
1d3d 00        nop     
1d3e 00        nop     
1d3f 00        nop     
1d40 ff        rst     38h
1d41 ff        rst     38h
1d42 ff        rst     38h
1d43 ff        rst     38h
1d44 ff        rst     38h
1d45 ff        rst     38h
1d46 00        nop     
1d47 00        nop     
1d48 af        xor     a
1d49 af        xor     a
1d4a 5f        ld      e,a
1d4b 5f        ld      e,a
1d4c af        xor     a
1d4d af        xor     a
1d4e 0f        rrca    
1d4f 0f        rrca    
1d50 ff        rst     38h
1d51 ff        rst     38h
1d52 ff        rst     38h
1d53 ff        rst     38h
1d54 0f        rrca    
1d55 0f        rrca    
1d56 f0        ret     p

1d57 f0        ret     p

1d58 00        nop     
1d59 010011    ld      bc,1100h
1d5c 00        nop     
1d5d 110f1c    ld      de,1c0fh
1d60 ff        rst     38h
1d61 ff        rst     38h
1d62 ff        rst     38h
1d63 ff        rst     38h
1d64 ff        rst     38h
1d65 ff        rst     38h
1d66 ff        rst     38h
1d67 ff        rst     38h
1d68 ff        rst     38h
1d69 ff        rst     38h
1d6a ff        rst     38h
1d6b ff        rst     38h
1d6c f0        ret     p

1d6d f0        ret     p

1d6e 0f        rrca    
1d6f 0f        rrca    
1d70 00        nop     
1d71 00        nop     
1d72 00        nop     
1d73 00        nop     
1d74 00        nop     
1d75 00        nop     
1d76 00        nop     
1d77 00        nop     
1d78 00        nop     
1d79 00        nop     
1d7a 00        nop     
1d7b 00        nop     
1d7c 00        nop     
1d7d 00        nop     
1d7e 00        nop     
1d7f 00        nop     
1d80 ff        rst     38h
1d81 ff        rst     38h
1d82 ff        rst     38h
1d83 ff        rst     38h
1d84 ff        rst     38h
1d85 ff        rst     38h
1d86 00        nop     
1d87 00        nop     
1d88 af        xor     a
1d89 af        xor     a
1d8a 5f        ld      e,a
1d8b 5f        ld      e,a
1d8c af        xor     a
1d8d af        xor     a
1d8e 0f        rrca    
1d8f 0f        rrca    
1d90 ff        rst     38h
1d91 cf        rst     08h
1d92 ff        rst     38h
1d93 78        ld      a,b
1d94 ef        rst     28h
1d95 91        sub     c
1d96 cefb      adc     a,0fbh
1d98 fdb3      or      e
1d9a 8c        adc     a,h
1d9b 7f        ld      a,a
1d9c 9d        sbc     a,l
1d9d 9e        sbc     a,(hl)
1d9e 0c        inc     c
1d9f ff        rst     38h
1da0 8c        adc     a,h
1da1 77        ld      (hl),a
1da2 8d        adc     a,l
1da3 99        sbc     a,c
1da4 ad        xor     l
1da5 ff        rst     38h
1da6 ed9e      db      0edh, 9eh        ; Undocumented 8 T-State NOP
1da8 de3a      sbc     a,3ah
1daa ef        rst     28h
1dab 95        sub     l
1dac ff        rst     38h
1dad 68        ld      l,b
1dae ff        rst     38h
1daf cf        rst     08h
1db0 ff        rst     38h
1db1 ff        rst     38h
1db2 ff        rst     38h
1db3 ff        rst     38h
1db4 ff        rst     38h
1db5 ff        rst     38h
1db6 f7        rst     30h
1db7 ff        rst     38h
1db8 7b        ld      a,e
1db9 ff        rst     38h
1dba 35        dec     (hl)
1dbb ff        rst     38h
1dbc 12        ld      (de),a
1dbd f0        ret     p

1dbe 010fee    ld      bc,0ee0fh
1dc1 33        inc     sp
1dc2 eeb3      xor     0b3h
1dc4 ee3b      xor     3bh
1dc6 00        nop     
1dc7 00        nop     
1dc8 af        xor     a
1dc9 af        xor     a
1dca 5f        ld      e,a
1dcb 5f        ld      e,a
1dcc af        xor     a
1dcd af        xor     a
1dce 0f        rrca    
1dcf 0f        rrca    
1dd0 1f        rra     
1dd1 ff        rst     38h
1dd2 f0        ret     p

1dd3 7f        ld      a,a
1dd4 cdf3fe    call    0fef3h
1dd7 5b        ld      e,e
1dd8 eaf5df    jp      pe,0dff5h
1ddb cdefd4    call    0d4efh
1dde bb        cp      e
1ddf fe11      cp      11h
1de1 76        halt    
1de2 11dcbb    ld      de,0bbdch
1de5 edee      db      0edh, 0eeh       ; Undocumented 8 T-State NOP
1de7 75        ld      (hl),l
1de8 cc53cc    call    z,0cc53h
1deb b7        or      a
1dec 1078      djnz    1e66h
1dee 1f        rra     
1def 87        add     a,a
1df0 fe08      cp      08h
1df2 fe08      cp      08h
1df4 fe08      cp      08h
1df6 ed00      db      0edh, 00h        ; Undocumented 8 T-State NOP
1df8 ed00      db      0edh, 00h        ; Undocumented 8 T-State NOP
1dfa ca0084    jp      z,8400h
1dfd 00        nop     
1dfe 08        ex      af,af'
1dff 00        nop     
1e00 00        nop     
1e01 00        nop     
1e02 00        nop     
1e03 00        nop     
1e04 00        nop     
1e05 00        nop     
1e06 00        nop     
1e07 00        nop     
1e08 00        nop     
1e09 00        nop     
1e0a 00        nop     
1e0b 00        nop     
1e0c 00        nop     
1e0d 00        nop     
1e0e 00        nop     
1e0f 00        nop     
1e10 00        nop     
1e11 00        nop     
1e12 00        nop     
1e13 00        nop     
1e14 00        nop     
1e15 00        nop     
1e16 f0        ret     p

1e17 c43fea    call    nz,0ea3fh
1e1a e1        pop     hl
1e1b 7d        ld      a,l
1e1c 00        nop     
1e1d 3600      ld      (hl),00h
1e1f 3677      ld      (hl),77h
1e21 364c      ld      (hl),4ch
1e23 3699      ld      (hl),99h
1e25 3667      ld      (hl),67h
1e27 368c      ld      (hl),8ch
1e29 37        scf     
1e2a fcf08f    call    m,8ff0h
1e2d 0f        rrca    
1e2e ff        rst     38h
1e2f ff        rst     38h
1e30 f0        ret     p

1e31 f0        ret     p

1e32 f5        push    af
1e33 f5        push    af
1e34 fafaf5    jp      m,0f5fah
1e37 f5        push    af
1e38 00        nop     
1e39 00        nop     
1e3a ff        rst     38h
1e3b ff        rst     38h
1e3c ff        rst     38h
1e3d ff        rst     38h
1e3e ff        rst     38h
1e3f ff        rst     38h
1e40 00        nop     
1e41 00        nop     
1e42 00        nop     
1e43 00        nop     
1e44 00        nop     
1e45 00        nop     
1e46 00        nop     
1e47 00        nop     
1e48 00        nop     
1e49 00        nop     
1e4a 00        nop     
1e4b 00        nop     
1e4c 00        nop     
1e4d 00        nop     
1e4e 00        nop     
1e4f 00        nop     
1e50 00        nop     
1e51 00        nop     
1e52 00        nop     
1e53 00        nop     
1e54 00        nop     
1e55 00        nop     
1e56 00        nop     
1e57 00        nop     
1e58 00        nop     
1e59 3000      jr      nc,1e5bh
1e5b 07        rlca    
1e5c 00        nop     
1e5d 3c        inc     a
1e5e 014801    ld      bc,0148h
1e61 59        ld      e,c
1e62 014801    ld      bc,0148h
1e65 7f        ld      a,a
1e66 87        add     a,a
1e67 8c        adc     a,h
1e68 ff        rst     38h
1e69 4c        ld      c,h
1e6a e1        pop     hl
1e6b 0f        rrca    
1e6c 0f        rrca    
1e6d 8f        adc     a,a
1e6e ff        rst     38h
1e6f 3f        ccf     
1e70 f0        ret     p

1e71 f0        ret     p

1e72 f5        push    af
1e73 f5        push    af
1e74 fafaf5    jp      m,0f5fah
1e77 f5        push    af
1e78 00        nop     
1e79 00        nop     
1e7a ff        rst     38h
1e7b ff        rst     38h
1e7c ff        rst     38h
1e7d ff        rst     38h
1e7e ff        rst     38h
1e7f ff        rst     38h
1e80 00        nop     
1e81 00        nop     
1e82 00        nop     
1e83 00        nop     
1e84 00        nop     
1e85 00        nop     
1e86 00        nop     
1e87 00        nop     
1e88 00        nop     
1e89 00        nop     
1e8a 00        nop     
1e8b 00        nop     
1e8c 00        nop     
1e8d 00        nop     
1e8e 00        nop     
1e8f 00        nop     
1e90 00        nop     
1e91 00        nop     
1e92 00        nop     
1e93 00        nop     
1e94 00        nop     
1e95 00        nop     
1e96 00        nop     
1e97 00        nop     
1e98 e0        ret     po

1e99 00        nop     
1e9a 3e00      ld      a,00h
1e9c f1        pop     af
1e9d 80        add     a,b
1e9e 10c8      djnz    1e68h
1ea0 dcc850    call    c,50c8h
1ea3 c8        ret     z

1ea4 54        ld      d,h
1ea5 c8        ret     z

1ea6 9c        sbc     a,h
1ea7 8f        adc     a,a
1ea8 89        adc     a,c
1ea9 ff        rst     38h
1eaa 30f0      jr      nc,1e9ch
1eac 0f        rrca    
1ead 0f        rrca    
1eae ff        rst     38h
1eaf ff        rst     38h
1eb0 f0        ret     p

1eb1 f0        ret     p

1eb2 f5        push    af
1eb3 f5        push    af
1eb4 fafaf5    jp      m,0f5fah
1eb7 f5        push    af
1eb8 00        nop     
1eb9 00        nop     
1eba ff        rst     38h
1ebb eeff      xor     0ffh
1ebd eeff      xor     0ffh
1ebf ee00      xor     00h
1ec1 00        nop     
1ec2 00        nop     
1ec3 00        nop     
1ec4 00        nop     
1ec5 00        nop     
1ec6 00        nop     
1ec7 00        nop     
1ec8 00        nop     
1ec9 00        nop     
1eca 00        nop     
1ecb 00        nop     
1ecc 00        nop     
1ecd 00        nop     
1ece 00        nop     
1ecf 00        nop     
1ed0 00        nop     
1ed1 00        nop     
1ed2 00        nop     
1ed3 00        nop     
1ed4 00        nop     
1ed5 00        nop     
1ed6 00        nop     
1ed7 00        nop     
1ed8 00        nop     
1ed9 00        nop     
1eda 00        nop     
1edb 00        nop     
1edc 00        nop     
1edd 00        nop     
1ede 00        nop     
1edf 00        nop     
1ee0 00        nop     
1ee1 00        nop     
1ee2 00        nop     
1ee3 00        nop     
1ee4 00        nop     
1ee5 00        nop     
1ee6 0f        rrca    
1ee7 0f        rrca    
1ee8 ff        rst     38h
1ee9 ff        rst     38h
1eea f0        ret     p

1eeb f0        ret     p

1eec f0        ret     p

1eed f0        ret     p

1eee ff        rst     38h
1eef ff        rst     38h
1ef0 f0        ret     p

1ef1 f0        ret     p

1ef2 f5        push    af
1ef3 f5        push    af
1ef4 fafaf5    jp      m,0f5fah
1ef7 f5        push    af
1ef8 00        nop     
1ef9 00        nop     
1efa 3b        dec     sp
1efb ff        rst     38h
1efc b3        or      e
1efd ff        rst     38h
1efe 33        inc     sp
1eff ff        rst     38h
1f00 ff        rst     38h
1f01 ff        rst     38h
1f02 ff        rst     38h
1f03 ff        rst     38h
1f04 ff        rst     38h
1f05 ff        rst     38h
1f06 00        nop     
1f07 00        nop     
1f08 af        xor     a
1f09 af        xor     a
1f0a 5f        ld      e,a
1f0b 5f        ld      e,a
1f0c af        xor     a
1f0d af        xor     a
1f0e 0f        rrca    
1f0f 0f        rrca    
1f10 ff        rst     38h
1f11 eeff      xor     0ffh
1f13 ff        rst     38h
1f14 5d        ld      e,l
1f15 3f        ccf     
1f16 aa        xor     d
1f17 a7        and     a
1f18 11a7dd    ld      de,0dda7h
1f1b a7        and     a
1f1c cf        rst     08h
1f1d 5f        ld      e,a
1f1e ff        rst     38h
1f1f bf        cp      a
1f20 8f        adc     a,a
1f21 7f        ld      a,a
1f22 ff        rst     38h
1f23 ff        rst     38h
1f24 ff        rst     38h
1f25 f8        ret     m

1f26 ff        rst     38h
1f27 87        add     a,a
1f28 fe08      cp      08h
1f2a ed00      db      0edh, 00h        ; Undocumented 8 T-State NOP
1f2c ed00      db      0edh, 00h        ; Undocumented 8 T-State NOP
1f2e c20000    jp      nz,0000h
1f31 00        nop     
1f32 00        nop     
1f33 00        nop     
1f34 00        nop     
1f35 00        nop     
1f36 00        nop     
1f37 00        nop     
1f38 00        nop     
1f39 00        nop     
1f3a 00        nop     
1f3b 00        nop     
1f3c 00        nop     
1f3d 00        nop     
1f3e 00        nop     
1f3f 00        nop     
1f40 ff        rst     38h
1f41 ff        rst     38h
1f42 ff        rst     38h
1f43 ff        rst     38h
1f44 ff        rst     38h
1f45 ff        rst     38h
1f46 00        nop     
1f47 00        nop     
1f48 af        xor     a
1f49 af        xor     a
1f4a 5f        ld      e,a
1f4b 5f        ld      e,a
1f4c af        xor     a
1f4d af        xor     a
1f4e 0f        rrca    
1f4f 0f        rrca    
1f50 ff        rst     38h
1f51 ff        rst     38h
1f52 ff        rst     38h
1f53 ff        rst     38h
1f54 1f        rra     
1f55 8c        adc     a,h
1f56 ff        rst     38h
1f57 66        ld      h,(hl)
1f58 ef        rst     28h
1f59 bf        cp      a
1f5a ff        rst     38h
1f5b 66        ld      h,(hl)
1f5c ff        rst     38h
1f5d 99        sbc     a,c
1f5e ff        rst     38h
1f5f ef        rst     28h
1f60 ff        rst     38h
1f61 cf        rst     08h
1f62 ff        rst     38h
1f63 ff        rst     38h
1f64 ff        rst     38h
1f65 ff        rst     38h
1f66 f7        rst     30h
1f67 ff        rst     38h
1f68 7b        ld      a,e
1f69 ff        rst     38h
1f6a 7b        ld      a,e
1f6b ff        rst     38h
1f6c 34        inc     (hl)
1f6d f0        ret     p

1f6e 03        inc     bc
1f6f 0f        rrca    
1f70 00        nop     
1f71 00        nop     
1f72 00        nop     
1f73 00        nop     
1f74 00        nop     
1f75 00        nop     
1f76 00        nop     
1f77 00        nop     
1f78 00        nop     
1f79 00        nop     
1f7a 00        nop     
1f7b 00        nop     
1f7c 00        nop     
1f7d 00        nop     
1f7e 00        nop     
1f7f 00        nop     
1f80 ff        rst     38h
1f81 eeff      xor     0ffh
1f83 eeff      xor     0ffh
1f85 ee00      xor     00h
1f87 00        nop     
1f88 af        xor     a
1f89 af        xor     a
1f8a 5f        ld      e,a
1f8b 5f        ld      e,a
1f8c af        xor     a
1f8d af        xor     a
1f8e 0f        rrca    
1f8f 0f        rrca    
1f90 ff        rst     38h
1f91 bb        cp      e
1f92 bf        cp      a
1f93 bb        cp      e
1f94 47        ld      b,a
1f95 cf        rst     08h
1f96 a9        xor     c
1f97 ff        rst     38h
1f98 ad        xor     l
1f99 ff        rst     38h
1f9a 69        ld      l,c
1f9b bf        cp      a
1f9c d37f      out     (7fh),a
1f9e 0f        rrca    
1f9f ff        rst     38h
1fa0 1f        rra     
1fa1 ff        rst     38h
1fa2 ff        rst     38h
1fa3 ff        rst     38h
1fa4 fcf7cb    call    m,0cbf7h
1fa7 7b        ld      a,e
1fa8 84        add     a,h
1fa9 35        dec     (hl)
1faa 84        add     a,h
1fab 12        ld      (de),a
1fac 08        ex      af,af'
1fad 010000    ld      bc,0000h
1fb0 00        nop     
1fb1 00        nop     
1fb2 00        nop     
1fb3 00        nop     
1fb4 00        nop     
1fb5 00        nop     
1fb6 00        nop     
1fb7 00        nop     
1fb8 00        nop     
1fb9 00        nop     
1fba 00        nop     
1fbb 00        nop     
1fbc 00        nop     
1fbd 00        nop     
1fbe 00        nop     
1fbf 00        nop     
1fc0 33        inc     sp
1fc1 ff        rst     38h
1fc2 b3        or      e
1fc3 ff        rst     38h
1fc4 b3        or      e
1fc5 ff        rst     38h
1fc6 00        nop     
1fc7 00        nop     
1fc8 af        xor     a
1fc9 af        xor     a
1fca 5f        ld      e,a
1fcb 5f        ld      e,a
1fcc af        xor     a
1fcd af        xor     a
1fce 0f        rrca    
1fcf 0f        rrca    
1fd0 bb        cp      e
1fd1 8f        adc     a,a
1fd2 ab        xor     e
1fd3 6f        ld      l,a
1fd4 6f        ld      l,a
1fd5 ddce22    adc     a,22h
1fd8 9f        sbc     a,a
1fd9 23        inc     hl
1fda cbb8      res     7,b
1fdc dbfc      in      a,(0fch)
1fde ff        rst     38h
1fdf 8f        adc     a,a
1fe0 ff        rst     38h
1fe1 0f        rrca    
1fe2 ff        rst     38h
1fe3 ff        rst     38h
1fe4 ff        rst     38h
1fe5 ff        rst     38h
1fe6 ff        rst     38h
1fe7 ff        rst     38h
1fe8 ff        rst     38h
1fe9 feff      cp      0ffh
1feb edf0      db      0edh, 0f0h       ; Undocumented 8 T-State NOP
1fed c20f0c    jp      nz,0c0fh
1ff0 00        nop     
1ff1 00        nop     
1ff2 00        nop     
1ff3 00        nop     
1ff4 00        nop     
1ff5 00        nop     
1ff6 00        nop     
1ff7 00        nop     
1ff8 00        nop     
1ff9 00        nop     
1ffa 00        nop     
1ffb 00        nop     
1ffc 00        nop     
1ffd 00        nop     
1ffe 00        nop     
1fff 00        nop     
2000 00        nop     
2001 00        nop     
2002 00        nop     
2003 00        nop     
2004 00        nop     
2005 00        nop     
2006 00        nop     
2007 00        nop     
2008 00        nop     
2009 00        nop     
200a 00        nop     
200b 00        nop     
200c 00        nop     
200d 00        nop     
200e 00        nop     
200f 00        nop     
2010 00        nop     
2011 00        nop     
2012 00        nop     
2013 00        nop     
2014 00        nop     
2015 00        nop     
2016 00        nop     
2017 00        nop     
2018 00        nop     
2019 00        nop     
201a 00        nop     
201b 00        nop     
201c 00        nop     
201d 00        nop     
201e 00        nop     
201f 00        nop     
2020 00        nop     
2021 00        nop     
2022 00        nop     
2023 00        nop     
2024 00        nop     
2025 00        nop     
2026 00        nop     
2027 0c        inc     c
2028 01ec03    ld      bc,03ech
202b f22363    jp      p,6323h
202e 33        inc     sp
202f ff        rst     38h
2030 f0        ret     p

2031 f0        ret     p

2032 f5        push    af
2033 f5        push    af
2034 fafaf5    jp      m,0f5fah
2037 f5        push    af
2038 00        nop     
2039 00        nop     
203a ff        rst     38h
203b 8a        adc     a,d
203c ff        rst     38h
203d a8        xor     b
203e ff        rst     38h
203f 88        adc     a,b
2040 00        nop     
2041 00        nop     
2042 00        nop     
2043 00        nop     
2044 00        nop     
2045 00        nop     
2046 00        nop     
2047 00        nop     
2048 00        nop     
2049 00        nop     
204a 00        nop     
204b 00        nop     
204c 00        nop     
204d 00        nop     
204e 00        nop     
204f 00        nop     
2050 00        nop     
2051 00        nop     
2052 00        nop     
2053 00        nop     
2054 00        nop     
2055 00        nop     
2056 00        nop     
2057 00        nop     
2058 00        nop     
2059 00        nop     
205a 00        nop     
205b 00        nop     
205c 00        nop     
205d 00        nop     
205e 00        nop     
205f 00        nop     
2060 00        nop     
2061 00        nop     
2062 00        nop     
2063 00        nop     
2064 00        nop     
2065 00        nop     
2066 00        nop     
2067 00        nop     
2068 00        nop     
2069 00        nop     
206a 00        nop     
206b 00        nop     
206c 00        nop     
206d 00        nop     
206e 00        nop     
206f 00        nop     
2070 f0        ret     p

2071 f0        ret     p

2072 f5        push    af
2073 f5        push    af
2074 fafaf5    jp      m,0f5fah
2077 f5        push    af
2078 00        nop     
2079 00        nop     
207a ff        rst     38h
207b 98        sbc     a,b
207c ff        rst     38h
207d 9b        sbc     a,e
207e ff        rst     38h
207f 9b        sbc     a,e
2080 00        nop     
2081 00        nop     
2082 00        nop     
2083 00        nop     
2084 00        nop     
2085 00        nop     
2086 00        nop     
2087 00        nop     
2088 00        nop     
2089 00        nop     
208a 00        nop     
208b 00        nop     
208c 00        nop     
208d 00        nop     
208e 00        nop     
208f 00        nop     
2090 00        nop     
2091 00        nop     
2092 00        nop     
2093 00        nop     
2094 00        nop     
2095 00        nop     
2096 00        nop     
2097 00        nop     
2098 32f056    ld      (56f0h),a
209b 97        sub     a
209c ac        xor     h
209d 1048      djnz    20e7h
209f 00        nop     
20a0 58        ld      e,b
20a1 cc7922    call    z,2279h
20a4 7b        ld      a,e
20a5 aa        xor     d
20a6 5f        ld      e,a
20a7 ee4c      xor     4ch
20a9 d8        ret     c

20aa 5d        ld      e,l
20ab f8        ret     m

20ac 6e        ld      l,(hl)
20ad 0f        rrca    
20ae 4c        ld      c,h
20af ff        rst     38h
20b0 f0        ret     p

20b1 f0        ret     p

20b2 f5        push    af
20b3 f5        push    af
20b4 fafaf5    jp      m,0f5fah
20b7 f5        push    af
20b8 00        nop     
20b9 00        nop     
20ba 95        sub     l
20bb 8a        adc     a,d
20bc 15        dec     d
20bd a8        xor     b
20be 15        dec     d
20bf 88        adc     a,b
20c0 00        nop     
20c1 00        nop     
20c2 00        nop     
20c3 00        nop     
20c4 00        nop     
20c5 00        nop     
20c6 00        nop     
20c7 00        nop     
20c8 00        nop     
20c9 00        nop     
20ca 00        nop     
20cb 00        nop     
20cc 00        nop     
20cd 00        nop     
20ce 00        nop     
20cf 00        nop     
20d0 00        nop     
20d1 00        nop     
20d2 00        nop     
20d3 00        nop     
20d4 00        nop     
20d5 00        nop     
20d6 00        nop     
20d7 00        nop     
20d8 88        adc     a,b
20d9 01c412    ld      bc,12c4h
20dc ea24e4    jp      pe,0e424h
20df 24        inc     h
20e0 e424e4    call    po,0e424h
20e3 24        inc     h
20e4 e435e5    call    po,0e535h
20e7 4e        ld      c,(hl)
20e8 f7        rst     30h
20e9 ce96      adc     a,96h
20eb f7        rst     30h
20ec 0f        rrca    
20ed 3f        ccf     
20ee ff        rst     38h
20ef ff        rst     38h
20f0 f0        ret     p

20f1 f0        ret     p

20f2 f5        push    af
20f3 f5        push    af
20f4 fafaf5    jp      m,0f5fah
20f7 f5        push    af
20f8 00        nop     
20f9 00        nop     
20fa ff        rst     38h
20fb ff        rst     38h
20fc ff        rst     38h
20fd ff        rst     38h
20fe ff        rst     38h
20ff ff        rst     38h
2100 0f        rrca    
2101 5d        ld      e,l
2102 0f        rrca    
2103 5d        ld      e,l
2104 0f        rrca    
2105 5d        ld      e,l
2106 f0        ret     p

2107 85        add     a,l
2108 f0        ret     p

2109 85        add     a,l
210a f0        ret     p

210b 85        add     a,l
210c f0        ret     p

210d 85        add     a,l
210e f0        ret     p

210f 85        add     a,l
2110 f0        ret     p

2111 85        add     a,l
2112 f0        ret     p

2113 85        add     a,l
2114 0f        rrca    
2115 0d        dec     c
2116 0f        rrca    
2117 2f        cpl     
2118 0f        rrca    
2119 2f        cpl     
211a 0f        rrca    
211b 0d        dec     c
211c f0        ret     p

211d 85        add     a,l
211e f0        ret     p

211f 85        add     a,l
2120 f0        ret     p

2121 85        add     a,l
2122 f0        ret     p

2123 85        add     a,l
2124 f0        ret     p

2125 85        add     a,l
2126 f0        ret     p

2127 85        add     a,l
2128 f0        ret     p

2129 85        add     a,l
212a f0        ret     p

212b 85        add     a,l
212c f0        ret     p

212d 85        add     a,l
212e f0        ret     p

212f 85        add     a,l
2130 f0        ret     p

2131 85        add     a,l
2132 f0        ret     p

2133 85        add     a,l
2134 f0        ret     p

2135 85        add     a,l
2136 f0        ret     p

2137 85        add     a,l
2138 f0        ret     p

2139 85        add     a,l
213a f0        ret     p

213b 85        add     a,l
213c 0f        rrca    
213d 0d        dec     c
213e 0f        rrca    
213f 2f        cpl     
2140 0f        rrca    
2141 5f        ld      e,a
2142 0f        rrca    
2143 5f        ld      e,a
2144 0f        rrca    
2145 5f        ld      e,a
2146 f0        ret     p

2147 97        sub     a
2148 f0        ret     p

2149 97        sub     a
214a f0        ret     p

214b 97        sub     a
214c f0        ret     p

214d 97        sub     a
214e f0        ret     p

214f 97        sub     a
2150 f0        ret     p

2151 97        sub     a
2152 f0        ret     p

2153 97        sub     a
2154 0f        rrca    
2155 1f        rra     
2156 0f        rrca    
2157 3d        dec     a
2158 0f        rrca    
2159 3d        dec     a
215a 0f        rrca    
215b 1f        rra     
215c f0        ret     p

215d 97        sub     a
215e f0        ret     p

215f 97        sub     a
2160 f0        ret     p

2161 97        sub     a
2162 f0        ret     p

2163 97        sub     a
2164 f0        ret     p

2165 97        sub     a
2166 f0        ret     p

2167 97        sub     a
2168 f0        ret     p

2169 97        sub     a
216a f0        ret     p

216b 97        sub     a
216c f0        ret     p

216d 97        sub     a
216e f0        ret     p

216f 97        sub     a
2170 f0        ret     p

2171 97        sub     a
2172 f0        ret     p

2173 97        sub     a
2174 f0        ret     p

2175 97        sub     a
2176 f0        ret     p

2177 97        sub     a
2178 f0        ret     p

2179 97        sub     a
217a f0        ret     p

217b 97        sub     a
217c f0        ret     p

217d 97        sub     a
217e f0        ret     p

217f 97        sub     a
2180 27        daa     
2181 5d        ld      e,l
2182 27        daa     
2183 5d        ld      e,l
2184 27        daa     
2185 5d        ld      e,l
2186 1685      ld      d,85h
2188 1685      ld      d,85h
218a 1685      ld      d,85h
218c 1685      ld      d,85h
218e 1685      ld      d,85h
2190 1685      ld      d,85h
2192 1685      ld      d,85h
2194 07        rlca    
2195 0d        dec     c
2196 03        inc     bc
2197 2f        cpl     
2198 03        inc     bc
2199 2f        cpl     
219a 07        rlca    
219b 0d        dec     c
219c 1685      ld      d,85h
219e 1694      ld      d,94h
21a0 1694      ld      d,94h
21a2 1694      ld      d,94h
21a4 1695      ld      d,95h
21a6 16b7      ld      d,0b7h
21a8 16b6      ld      d,0b6h
21aa 16b6      ld      d,0b6h
21ac 163e      ld      d,3eh
21ae 161c      ld      d,1ch
21b0 161c      ld      d,1ch
21b2 161c      ld      d,1ch
21b4 07        rlca    
21b5 1c        inc     e
21b6 07        rlca    
21b7 1c        inc     e
21b8 07        rlca    
21b9 1c        inc     e
21ba 07        rlca    
21bb 1c        inc     e
21bc 07        rlca    
21bd 1c        inc     e
21be 03        inc     bc
21bf 3f        ccf     
21c0 0f        rrca    
21c1 0f        rrca    
21c2 0f        rrca    
21c3 0f        rrca    
21c4 0f        rrca    
21c5 0f        rrca    
21c6 f0        ret     p

21c7 f0        ret     p

21c8 f0        ret     p

21c9 f0        ret     p

21ca f0        ret     p

21cb f0        ret     p

21cc f0        ret     p

21cd f0        ret     p

21ce f0        ret     p

21cf f0        ret     p

21d0 f0        ret     p

21d1 c3f087    jp      87f0h
21d4 0f        rrca    
21d5 0f        rrca    
21d6 0f        rrca    
21d7 0f        rrca    
21d8 0f        rrca    
21d9 0f        rrca    
21da 0f        rrca    
21db 0f        rrca    
21dc 0f        rrca    
21dd 0f        rrca    
21de ff        rst     38h
21df ff        rst     38h
21e0 ff        rst     38h
21e1 df        rst     18h
21e2 ff        rst     38h
21e3 6f        ld      l,a
21e4 ff        rst     38h
21e5 8f        adc     a,a
21e6 0f        rrca    
21e7 78        ld      a,b
21e8 00        nop     
21e9 76        halt    
21ea fe11      cp      11h
21ec cbdf      set     3,a
21ee b3        or      e
21ef 1f        rra     
21f0 77        ld      (hl),a
21f1 ff        rst     38h
21f2 7f        ld      a,a
21f3 ff        rst     38h
21f4 ff        rst     38h
21f5 eeff      xor     0ffh
21f7 cce7f7    call    z,0f7e7h
21fa a1        and     c
21fb e2e57b    jp      po,7be5h
21fe e7        rst     20h
21ff 7b        ld      a,e
2200 00        nop     
2201 00        nop     
2202 00        nop     
2203 00        nop     
2204 00        nop     
2205 00        nop     
2206 00        nop     
2207 00        nop     
2208 00        nop     
2209 00        nop     
220a 00        nop     
220b 00        nop     
220c 00        nop     
220d 00        nop     
220e 00        nop     
220f 00        nop     
2210 00        nop     
2211 00        nop     
2212 00        nop     
2213 00        nop     
2214 00        nop     
2215 00        nop     
2216 00        nop     
2217 00        nop     
2218 00        nop     
2219 00        nop     
221a 00        nop     
221b 00        nop     
221c 00        nop     
221d 00        nop     
221e 00        nop     
221f 00        nop     
2220 00        nop     
2221 00        nop     
2222 00        nop     
2223 00        nop     
2224 00        nop     
2225 00        nop     
2226 00        nop     
2227 00        nop     
2228 00        nop     
2229 00        nop     
222a 00        nop     
222b 00        nop     
222c 00        nop     
222d 00        nop     
222e 00        nop     
222f 00        nop     
2230 00        nop     
2231 00        nop     
2232 00        nop     
2233 00        nop     
2234 00        nop     
2235 00        nop     
2236 00        nop     
2237 00        nop     
2238 00        nop     
2239 00        nop     
223a 00        nop     
223b 00        nop     
223c 00        nop     
223d 00        nop     
223e 00        nop     
223f 00        nop     
2240 00        nop     
2241 00        nop     
2242 00        nop     
2243 00        nop     
2244 00        nop     
2245 00        nop     
2246 00        nop     
2247 00        nop     
2248 00        nop     
2249 00        nop     
224a 00        nop     
224b 00        nop     
224c 00        nop     
224d 00        nop     
224e 00        nop     
224f 00        nop     
2250 00        nop     
2251 00        nop     
2252 00        nop     
2253 00        nop     
2254 00        nop     
2255 00        nop     
2256 00        nop     
2257 00        nop     
2258 00        nop     
2259 00        nop     
225a 00        nop     
225b 00        nop     
225c 00        nop     
225d 00        nop     
225e 00        nop     
225f 00        nop     
2260 00        nop     
2261 00        nop     
2262 00        nop     
2263 00        nop     
2264 00        nop     
2265 00        nop     
2266 00        nop     
2267 00        nop     
2268 00        nop     
2269 00        nop     
226a 00        nop     
226b 00        nop     
226c 00        nop     
226d 00        nop     
226e 00        nop     
226f 00        nop     
2270 00        nop     
2271 00        nop     
2272 00        nop     
2273 00        nop     
2274 00        nop     
2275 00        nop     
2276 00        nop     
2277 00        nop     
2278 00        nop     
2279 00        nop     
227a 00        nop     
227b 00        nop     
227c 00        nop     
227d 00        nop     
227e 00        nop     
227f 00        nop     
2280 00        nop     
2281 00        nop     
2282 00        nop     
2283 00        nop     
2284 00        nop     
2285 00        nop     
2286 00        nop     
2287 00        nop     
2288 00        nop     
2289 00        nop     
228a 00        nop     
228b 00        nop     
228c 00        nop     
228d 00        nop     
228e 00        nop     
228f 00        nop     
2290 00        nop     
2291 00        nop     
2292 00        nop     
2293 00        nop     
2294 00        nop     
2295 00        nop     
2296 00        nop     
2297 00        nop     
2298 00        nop     
2299 00        nop     
229a 00        nop     
229b 00        nop     
229c 00        nop     
229d 00        nop     
229e 00        nop     
229f 00        nop     
22a0 00        nop     
22a1 00        nop     
22a2 00        nop     
22a3 00        nop     
22a4 00        nop     
22a5 00        nop     
22a6 00        nop     
22a7 00        nop     
22a8 00        nop     
22a9 00        nop     
22aa 00        nop     
22ab 00        nop     
22ac 00        nop     
22ad 00        nop     
22ae 00        nop     
22af 00        nop     
22b0 00        nop     
22b1 00        nop     
22b2 00        nop     
22b3 00        nop     
22b4 00        nop     
22b5 00        nop     
22b6 00        nop     
22b7 00        nop     
22b8 00        nop     
22b9 00        nop     
22ba 00        nop     
22bb 00        nop     
22bc 00        nop     
22bd 00        nop     
22be 00        nop     
22bf 00        nop     
22c0 00        nop     
22c1 010016    ld      bc,1600h
22c4 017912    ld      bc,1279h
22c7 f7        rst     30h
22c8 12        ld      (de),a
22c9 ff        rst     38h
22ca 12        ld      (de),a
22cb ff        rst     38h
22cc 12        ld      (de),a
22cd ff        rst     38h
22ce 12        ld      (de),a
22cf ff        rst     38h
22d0 12        ld      (de),a
22d1 ff        rst     38h
22d2 12        ld      (de),a
22d3 ff        rst     38h
22d4 12        ld      (de),a
22d5 ff        rst     38h
22d6 12        ld      (de),a
22d7 ff        rst     38h
22d8 12        ld      (de),a
22d9 ff        rst     38h
22da 12        ld      (de),a
22db ff        rst     38h
22dc 12        ld      (de),a
22dd ff        rst     38h
22de 12        ld      (de),a
22df ff        rst     38h
22e0 12        ld      (de),a
22e1 ff        rst     38h
22e2 12        ld      (de),a
22e3 ff        rst     38h
22e4 12        ld      (de),a
22e5 ff        rst     38h
22e6 12        ld      (de),a
22e7 ff        rst     38h
22e8 12        ld      (de),a
22e9 ff        rst     38h
22ea 12        ld      (de),a
22eb ff        rst     38h
22ec 12        ld      (de),a
22ed ff        rst     38h
22ee 12        ld      (de),a
22ef ff        rst     38h
22f0 12        ld      (de),a
22f1 ff        rst     38h
22f2 12        ld      (de),a
22f3 ff        rst     38h
22f4 12        ld      (de),a
22f5 ff        rst     38h
22f6 12        ld      (de),a
22f7 ff        rst     38h
22f8 12        ld      (de),a
22f9 ff        rst     38h
22fa 12        ld      (de),a
22fb ff        rst     38h
22fc 12        ld      (de),a
22fd ff        rst     38h
22fe 12        ld      (de),a
22ff ff        rst     38h
2300 00        nop     
2301 00        nop     
2302 00        nop     
2303 00        nop     
2304 00        nop     
2305 00        nop     
2306 00        nop     
2307 00        nop     
2308 00        nop     
2309 00        nop     
230a 00        nop     
230b 00        nop     
230c 00        nop     
230d 00        nop     
230e 00        nop     
230f 00        nop     
2310 00        nop     
2311 00        nop     
2312 00        nop     
2313 00        nop     
2314 00        nop     
2315 00        nop     
2316 00        nop     
2317 00        nop     
2318 00        nop     
2319 00        nop     
231a 00        nop     
231b 00        nop     
231c 00        nop     
231d 00        nop     
231e 00        nop     
231f 00        nop     
2320 00        nop     
2321 00        nop     
2322 00        nop     
2323 00        nop     
2324 00        nop     
2325 00        nop     
2326 00        nop     
2327 00        nop     
2328 00        nop     
2329 00        nop     
232a 00        nop     
232b 00        nop     
232c 00        nop     
232d 00        nop     
232e 00        nop     
232f 00        nop     
2330 00        nop     
2331 00        nop     
2332 00        nop     
2333 00        nop     
2334 00        nop     
2335 00        nop     
2336 00        nop     
2337 00        nop     
2338 00        nop     
2339 00        nop     
233a 00        nop     
233b 00        nop     
233c 00        nop     
233d 00        nop     
233e 00        nop     
233f 00        nop     
2340 00        nop     
2341 00        nop     
2342 00        nop     
2343 00        nop     
2344 00        nop     
2345 00        nop     
2346 00        nop     
2347 00        nop     
2348 00        nop     
2349 00        nop     
234a 00        nop     
234b 00        nop     
234c 00        nop     
234d 00        nop     
234e 00        nop     
234f 00        nop     
2350 00        nop     
2351 00        nop     
2352 00        nop     
2353 00        nop     
2354 00        nop     
2355 00        nop     
2356 00        nop     
2357 00        nop     
2358 00        nop     
2359 00        nop     
235a 00        nop     
235b 00        nop     
235c 00        nop     
235d 00        nop     
235e 00        nop     
235f 00        nop     
2360 00        nop     
2361 00        nop     
2362 00        nop     
2363 00        nop     
2364 00        nop     
2365 00        nop     
2366 00        nop     
2367 00        nop     
2368 00        nop     
2369 00        nop     
236a 00        nop     
236b 00        nop     
236c 00        nop     
236d 00        nop     
236e 00        nop     
236f 00        nop     
2370 00        nop     
2371 00        nop     
2372 00        nop     
2373 00        nop     
2374 00        nop     
2375 00        nop     
2376 00        nop     
2377 00        nop     
2378 00        nop     
2379 00        nop     
237a 00        nop     
237b 00        nop     
237c 00        nop     
237d 00        nop     
237e 00        nop     
237f 00        nop     
2380 00        nop     
2381 00        nop     
2382 00        nop     
2383 00        nop     
2384 00        nop     
2385 00        nop     
2386 00        nop     
2387 00        nop     
2388 00        nop     
2389 00        nop     
238a 00        nop     
238b 00        nop     
238c 00        nop     
238d 00        nop     
238e 00        nop     
238f 00        nop     
2390 00        nop     
2391 00        nop     
2392 00        nop     
2393 00        nop     
2394 00        nop     
2395 00        nop     
2396 00        nop     
2397 00        nop     
2398 00        nop     
2399 00        nop     
239a 00        nop     
239b 00        nop     
239c 00        nop     
239d 00        nop     
239e 00        nop     
239f 00        nop     
23a0 00        nop     
23a1 00        nop     
23a2 00        nop     
23a3 00        nop     
23a4 00        nop     
23a5 00        nop     
23a6 00        nop     
23a7 00        nop     
23a8 00        nop     
23a9 00        nop     
23aa 00        nop     
23ab 00        nop     
23ac 00        nop     
23ad 00        nop     
23ae 00        nop     
23af 00        nop     
23b0 00        nop     
23b1 00        nop     
23b2 00        nop     
23b3 00        nop     
23b4 00        nop     
23b5 00        nop     
23b6 00        nop     
23b7 00        nop     
23b8 00        nop     
23b9 00        nop     
23ba 00        nop     
23bb 00        nop     
23bc 00        nop     
23bd 00        nop     
23be 00        nop     
23bf 00        nop     
23c0 12        ld      (de),a
23c1 ff        rst     38h
23c2 12        ld      (de),a
23c3 ff        rst     38h
23c4 12        ld      (de),a
23c5 ff        rst     38h
23c6 12        ld      (de),a
23c7 ff        rst     38h
23c8 12        ld      (de),a
23c9 ff        rst     38h
23ca 12        ld      (de),a
23cb ff        rst     38h
23cc 12        ld      (de),a
23cd ff        rst     38h
23ce 12        ld      (de),a
23cf ff        rst     38h
23d0 12        ld      (de),a
23d1 ff        rst     38h
23d2 12        ld      (de),a
23d3 ff        rst     38h
23d4 12        ld      (de),a
23d5 ff        rst     38h
23d6 12        ld      (de),a
23d7 ff        rst     38h
23d8 12        ld      (de),a
23d9 ff        rst     38h
23da 12        ld      (de),a
23db ff        rst     38h
23dc 12        ld      (de),a
23dd ff        rst     38h
23de 12        ld      (de),a
23df ff        rst     38h
23e0 12        ld      (de),a
23e1 ff        rst     38h
23e2 12        ld      (de),a
23e3 ff        rst     38h
23e4 12        ld      (de),a
23e5 ff        rst     38h
23e6 12        ld      (de),a
23e7 ff        rst     38h
23e8 12        ld      (de),a
23e9 ff        rst     38h
23ea 12        ld      (de),a
23eb ff        rst     38h
23ec 12        ld      (de),a
23ed ff        rst     38h
23ee 12        ld      (de),a
23ef ff        rst     38h
23f0 12        ld      (de),a
23f1 ff        rst     38h
23f2 12        ld      (de),a
23f3 ff        rst     38h
23f4 12        ld      (de),a
23f5 ff        rst     38h
23f6 12        ld      (de),a
23f7 ff        rst     38h
23f8 12        ld      (de),a
23f9 ff        rst     38h
23fa 12        ld      (de),a
23fb ff        rst     38h
23fc 12        ld      (de),a
23fd ff        rst     38h
23fe 12        ld      (de),a
23ff ff        rst     38h
2400 00        nop     
2401 00        nop     
2402 00        nop     
2403 00        nop     
2404 00        nop     
2405 00        nop     
2406 00        nop     
2407 00        nop     
2408 00        nop     
2409 00        nop     
240a 00        nop     
240b 00        nop     
240c 00        nop     
240d 00        nop     
240e 00        nop     
240f 00        nop     
2410 00        nop     
2411 00        nop     
2412 00        nop     
2413 00        nop     
2414 00        nop     
2415 00        nop     
2416 00        nop     
2417 00        nop     
2418 00        nop     
2419 00        nop     
241a 00        nop     
241b 00        nop     
241c 00        nop     
241d 00        nop     
241e 00        nop     
241f 00        nop     
2420 00        nop     
2421 00        nop     
2422 00        nop     
2423 00        nop     
2424 00        nop     
2425 00        nop     
2426 00        nop     
2427 00        nop     
2428 00        nop     
2429 00        nop     
242a 00        nop     
242b 00        nop     
242c 00        nop     
242d 00        nop     
242e 00        nop     
242f 00        nop     
2430 00        nop     
2431 00        nop     
2432 00        nop     
2433 2010      jr      nz,2445h
2435 e0        ret     po

2436 34        inc     (hl)
2437 80        add     a,b
2438 48        ld      c,b
2439 00        nop     
243a 3c        inc     a
243b e0        ret     po

243c 3c        inc     a
243d e0        ret     po

243e 48        ld      c,b
243f 00        nop     
2440 00        nop     
2441 00        nop     
2442 00        nop     
2443 00        nop     
2444 00        nop     
2445 00        nop     
2446 00        nop     
2447 00        nop     
2448 00        nop     
2449 00        nop     
244a 00        nop     
244b 00        nop     
244c 00        nop     
244d 00        nop     
244e 00        nop     
244f 00        nop     
2450 00        nop     
2451 00        nop     
2452 00        nop     
2453 00        nop     
2454 00        nop     
2455 00        nop     
2456 00        nop     
2457 00        nop     
2458 00        nop     
2459 00        nop     
245a 00        nop     
245b 00        nop     
245c 00        nop     
245d 00        nop     
245e 00        nop     
245f 00        nop     
2460 00        nop     
2461 00        nop     
2462 00        nop     
2463 00        nop     
2464 00        nop     
2465 00        nop     
2466 00        nop     
2467 00        nop     
2468 00        nop     
2469 00        nop     
246a 00        nop     
246b 00        nop     
246c 00        nop     
246d 00        nop     
246e 00        nop     
246f 00        nop     
2470 48        ld      c,b
2471 cf        rst     08h
2472 00        nop     
2473 00        nop     
2474 00        nop     
2475 00        nop     
2476 00        nop     
2477 33        inc     sp
2478 00        nop     
2479 33        inc     sp
247a 11cf11    ld      de,11cfh
247d de00      sbc     a,00h
247f 320000    ld      (0000h),a
2482 00        nop     
2483 00        nop     
2484 00        nop     
2485 00        nop     
2486 00        nop     
2487 00        nop     
2488 00        nop     
2489 00        nop     
248a 00        nop     
248b 00        nop     
248c 00        nop     
248d 00        nop     
248e 00        nop     
248f 00        nop     
2490 00        nop     
2491 00        nop     
2492 00        nop     
2493 00        nop     
2494 00        nop     
2495 00        nop     
2496 00        nop     
2497 00        nop     
2498 00        nop     
2499 00        nop     
249a 00        nop     
249b 00        nop     
249c 00        nop     
249d 00        nop     
249e 00        nop     
249f 00        nop     
24a0 00        nop     
24a1 00        nop     
24a2 00        nop     
24a3 00        nop     
24a4 00        nop     
24a5 00        nop     
24a6 00        nop     
24a7 00        nop     
24a8 00        nop     
24a9 00        nop     
24aa 00        nop     
24ab 00        nop     
24ac 00        nop     
24ad 00        nop     
24ae 00        nop     
24af 00        nop     
24b0 f0        ret     p

24b1 f0        ret     p

24b2 f5        push    af
24b3 f5        push    af
24b4 fafaf5    jp      m,0f5fah
24b7 f5        push    af
24b8 80        add     a,b
24b9 00        nop     
24ba 8f        adc     a,a
24bb ff        rst     38h
24bc 8f        adc     a,a
24bd ff        rst     38h
24be 8f        adc     a,a
24bf ff        rst     38h
24c0 00        nop     
24c1 00        nop     
24c2 00        nop     
24c3 00        nop     
24c4 00        nop     
24c5 00        nop     
24c6 00        nop     
24c7 00        nop     
24c8 00        nop     
24c9 00        nop     
24ca 00        nop     
24cb 00        nop     
24cc 00        nop     
24cd 00        nop     
24ce 00        nop     
24cf 00        nop     
24d0 00        nop     
24d1 00        nop     
24d2 00        nop     
24d3 00        nop     
24d4 00        nop     
24d5 00        nop     
24d6 00        nop     
24d7 00        nop     
24d8 00        nop     
24d9 00        nop     
24da 00        nop     
24db 00        nop     
24dc 00        nop     
24dd 00        nop     
24de 00        nop     
24df 00        nop     
24e0 00        nop     
24e1 00        nop     
24e2 00        nop     
24e3 00        nop     
24e4 00        nop     
24e5 00        nop     
24e6 00        nop     
24e7 00        nop     
24e8 00        nop     
24e9 00        nop     
24ea 00        nop     
24eb 00        nop     
24ec 00        nop     
24ed 00        nop     
24ee 00        nop     
24ef 00        nop     
24f0 f0        ret     p

24f1 f0        ret     p

24f2 f5        push    af
24f3 f5        push    af
24f4 fafaf5    jp      m,0f5fah
24f7 f5        push    af
24f8 00        nop     
24f9 00        nop     
24fa ff        rst     38h
24fb ff        rst     38h
24fc ff        rst     38h
24fd ff        rst     38h
24fe ff        rst     38h
24ff ff        rst     38h
2500 48        ld      c,b
2501 00        nop     
2502 3c        inc     a
2503 e0        ret     po

2504 3c        inc     a
2505 e0        ret     po

2506 48        ld      c,b
2507 00        nop     
2508 48        ld      c,b
2509 00        nop     
250a 3c        inc     a
250b e0        ret     po

250c 3c        inc     a
250d e0        ret     po

250e 48        ld      c,b
250f 00        nop     
2510 48        ld      c,b
2511 00        nop     
2512 3c        inc     a
2513 c0        ret     nz

2514 3c        inc     a
2515 c0        ret     nz

2516 48        ld      c,b
2517 00        nop     
2518 48        ld      c,b
2519 00        nop     
251a 3c        inc     a
251b c0        ret     nz

251c 3c        inc     a
251d c0        ret     nz

251e 48        ld      c,b
251f 00        nop     
2520 48        ld      c,b
2521 00        nop     
2522 3c        inc     a
2523 c0        ret     nz

2524 3c        inc     a
2525 c0        ret     nz

2526 48        ld      c,b
2527 00        nop     
2528 48        ld      c,b
2529 00        nop     
252a 3c        inc     a
252b c0        ret     nz

252c 3c        inc     a
252d c0        ret     nz

252e 48        ld      c,b
252f 00        nop     
2530 48        ld      c,b
2531 00        nop     
2532 3c        inc     a
2533 c0        ret     nz

2534 3c        inc     a
2535 c0        ret     nz

2536 48        ld      c,b
2537 00        nop     
2538 48        ld      c,b
2539 00        nop     
253a 3c        inc     a
253b c0        ret     nz

253c 3c        inc     a
253d c0        ret     nz

253e 48        ld      c,b
253f 00        nop     
2540 00        nop     
2541 3211de    ld      (0de11h),a
2544 11de00    ld      de,00deh
2547 33        inc     sp
2548 00        nop     
2549 33        inc     sp
254a 11cf11    ld      de,11cfh
254d cf        rst     08h
254e 00        nop     
254f 33        inc     sp
2550 00        nop     
2551 33        inc     sp
2552 11cf11    ld      de,11cfh
2555 cf        rst     08h
2556 00        nop     
2557 33        inc     sp
2558 00        nop     
2559 33        inc     sp
255a 11cf11    ld      de,11cfh
255d cf        rst     08h
255e 00        nop     
255f 33        inc     sp
2560 00        nop     
2561 33        inc     sp
2562 11cf11    ld      de,11cfh
2565 cf        rst     08h
2566 00        nop     
2567 33        inc     sp
2568 00        nop     
2569 33        inc     sp
256a 11cf11    ld      de,11cfh
256d cf        rst     08h
256e 00        nop     
256f 33        inc     sp
2570 00        nop     
2571 33        inc     sp
2572 11cf11    ld      de,11cfh
2575 cf        rst     08h
2576 00        nop     
2577 33        inc     sp
2578 00        nop     
2579 33        inc     sp
257a 11cf11    ld      de,11cfh
257d cf        rst     08h
257e 00        nop     
257f 33        inc     sp
2580 8f        adc     a,a
2581 0f        rrca    
2582 cf        rst     08h
2583 0f        rrca    
2584 c30f5e    jp      5e0fh
2587 f0        ret     p

2588 5e        ld      e,(hl)
2589 f0        ret     p

258a 5e        ld      e,(hl)
258b f0        ret     p

258c 5e        ld      e,(hl)
258d f0        ret     p

258e 5e        ld      e,(hl)
258f f0        ret     p

2590 5e        ld      e,(hl)
2591 f0        ret     p

2592 5e        ld      e,(hl)
2593 f0        ret     p

2594 4f        ld      c,a
2595 0f        rrca    
2596 0f        rrca    
2597 0f        rrca    
2598 0f        rrca    
2599 0f        rrca    
259a 4f        ld      c,a
259b 0f        rrca    
259c 5e        ld      e,(hl)
259d f0        ret     p

259e 5e        ld      e,(hl)
259f f0        ret     p

25a0 5e        ld      e,(hl)
25a1 f0        ret     p

25a2 5e        ld      e,(hl)
25a3 f0        ret     p

25a4 5e        ld      e,(hl)
25a5 f0        ret     p

25a6 5e        ld      e,(hl)
25a7 f0        ret     p

25a8 5e        ld      e,(hl)
25a9 f0        ret     p

25aa 5e        ld      e,(hl)
25ab f0        ret     p

25ac 5e        ld      e,(hl)
25ad f0        ret     p

25ae 5e        ld      e,(hl)
25af f0        ret     p

25b0 5e        ld      e,(hl)
25b1 f0        ret     p

25b2 5e        ld      e,(hl)
25b3 f0        ret     p

25b4 5e        ld      e,(hl)
25b5 f0        ret     p

25b6 5e        ld      e,(hl)
25b7 f0        ret     p

25b8 5e        ld      e,(hl)
25b9 f0        ret     p

25ba 5e        ld      e,(hl)
25bb f0        ret     p

25bc 4f        ld      c,a
25bd 0f        rrca    
25be 0f        rrca    
25bf 0f        rrca    
25c0 0f        rrca    
25c1 0f        rrca    
25c2 0f        rrca    
25c3 0f        rrca    
25c4 0f        rrca    
25c5 0f        rrca    
25c6 f0        ret     p

25c7 f0        ret     p

25c8 f0        ret     p

25c9 f0        ret     p

25ca f0        ret     p

25cb f0        ret     p

25cc f0        ret     p

25cd f0        ret     p

25ce f0        ret     p

25cf f0        ret     p

25d0 f0        ret     p

25d1 f0        ret     p

25d2 f0        ret     p

25d3 f0        ret     p

25d4 0f        rrca    
25d5 0f        rrca    
25d6 0f        rrca    
25d7 0f        rrca    
25d8 0f        rrca    
25d9 0f        rrca    
25da 0f        rrca    
25db 0f        rrca    
25dc f0        ret     p

25dd f0        ret     p

25de f0        ret     p

25df f0        ret     p

25e0 f0        ret     p

25e1 f0        ret     p

25e2 f0        ret     p

25e3 f0        ret     p

25e4 f0        ret     p

25e5 f0        ret     p

25e6 f0        ret     p

25e7 f0        ret     p

25e8 f0        ret     p

25e9 f0        ret     p

25ea f0        ret     p

25eb f0        ret     p

25ec f0        ret     p

25ed f0        ret     p

25ee f0        ret     p

25ef f0        ret     p

25f0 f0        ret     p

25f1 f0        ret     p

25f2 f0        ret     p

25f3 f0        ret     p

25f4 f0        ret     p

25f5 f0        ret     p

25f6 f0        ret     p

25f7 f0        ret     p

25f8 f0        ret     p

25f9 f0        ret     p

25fa f0        ret     p

25fb f0        ret     p

25fc 78        ld      a,b
25fd e1        pop     hl
25fe 78        ld      a,b
25ff e1        pop     hl
2600 0f        rrca    
2601 0f        rrca    
2602 f0        ret     p

2603 f0        ret     p

2604 f0        ret     p

2605 f0        ret     p

2606 f0        ret     p

2607 f0        ret     p

2608 f0        ret     p

2609 f0        ret     p

260a f0        ret     p

260b f0        ret     p

260c f0        ret     p

260d 0f        rrca    
260e 87        add     a,a
260f 0f        rrca    
2610 0f        rrca    
2611 f0        ret     p

2612 78        ld      a,b
2613 f0        ret     p

2614 f0        ret     p

2615 f0        ret     p

2616 0f        rrca    
2617 0f        rrca    
2618 0f        rrca    
2619 0f        rrca    
261a ff        rst     38h
261b ff        rst     38h
261c 0f        rrca    
261d 0f        rrca    
261e ff        rst     38h
261f ff        rst     38h
2620 ff        rst     38h
2621 7f        ld      a,a
2622 4f        ld      c,a
2623 3d        dec     a
2624 a5        and     l
2625 7c        ld      a,h
2626 c7        rst     00h
2627 9e        sbc     a,(hl)
2628 7f        ld      a,a
2629 cf        rst     08h
262a 7f        ld      a,a
262b 67        ld      h,a
262c ff        rst     38h
262d bb        cp      e
262e ee44      xor     44h
2630 bb        cp      e
2631 77        ld      (hl),a
2632 33        inc     sp
2633 46        ld      b,(hl)
2634 d1        pop     de
2635 cf        rst     08h
2636 d1        pop     de
2637 cc119c    call    z,9c11h
263a 22cddd    ld      (0ddcdh),hl
263d 67        ld      h,a
263e dd13      inc     de
2640 0f        rrca    
2641 0f        rrca    
2642 f0        ret     p

2643 f0        ret     p

2644 f0        ret     p

2645 f0        ret     p

2646 f0        ret     p

2647 f0        ret     p

2648 f0        ret     p

2649 f0        ret     p

264a f0        ret     p

264b f0        ret     p

264c 0f        rrca    
264d 78        ld      a,b
264e 0f        rrca    
264f 1ef0      ld      e,0f0h
2651 87        add     a,a
2652 f0        ret     p

2653 e1        pop     hl
2654 f0        ret     p

2655 f0        ret     p

2656 0f        rrca    
2657 0f        rrca    
2658 0f        rrca    
2659 0f        rrca    
265a ff        rst     38h
265b ff        rst     38h
265c 0f        rrca    
265d 0f        rrca    
265e ff        rst     38h
265f ff        rst     38h
2660 ff        rst     38h
2661 ff        rst     38h
2662 ff        rst     38h
2663 ff        rst     38h
2664 ff        rst     38h
2665 ff        rst     38h
2666 87        add     a,a
2667 3f        ccf     
2668 80        add     a,b
2669 37        scf     
266a 88        adc     a,b
266b 37        scf     
266c bb        cp      e
266d 3f        ccf     
266e 00        nop     
266f 37        scf     
2670 bb        cp      e
2671 37        scf     
2672 3f        ccf     
2673 37        scf     
2674 5f        ld      e,a
2675 37        scf     
2676 ef        rst     28h
2677 37        scf     
2678 ff        rst     38h
2679 b7        or      a
267a 1d        dec     e
267b 7b        ld      a,e
267c cf        rst     08h
267d 7b        ld      a,e
267e ee37      xor     37h
2680 0f        rrca    
2681 1f        rra     
2682 f0        ret     p

2683 f0        ret     p

2684 f0        ret     p

2685 f0        ret     p

2686 f0        ret     p

2687 f0        ret     p

2688 f0        ret     p

2689 f0        ret     p

268a f0        ret     p

268b f0        ret     p

268c f0        ret     p

268d f0        ret     p

268e f0        ret     p

268f f0        ret     p

2690 78        ld      a,b
2691 f0        ret     p

2692 3c        inc     a
2693 f0        ret     p

2694 96        sub     (hl)
2695 f0        ret     p

2696 0f        rrca    
2697 0f        rrca    
2698 0f        rrca    
2699 0f        rrca    
269a ef        rst     28h
269b 3c        inc     a
269c 2f        cpl     
269d 1e2f      ld      e,2fh
269f 87        add     a,a
26a0 2f        cpl     
26a1 87        add     a,a
26a2 2f        cpl     
26a3 c32fc3    jp      0c32fh
26a6 2f        cpl     
26a7 e1        pop     hl
26a8 2f        cpl     
26a9 e1        pop     hl
26aa 2f        cpl     
26ab e1        pop     hl
26ac 2f        cpl     
26ad e1        pop     hl
26ae 2f        cpl     
26af e1        pop     hl
26b0 2f        cpl     
26b1 e1        pop     hl
26b2 2f        cpl     
26b3 e1        pop     hl
26b4 2f        cpl     
26b5 e1        pop     hl
26b6 2f        cpl     
26b7 e1        pop     hl
26b8 2f        cpl     
26b9 e1        pop     hl
26ba 2f        cpl     
26bb e1        pop     hl
26bc 2f        cpl     
26bd e1        pop     hl
26be a7        and     a
26bf e1        pop     hl
26c0 47        ld      b,a
26c1 0f        rrca    
26c2 70        ld      (hl),b
26c3 f0        ret     p

26c4 70        ld      (hl),b
26c5 f0        ret     p

26c6 70        ld      (hl),b
26c7 f0        ret     p

26c8 70        ld      (hl),b
26c9 f0        ret     p

26ca 70        ld      (hl),b
26cb f0        ret     p

26cc 70        ld      (hl),b
26cd f0        ret     p

26ce 70        ld      (hl),b
26cf f0        ret     p

26d0 70        ld      (hl),b
26d1 f0        ret     p

26d2 70        ld      (hl),b
26d3 f0        ret     p

26d4 70        ld      (hl),b
26d5 f0        ret     p

26d6 8f        adc     a,a
26d7 0f        rrca    
26d8 8f        adc     a,a
26d9 0f        rrca    
26da 70        ld      (hl),b
26db f0        ret     p

26dc 70        ld      (hl),b
26dd f0        ret     p

26de 70        ld      (hl),b
26df f0        ret     p

26e0 34        inc     (hl)
26e1 f0        ret     p

26e2 34        inc     (hl)
26e3 f0        ret     p

26e4 bc        cp      h
26e5 f0        ret     p

26e6 9e        sbc     a,(hl)
26e7 f0        ret     p

26e8 16f0      ld      d,0f0h
26ea 16f0      ld      d,0f0h
26ec 07        rlca    
26ed f0        ret     p

26ee 07        rlca    
26ef f0        ret     p

26f0 07        rlca    
26f1 f0        ret     p

26f2 07        rlca    
26f3 f0        ret     p

26f4 07        rlca    
26f5 78        ld      a,b
26f6 07        rlca    
26f7 78        ld      a,b
26f8 07        rlca    
26f9 78        ld      a,b
26fa 07        rlca    
26fb 78        ld      a,b
26fc 07        rlca    
26fd 0f        rrca    
26fe 8f        adc     a,a
26ff 0f        rrca    
2700 00        nop     
2701 00        nop     
2702 00        nop     
2703 00        nop     
2704 00        nop     
2705 00        nop     
2706 00        nop     
2707 00        nop     
2708 00        nop     
2709 00        nop     
270a 00        nop     
270b 00        nop     
270c 00        nop     
270d 00        nop     
270e 00        nop     
270f 00        nop     
2710 00        nop     
2711 00        nop     
2712 00        nop     
2713 00        nop     
2714 00        nop     
2715 00        nop     
2716 00        nop     
2717 00        nop     
2718 00        nop     
2719 00        nop     
271a 00        nop     
271b 00        nop     
271c 00        nop     
271d 00        nop     
271e 00        nop     
271f 00        nop     
2720 00        nop     
2721 00        nop     
2722 00        nop     
2723 00        nop     
2724 00        nop     
2725 00        nop     
2726 00        nop     
2727 00        nop     
2728 00        nop     
2729 00        nop     
272a 00        nop     
272b 00        nop     
272c 00        nop     
272d 00        nop     
272e 00        nop     
272f 00        nop     
2730 00        nop     
2731 00        nop     
2732 00        nop     
2733 00        nop     
2734 00        nop     
2735 00        nop     
2736 00        nop     
2737 00        nop     
2738 00        nop     
2739 00        nop     
273a 00        nop     
273b 00        nop     
273c 00        nop     
273d 00        nop     
273e 00        nop     
273f 00        nop     
2740 00        nop     
2741 00        nop     
2742 00        nop     
2743 00        nop     
2744 00        nop     
2745 00        nop     
2746 00        nop     
2747 00        nop     
2748 00        nop     
2749 00        nop     
274a 00        nop     
274b 00        nop     
274c 00        nop     
274d 00        nop     
274e 00        nop     
274f 00        nop     
2750 00        nop     
2751 00        nop     
2752 00        nop     
2753 00        nop     
2754 00        nop     
2755 00        nop     
2756 00        nop     
2757 00        nop     
2758 00        nop     
2759 00        nop     
275a 00        nop     
275b 00        nop     
275c 00        nop     
275d 00        nop     
275e 00        nop     
275f 00        nop     
2760 00        nop     
2761 00        nop     
2762 00        nop     
2763 00        nop     
2764 00        nop     
2765 00        nop     
2766 00        nop     
2767 00        nop     
2768 00        nop     
2769 00        nop     
276a 00        nop     
276b 00        nop     
276c 00        nop     
276d 00        nop     
276e 00        nop     
276f 00        nop     
2770 00        nop     
2771 00        nop     
2772 00        nop     
2773 00        nop     
2774 00        nop     
2775 00        nop     
2776 00        nop     
2777 00        nop     
2778 00        nop     
2779 00        nop     
277a 00        nop     
277b 00        nop     
277c 00        nop     
277d 00        nop     
277e 00        nop     
277f 00        nop     
2780 00        nop     
2781 00        nop     
2782 00        nop     
2783 00        nop     
2784 00        nop     
2785 00        nop     
2786 00        nop     
2787 00        nop     
2788 00        nop     
2789 00        nop     
278a 00        nop     
278b 00        nop     
278c 00        nop     
278d 00        nop     
278e 00        nop     
278f 00        nop     
2790 00        nop     
2791 00        nop     
2792 00        nop     
2793 00        nop     
2794 00        nop     
2795 00        nop     
2796 00        nop     
2797 00        nop     
2798 00        nop     
2799 00        nop     
279a 00        nop     
279b 00        nop     
279c 00        nop     
279d 00        nop     
279e 00        nop     
279f 00        nop     
27a0 00        nop     
27a1 00        nop     
27a2 00        nop     
27a3 00        nop     
27a4 00        nop     
27a5 00        nop     
27a6 00        nop     
27a7 00        nop     
27a8 00        nop     
27a9 00        nop     
27aa 00        nop     
27ab 00        nop     
27ac 00        nop     
27ad 00        nop     
27ae 00        nop     
27af 00        nop     
27b0 00        nop     
27b1 00        nop     
27b2 00        nop     
27b3 00        nop     
27b4 00        nop     
27b5 00        nop     
27b6 00        nop     
27b7 00        nop     
27b8 00        nop     
27b9 00        nop     
27ba 00        nop     
27bb 00        nop     
27bc 00        nop     
27bd 00        nop     
27be 00        nop     
27bf 00        nop     
27c0 12        ld      (de),a
27c1 ff        rst     38h
27c2 12        ld      (de),a
27c3 ff        rst     38h
27c4 12        ld      (de),a
27c5 ff        rst     38h
27c6 12        ld      (de),a
27c7 ff        rst     38h
27c8 12        ld      (de),a
27c9 ff        rst     38h
27ca 12        ld      (de),a
27cb ff        rst     38h
27cc 12        ld      (de),a
27cd ff        rst     38h
27ce 12        ld      (de),a
27cf ff        rst     38h
27d0 12        ld      (de),a
27d1 ff        rst     38h
27d2 12        ld      (de),a
27d3 ff        rst     38h
27d4 12        ld      (de),a
27d5 f7        rst     30h
27d6 017800    ld      bc,0078h
27d9 07        rlca    
27da 00        nop     
27db 00        nop     
27dc 00        nop     
27dd 00        nop     
27de 00        nop     
27df 00        nop     
27e0 00        nop     
27e1 00        nop     
27e2 00        nop     
27e3 00        nop     
27e4 00        nop     
27e5 00        nop     
27e6 00        nop     
27e7 00        nop     
27e8 00        nop     
27e9 00        nop     
27ea 00        nop     
27eb 00        nop     
27ec 00        nop     
27ed 00        nop     
27ee 00        nop     
27ef 00        nop     
27f0 00        nop     
27f1 00        nop     
27f2 00        nop     
27f3 00        nop     
27f4 00        nop     
27f5 00        nop     
27f6 00        nop     
27f7 00        nop     
27f8 00        nop     
27f9 00        nop     
27fa 00        nop     
27fb 00        nop     
27fc 00        nop     
27fd 00        nop     
27fe 00        nop     
27ff 00        nop     
2800 00        nop     
2801 00        nop     
2802 00        nop     
2803 00        nop     
2804 00        nop     
2805 00        nop     
2806 00        nop     
2807 00        nop     
2808 00        nop     
2809 00        nop     
280a 00        nop     
280b 00        nop     
280c 00        nop     
280d 00        nop     
280e 00        nop     
280f 00        nop     
2810 00        nop     
2811 00        nop     
2812 00        nop     
2813 00        nop     
2814 00        nop     
2815 00        nop     
2816 00        nop     
2817 00        nop     
2818 00        nop     
2819 00        nop     
281a 00        nop     
281b 00        nop     
281c 00        nop     
281d 00        nop     
281e 00        nop     
281f 00        nop     
2820 00        nop     
2821 00        nop     
2822 00        nop     
2823 00        nop     
2824 00        nop     
2825 00        nop     
2826 00        nop     
2827 00        nop     
2828 00        nop     
2829 00        nop     
282a 00        nop     
282b 00        nop     
282c 00        nop     
282d 00        nop     
282e 00        nop     
282f 00        nop     
2830 00        nop     
2831 00        nop     
2832 00        nop     
2833 00        nop     
2834 00        nop     
2835 00        nop     
2836 00        nop     
2837 00        nop     
2838 00        nop     
2839 00        nop     
283a 00        nop     
283b 00        nop     
283c 00        nop     
283d 00        nop     
283e 00        nop     
283f 00        nop     
2840 00        nop     
2841 00        nop     
2842 00        nop     
2843 00        nop     
2844 00        nop     
2845 00        nop     
2846 00        nop     
2847 00        nop     
2848 00        nop     
2849 00        nop     
284a 00        nop     
284b 00        nop     
284c 00        nop     
284d 00        nop     
284e 00        nop     
284f 00        nop     
2850 00        nop     
2851 00        nop     
2852 00        nop     
2853 00        nop     
2854 00        nop     
2855 00        nop     
2856 00        nop     
2857 00        nop     
2858 00        nop     
2859 00        nop     
285a 00        nop     
285b 00        nop     
285c 00        nop     
285d 00        nop     
285e 00        nop     
285f 00        nop     
2860 00        nop     
2861 00        nop     
2862 00        nop     
2863 00        nop     
2864 00        nop     
2865 00        nop     
2866 00        nop     
2867 00        nop     
2868 00        nop     
2869 00        nop     
286a 00        nop     
286b 00        nop     
286c 00        nop     
286d 00        nop     
286e 00        nop     
286f 00        nop     
2870 00        nop     
2871 00        nop     
2872 00        nop     
2873 00        nop     
2874 00        nop     
2875 00        nop     
2876 00        nop     
2877 00        nop     
2878 00        nop     
2879 00        nop     
287a 00        nop     
287b 00        nop     
287c 00        nop     
287d 00        nop     
287e 00        nop     
287f 00        nop     
2880 00        nop     
2881 00        nop     
2882 00        nop     
2883 00        nop     
2884 00        nop     
2885 00        nop     
2886 00        nop     
2887 00        nop     
2888 00        nop     
2889 00        nop     
288a 00        nop     
288b 00        nop     
288c 00        nop     
288d 00        nop     
288e 00        nop     
288f 00        nop     
2890 00        nop     
2891 00        nop     
2892 00        nop     
2893 00        nop     
2894 00        nop     
2895 00        nop     
2896 00        nop     
2897 00        nop     
2898 00        nop     
2899 00        nop     
289a 00        nop     
289b 00        nop     
289c 00        nop     
289d 00        nop     
289e 00        nop     
289f 00        nop     
28a0 00        nop     
28a1 00        nop     
28a2 00        nop     
28a3 00        nop     
28a4 00        nop     
28a5 00        nop     
28a6 00        nop     
28a7 00        nop     
28a8 00        nop     
28a9 00        nop     
28aa 00        nop     
28ab 00        nop     
28ac 00        nop     
28ad 00        nop     
28ae 00        nop     
28af 00        nop     
28b0 00        nop     
28b1 00        nop     
28b2 00        nop     
28b3 00        nop     
28b4 00        nop     
28b5 310076    ld      sp,7600h
28b8 11c932    ld      de,32c9h
28bb 0a        ld      a,(bc)
28bc 65        ld      h,l
28bd 05        dec     b
28be ca0a7b    jp      z,7b0ah
28c1 ff        rst     38h
28c2 7b        ld      a,e
28c3 ff        rst     38h
28c4 7b        ld      a,e
28c5 ff        rst     38h
28c6 7b        ld      a,e
28c7 ff        rst     38h
28c8 7b        ld      a,e
28c9 ff        rst     38h
28ca 7b        ld      a,e
28cb ff        rst     38h
28cc 7b        ld      a,e
28cd ff        rst     38h
28ce 7b        ld      a,e
28cf ff        rst     38h
28d0 7b        ld      a,e
28d1 ff        rst     38h
28d2 7b        ld      a,e
28d3 ff        rst     38h
28d4 7b        ld      a,e
28d5 ff        rst     38h
28d6 7b        ld      a,e
28d7 ff        rst     38h
28d8 7b        ld      a,e
28d9 ff        rst     38h
28da 7b        ld      a,e
28db ff        rst     38h
28dc 7b        ld      a,e
28dd ff        rst     38h
28de 7b        ld      a,e
28df ff        rst     38h
28e0 7b        ld      a,e
28e1 ff        rst     38h
28e2 7b        ld      a,e
28e3 ff        rst     38h
28e4 7b        ld      a,e
28e5 ff        rst     38h
28e6 7b        ld      a,e
28e7 ff        rst     38h
28e8 7b        ld      a,e
28e9 ff        rst     38h
28ea 7b        ld      a,e
28eb ff        rst     38h
28ec 7b        ld      a,e
28ed ff        rst     38h
28ee 7b        ld      a,e
28ef ff        rst     38h
28f0 6b        ld      l,e
28f1 e1        pop     hl
28f2 3ab7ed    ld      a,(0edb7h)
28f5 b7        or      a
28f6 0a        ld      a,(bc)
28f7 b7        or      a
28f8 05        dec     b
28f9 b7        or      a
28fa 0a        ld      a,(bc)
28fb b7        or      a
28fc 05        dec     b
28fd b7        or      a
28fe 0a        ld      a,(bc)
28ff b7        or      a
2900 00        nop     
2901 00        nop     
2902 00        nop     
2903 00        nop     
2904 00        nop     
2905 00        nop     
2906 00        nop     
2907 00        nop     
2908 00        nop     
2909 00        nop     
290a 00        nop     
290b 00        nop     
290c 00        nop     
290d 00        nop     
290e 00        nop     
290f 00        nop     
2910 40        ld      b,b
2911 00        nop     
2912 ff        rst     38h
2913 200f      jr      nz,2924h
2915 3f        ccf     
2916 0f        rrca    
2917 0f        rrca    
2918 0f        rrca    
2919 0f        rrca    
291a f0        ret     p

291b c3f0f0    jp      0f0f0h
291e f0        ret     p

291f f0        ret     p

2920 f0        ret     p

2921 f0        ret     p

2922 f0        ret     p

2923 f0        ret     p

2924 f0        ret     p

2925 f0        ret     p

2926 d2b4d2    jp      nc,0d2b4h
2929 b4        or      h
292a f0        ret     p

292b f0        ret     p

292c f0        ret     p

292d f0        ret     p

292e f0        ret     p

292f f0        ret     p

2930 f0        ret     p

2931 f0        ret     p

2932 f0        ret     p

2933 f0        ret     p

2934 f0        ret     p

2935 f0        ret     p

2936 f0        ret     p

2937 f0        ret     p

2938 f0        ret     p

2939 f0        ret     p

293a f0        ret     p

293b f0        ret     p

293c 0f        rrca    
293d 0f        rrca    
293e 0f        rrca    
293f 0f        rrca    
2940 00        nop     
2941 00        nop     
2942 00        nop     
2943 00        nop     
2944 00        nop     
2945 00        nop     
2946 00        nop     
2947 00        nop     
2948 00        nop     
2949 00        nop     
294a 00        nop     
294b 00        nop     
294c 00        nop     
294d 00        nop     
294e 00        nop     
294f 00        nop     
2950 00        nop     
2951 00        nop     
2952 00        nop     
2953 00        nop     
2954 ee80      xor     80h
2956 0f        rrca    
2957 88        adc     a,b
2958 0f        rrca    
2959 88        adc     a,b
295a 0f        rrca    
295b 88        adc     a,b
295c e1        pop     hl
295d 88        adc     a,b
295e e1        pop     hl
295f 88        adc     a,b
2960 e0        ret     po

2961 40        ld      b,b
2962 e1        pop     hl
2963 88        adc     a,b
2964 e1        pop     hl
2965 88        adc     a,b
2966 e1        pop     hl
2967 88        adc     a,b
2968 e1        pop     hl
2969 88        adc     a,b
296a e1        pop     hl
296b 88        adc     a,b
296c e1        pop     hl
296d 88        adc     a,b
296e e1        pop     hl
296f bb        cp      e
2970 e1        pop     hl
2971 a8        xor     b
2972 e1        pop     hl
2973 bb        cp      e
2974 e1        pop     hl
2975 8b        adc     a,e
2976 e1        pop     hl
2977 8b        adc     a,e
2978 e1        pop     hl
2979 ab        xor     e
297a e1        pop     hl
297b bb        cp      e
297c 1f        rra     
297d ab        xor     e
297e 0f        rrca    
297f 8b        adc     a,e
2980 00        nop     
2981 00        nop     
2982 00        nop     
2983 00        nop     
2984 00        nop     
2985 00        nop     
2986 00        nop     
2987 00        nop     
2988 00        nop     
2989 00        nop     
298a 00        nop     
298b 00        nop     
298c 00        nop     
298d 00        nop     
298e 00        nop     
298f 00        nop     
2990 00        nop     
2991 00        nop     
2992 00        nop     
2993 00        nop     
2994 00        nop     
2995 00        nop     
2996 00        nop     
2997 00        nop     
2998 00        nop     
2999 00        nop     
299a 00        nop     
299b 00        nop     
299c 00        nop     
299d 00        nop     
299e 00        nop     
299f 00        nop     
29a0 00        nop     
29a1 00        nop     
29a2 00        nop     
29a3 00        nop     
29a4 00        nop     
29a5 00        nop     
29a6 00        nop     
29a7 00        nop     
29a8 00        nop     
29a9 00        nop     
29aa 00        nop     
29ab 00        nop     
29ac 00        nop     
29ad 00        nop     
29ae 00        nop     
29af 00        nop     
29b0 ee80      xor     80h
29b2 eca8ff    call    pe,0ffa8h
29b5 d9        exx     
29b6 1f        rra     
29b7 ff        rst     38h
29b8 4f        ld      c,a
29b9 3f        ccf     
29ba ef        rst     28h
29bb c3ef30    jp      30efh
29be 1e00      ld      e,00h
29c0 00        nop     
29c1 00        nop     
29c2 00        nop     
29c3 00        nop     
29c4 00        nop     
29c5 00        nop     
29c6 00        nop     
29c7 00        nop     
29c8 00        nop     
29c9 00        nop     
29ca 00        nop     
29cb 00        nop     
29cc 00        nop     
29cd 00        nop     
29ce 00        nop     
29cf 00        nop     
29d0 00        nop     
29d1 00        nop     
29d2 00        nop     
29d3 00        nop     
29d4 00        nop     
29d5 00        nop     
29d6 00        nop     
29d7 00        nop     
29d8 00        nop     
29d9 00        nop     
29da 00        nop     
29db 00        nop     
29dc 00        nop     
29dd 00        nop     
29de 00        nop     
29df 00        nop     
29e0 00        nop     
29e1 00        nop     
29e2 00        nop     
29e3 00        nop     
29e4 00        nop     
29e5 00        nop     
29e6 00        nop     
29e7 00        nop     
29e8 00        nop     
29e9 00        nop     
29ea 00        nop     
29eb 00        nop     
29ec 00        nop     
29ed 00        nop     
29ee 00        nop     
29ef 00        nop     
29f0 00        nop     
29f1 00        nop     
29f2 00        nop     
29f3 00        nop     
29f4 c8        ret     z

29f5 00        nop     
29f6 b2        or      d
29f7 00        nop     
29f8 ec88ff    call    pe,0ff88h
29fb 04        inc     b
29fc 3f        ccf     
29fd ead3ca    jp      pe,0cad3h
2a00 0f        rrca    
2a01 0f        rrca    
2a02 0f        rrca    
2a03 0f        rrca    
2a04 f0        ret     p

2a05 f0        ret     p

2a06 f0        ret     p

2a07 f0        ret     p

2a08 f0        ret     p

2a09 f0        ret     p

2a0a f0        ret     p

2a0b f0        ret     p

2a0c f0        ret     p

2a0d f0        ret     p

2a0e f0        ret     p

2a0f f0        ret     p

2a10 f0        ret     p

2a11 f0        ret     p

2a12 f0        ret     p

2a13 f0        ret     p

2a14 f0        ret     p

2a15 f0        ret     p

2a16 d2b4d2    jp      nc,0d2b4h
2a19 b4        or      h
2a1a f0        ret     p

2a1b f0        ret     p

2a1c f0        ret     p

2a1d f0        ret     p

2a1e f0        ret     p

2a1f f0        ret     p

2a20 f0        ret     p

2a21 f0        ret     p

2a22 f0        ret     p

2a23 f0        ret     p

2a24 f0        ret     p

2a25 c30f0f    jp      0f0fh
2a28 0f        rrca    
2a29 0f        rrca    
2a2a 0f        rrca    
2a2b 3f        ccf     
2a2c ff        rst     38h
2a2d 3173ff    ld      sp,0ff73h
2a30 ff        rst     38h
2a31 ff        rst     38h
2a32 ff        rst     38h
2a33 ff        rst     38h
2a34 ff        rst     38h
2a35 ff        rst     38h
2a36 ff        rst     38h
2a37 ff        rst     38h
2a38 ff        rst     38h
2a39 f0        ret     p

2a3a f0        ret     p

2a3b 0f        rrca    
2a3c 0f        rrca    
2a3d 00        nop     
2a3e 00        nop     
2a3f 00        nop     
2a40 0f        rrca    
2a41 8b        adc     a,e
2a42 1f        rra     
2a43 ab        xor     e
2a44 e1        pop     hl
2a45 bb        cp      e
2a46 e1        pop     hl
2a47 ab        xor     e
2a48 e1        pop     hl
2a49 b8        cp      b
2a4a e1        pop     hl
2a4b 8b        adc     a,e
2a4c e1        pop     hl
2a4d bb        cp      e
2a4e e1        pop     hl
2a4f a8        xor     b
2a50 e1        pop     hl
2a51 bb        cp      e
2a52 e1        pop     hl
2a53 b8        cp      b
2a54 e1        pop     hl
2a55 b8        cp      b
2a56 e1        pop     hl
2a57 b8        cp      b
2a58 e1        pop     hl
2a59 b8        cp      b
2a5a e1        pop     hl
2a5b 88        adc     a,b
2a5c e1        pop     hl
2a5d 88        adc     a,b
2a5e e0        ret     po

2a5f 40        ld      b,b
2a60 e1        pop     hl
2a61 88        adc     a,b
2a62 e1        pop     hl
2a63 88        adc     a,b
2a64 0f        rrca    
2a65 88        adc     a,b
2a66 0f        rrca    
2a67 88        adc     a,b
2a68 0f        rrca    
2a69 88        adc     a,b
2a6a ee80      xor     80h
2a6c ca00ca    jp      z,0ca00h
2a6f 00        nop     
2a70 ca00ca    jp      z,0ca00h
2a73 00        nop     
2a74 ca00ca    jp      z,0ca00h
2a77 00        nop     
2a78 c2000c    jp      nz,0c00h
2a7b 00        nop     
2a7c 00        nop     
2a7d 00        nop     
2a7e 00        nop     
2a7f 00        nop     
2a80 c0        ret     nz

2a81 00        nop     
2a82 fe00      cp      00h
2a84 cf        rst     08h
2a85 00        nop     
2a86 6f        ld      l,a
2a87 03        inc     bc
2a88 83        add     a,e
2a89 7f        ld      a,a
2a8a 3f        ccf     
2a8b d9        exx     
2a8c ecb8ee    call    pe,0eeb8h
2a8f f0        ret     p

2a90 70        ld      (hl),b
2a91 f0        ret     p

2a92 f0        ret     p

2a93 e0        ret     po

2a94 f0        ret     p

2a95 00        nop     
2a96 c0        ret     nz

2a97 00        nop     
2a98 00        nop     
2a99 00        nop     
2a9a 00        nop     
2a9b 00        nop     
2a9c 00        nop     
2a9d 00        nop     
2a9e 00        nop     
2a9f 00        nop     
2aa0 00        nop     
2aa1 00        nop     
2aa2 00        nop     
2aa3 00        nop     
2aa4 00        nop     
2aa5 00        nop     
2aa6 00        nop     
2aa7 00        nop     
2aa8 00        nop     
2aa9 00        nop     
2aaa 00        nop     
2aab 00        nop     
2aac 00        nop     
2aad 00        nop     
2aae 00        nop     
2aaf 00        nop     
2ab0 00        nop     
2ab1 00        nop     
2ab2 00        nop     
2ab3 00        nop     
2ab4 00        nop     
2ab5 00        nop     
2ab6 00        nop     
2ab7 00        nop     
2ab8 00        nop     
2ab9 00        nop     
2aba 00        nop     
2abb 00        nop     
2abc 00        nop     
2abd 00        nop     
2abe 00        nop     
2abf 00        nop     
2ac0 31ca13    ld      sp,13cah
2ac3 ea3f44    jp      pe,443fh
2ac6 ec88b2    call    pe,0b288h
2ac9 00        nop     
2aca 70        ld      (hl),b
2acb 00        nop     
2acc e0        ret     po

2acd 00        nop     
2ace c0        ret     nz

2acf 00        nop     
2ad0 80        add     a,b
2ad1 00        nop     
2ad2 00        nop     
2ad3 00        nop     
2ad4 00        nop     
2ad5 00        nop     
2ad6 00        nop     
2ad7 00        nop     
2ad8 00        nop     
2ad9 00        nop     
2ada 00        nop     
2adb 00        nop     
2adc 00        nop     
2add 00        nop     
2ade 00        nop     
2adf 00        nop     
2ae0 00        nop     
2ae1 00        nop     
2ae2 00        nop     
2ae3 00        nop     
2ae4 00        nop     
2ae5 00        nop     
2ae6 00        nop     
2ae7 00        nop     
2ae8 00        nop     
2ae9 00        nop     
2aea 00        nop     
2aeb 00        nop     
2aec 00        nop     
2aed 00        nop     
2aee 00        nop     
2aef 00        nop     
2af0 00        nop     
2af1 00        nop     
2af2 00        nop     
2af3 00        nop     
2af4 00        nop     
2af5 00        nop     
2af6 00        nop     
2af7 00        nop     
2af8 00        nop     
2af9 00        nop     
2afa 00        nop     
2afb 00        nop     
2afc 00        nop     
2afd 00        nop     
2afe 00        nop     
2aff 00        nop     
2b00 00        nop     
2b01 00        nop     
2b02 00        nop     
2b03 00        nop     
2b04 00        nop     
2b05 00        nop     
2b06 00        nop     
2b07 00        nop     
2b08 00        nop     
2b09 00        nop     
2b0a 00        nop     
2b0b 00        nop     
2b0c 00        nop     
2b0d 00        nop     
2b0e 00        nop     
2b0f 00        nop     
2b10 00        nop     
2b11 00        nop     
2b12 00        nop     
2b13 00        nop     
2b14 00        nop     
2b15 00        nop     
2b16 00        nop     
2b17 00        nop     
2b18 00        nop     
2b19 00        nop     
2b1a 00        nop     
2b1b 00        nop     
2b1c 00        nop     
2b1d 00        nop     
2b1e 00        nop     
2b1f 00        nop     
2b20 00        nop     
2b21 00        nop     
2b22 00        nop     
2b23 00        nop     
2b24 00        nop     
2b25 00        nop     
2b26 00        nop     
2b27 00        nop     
2b28 00        nop     
2b29 00        nop     
2b2a 00        nop     
2b2b 00        nop     
2b2c 00        nop     
2b2d 00        nop     
2b2e 00        nop     
2b2f 00        nop     
2b30 00        nop     
2b31 00        nop     
2b32 00        nop     
2b33 00        nop     
2b34 00        nop     
2b35 00        nop     
2b36 00        nop     
2b37 00        nop     
2b38 00        nop     
2b39 00        nop     
2b3a 00        nop     
2b3b 00        nop     
2b3c 00        nop     
2b3d 00        nop     
2b3e 00        nop     
2b3f 00        nop     
2b40 00        nop     
2b41 00        nop     
2b42 00        nop     
2b43 00        nop     
2b44 00        nop     
2b45 00        nop     
2b46 00        nop     
2b47 00        nop     
2b48 00        nop     
2b49 00        nop     
2b4a 00        nop     
2b4b 00        nop     
2b4c 00        nop     
2b4d 00        nop     
2b4e 00        nop     
2b4f 00        nop     
2b50 00        nop     
2b51 00        nop     
2b52 00        nop     
2b53 00        nop     
2b54 00        nop     
2b55 00        nop     
2b56 00        nop     
2b57 00        nop     
2b58 00        nop     
2b59 00        nop     
2b5a 00        nop     
2b5b 00        nop     
2b5c 00        nop     
2b5d 00        nop     
2b5e 00        nop     
2b5f 00        nop     
2b60 00        nop     
2b61 00        nop     
2b62 00        nop     
2b63 00        nop     
2b64 00        nop     
2b65 00        nop     
2b66 00        nop     
2b67 00        nop     
2b68 00        nop     
2b69 00        nop     
2b6a 00        nop     
2b6b 00        nop     
2b6c 00        nop     
2b6d 00        nop     
2b6e 00        nop     
2b6f 00        nop     
2b70 00        nop     
2b71 00        nop     
2b72 00        nop     
2b73 00        nop     
2b74 00        nop     
2b75 00        nop     
2b76 00        nop     
2b77 00        nop     
2b78 00        nop     
2b79 00        nop     
2b7a 00        nop     
2b7b 00        nop     
2b7c 00        nop     
2b7d 00        nop     
2b7e 00        nop     
2b7f 00        nop     
2b80 00        nop     
2b81 00        nop     
2b82 00        nop     
2b83 00        nop     
2b84 00        nop     
2b85 00        nop     
2b86 00        nop     
2b87 00        nop     
2b88 00        nop     
2b89 00        nop     
2b8a 00        nop     
2b8b 00        nop     
2b8c 00        nop     
2b8d 00        nop     
2b8e 00        nop     
2b8f 00        nop     
2b90 00        nop     
2b91 00        nop     
2b92 00        nop     
2b93 00        nop     
2b94 00        nop     
2b95 00        nop     
2b96 00        nop     
2b97 00        nop     
2b98 00        nop     
2b99 00        nop     
2b9a 00        nop     
2b9b 00        nop     
2b9c 00        nop     
2b9d 00        nop     
2b9e 00        nop     
2b9f 00        nop     
2ba0 00        nop     
2ba1 00        nop     
2ba2 00        nop     
2ba3 00        nop     
2ba4 00        nop     
2ba5 00        nop     
2ba6 00        nop     
2ba7 00        nop     
2ba8 00        nop     
2ba9 00        nop     
2baa 00        nop     
2bab 00        nop     
2bac 00        nop     
2bad 00        nop     
2bae 00        nop     
2baf 00        nop     
2bb0 00        nop     
2bb1 00        nop     
2bb2 00        nop     
2bb3 00        nop     
2bb4 00        nop     
2bb5 00        nop     
2bb6 00        nop     
2bb7 00        nop     
2bb8 00        nop     
2bb9 00        nop     
2bba 00        nop     
2bbb 00        nop     
2bbc 00        nop     
2bbd 00        nop     
2bbe 00        nop     
2bbf 00        nop     
2bc0 7b        ld      a,e
2bc1 ff        rst     38h
2bc2 7b        ld      a,e
2bc3 ff        rst     38h
2bc4 7b        ld      a,e
2bc5 ff        rst     38h
2bc6 7b        ld      a,e
2bc7 ff        rst     38h
2bc8 7b        ld      a,e
2bc9 ff        rst     38h
2bca 7b        ld      a,e
2bcb ff        rst     38h
2bcc 7b        ld      a,e
2bcd ff        rst     38h
2bce 7b        ld      a,e
2bcf ff        rst     38h
2bd0 7b        ld      a,e
2bd1 ff        rst     38h
2bd2 78        ld      a,b
2bd3 f0        ret     p

2bd4 0f        rrca    
2bd5 0f        rrca    
2bd6 00        nop     
2bd7 00        nop     
2bd8 00        nop     
2bd9 00        nop     
2bda 00        nop     
2bdb 00        nop     
2bdc 00        nop     
2bdd 00        nop     
2bde 00        nop     
2bdf 00        nop     
2be0 00        nop     
2be1 00        nop     
2be2 00        nop     
2be3 00        nop     
2be4 00        nop     
2be5 00        nop     
2be6 00        nop     
2be7 00        nop     
2be8 00        nop     
2be9 00        nop     
2bea 00        nop     
2beb 00        nop     
2bec 00        nop     
2bed 00        nop     
2bee 00        nop     
2bef 00        nop     
2bf0 00        nop     
2bf1 00        nop     
2bf2 00        nop     
2bf3 00        nop     
2bf4 00        nop     
2bf5 00        nop     
2bf6 00        nop     
2bf7 00        nop     
2bf8 00        nop     
2bf9 00        nop     
2bfa 00        nop     
2bfb 00        nop     
2bfc 00        nop     
2bfd 00        nop     
2bfe 00        nop     
2bff 00        nop     
2c00 00        nop     
2c01 00        nop     
2c02 00        nop     
2c03 00        nop     
2c04 00        nop     
2c05 00        nop     
2c06 00        nop     
2c07 00        nop     
2c08 00        nop     
2c09 00        nop     
2c0a 00        nop     
2c0b 00        nop     
2c0c 00        nop     
2c0d 00        nop     
2c0e 00        nop     
2c0f 00        nop     
2c10 00        nop     
2c11 00        nop     
2c12 00        nop     
2c13 00        nop     
2c14 00        nop     
2c15 00        nop     
2c16 00        nop     
2c17 00        nop     
2c18 00        nop     
2c19 00        nop     
2c1a 00        nop     
2c1b 00        nop     
2c1c 00        nop     
2c1d 00        nop     
2c1e 00        nop     
2c1f 00        nop     
2c20 00        nop     
2c21 00        nop     
2c22 00        nop     
2c23 00        nop     
2c24 00        nop     
2c25 00        nop     
2c26 00        nop     
2c27 00        nop     
2c28 00        nop     
2c29 00        nop     
2c2a 00        nop     
2c2b 00        nop     
2c2c 00        nop     
2c2d 00        nop     
2c2e 00        nop     
2c2f 00        nop     
2c30 00        nop     
2c31 00        nop     
2c32 00        nop     
2c33 00        nop     
2c34 00        nop     
2c35 00        nop     
2c36 00        nop     
2c37 00        nop     
2c38 00        nop     
2c39 00        nop     
2c3a 00        nop     
2c3b 00        nop     
2c3c 00        nop     
2c3d 00        nop     
2c3e 00        nop     
2c3f 00        nop     
2c40 00        nop     
2c41 010012    ld      bc,1200h
2c44 00        nop     
2c45 35        dec     (hl)
2c46 00        nop     
2c47 7b        ld      a,e
2c48 00        nop     
2c49 7b        ld      a,e
2c4a 00        nop     
2c4b 35        dec     (hl)
2c4c 00        nop     
2c4d 12        ld      (de),a
2c4e 00        nop     
2c4f 010000    ld      bc,0000h
2c52 00        nop     
2c53 00        nop     
2c54 00        nop     
2c55 00        nop     
2c56 00        nop     
2c57 00        nop     
2c58 00        nop     
2c59 00        nop     
2c5a 00        nop     
2c5b 00        nop     
2c5c 00        nop     
2c5d 00        nop     
2c5e 00        nop     
2c5f 00        nop     
2c60 00        nop     
2c61 00        nop     
2c62 00        nop     
2c63 00        nop     
2c64 00        nop     
2c65 00        nop     
2c66 00        nop     
2c67 00        nop     
2c68 00        nop     
2c69 00        nop     
2c6a 00        nop     
2c6b 00        nop     
2c6c 00        nop     
2c6d 00        nop     
2c6e 00        nop     
2c6f 00        nop     
2c70 00        nop     
2c71 00        nop     
2c72 00        nop     
2c73 00        nop     
2c74 00        nop     
2c75 00        nop     
2c76 00        nop     
2c77 00        nop     
2c78 00        nop     
2c79 00        nop     
2c7a 00        nop     
2c7b 00        nop     
2c7c 00        nop     
2c7d 00        nop     
2c7e 00        nop     
2c7f 00        nop     
2c80 ca0aed    jp      z,0ed0ah
2c83 05        dec     b
2c84 fe0a      cp      0ah
2c86 ff        rst     38h
2c87 c9        ret     

2c88 ff        rst     38h
2c89 76        halt    
2c8a ff        rst     38h
2c8b fdf7      rst     30h
2c8d ff        rst     38h
2c8e 7b        ld      a,e
2c8f ff        rst     38h
2c90 34        inc     (hl)
2c91 ff        rst     38h
2c92 03        inc     bc
2c93 f3        di      
2c94 00        nop     
2c95 3c        inc     a
2c96 00        nop     
2c97 03        inc     bc
2c98 00        nop     
2c99 00        nop     
2c9a 00        nop     
2c9b 00        nop     
2c9c 00        nop     
2c9d 00        nop     
2c9e 00        nop     
2c9f 00        nop     
2ca0 00        nop     
2ca1 00        nop     
2ca2 00        nop     
2ca3 00        nop     
2ca4 00        nop     
2ca5 00        nop     
2ca6 00        nop     
2ca7 00        nop     
2ca8 00        nop     
2ca9 00        nop     
2caa 00        nop     
2cab 00        nop     
2cac 00        nop     
2cad 00        nop     
2cae 00        nop     
2caf 00        nop     
2cb0 00        nop     
2cb1 00        nop     
2cb2 00        nop     
2cb3 00        nop     
2cb4 00        nop     
2cb5 00        nop     
2cb6 00        nop     
2cb7 00        nop     
2cb8 00        nop     
2cb9 00        nop     
2cba 00        nop     
2cbb 00        nop     
2cbc 00        nop     
2cbd 00        nop     
2cbe 00        nop     
2cbf 00        nop     
2cc0 0a        ld      a,(bc)
2cc1 b7        or      a
2cc2 05        dec     b
2cc3 b7        or      a
2cc4 0a        ld      a,(bc)
2cc5 b7        or      a
2cc6 05        dec     b
2cc7 b7        or      a
2cc8 0a        ld      a,(bc)
2cc9 b7        or      a
2cca edb7      db      0edh, 0b7h       ; Undocumented 8 T-State NOP
2ccc 3ab7ef    ld      a,(0efb7h)
2ccf e1        pop     hl
2cd0 ff        rst     38h
2cd1 ff        rst     38h
2cd2 ff        rst     38h
2cd3 ff        rst     38h
2cd4 ff        rst     38h
2cd5 ff        rst     38h
2cd6 f7        rst     30h
2cd7 ff        rst     38h
2cd8 7b        ld      a,e
2cd9 ff        rst     38h
2cda 7b        ld      a,e
2cdb ff        rst     38h
2cdc 7b        ld      a,e
2cdd ff        rst     38h
2cde 7b        ld      a,e
2cdf ff        rst     38h
2ce0 7b        ld      a,e
2ce1 ff        rst     38h
2ce2 7b        ld      a,e
2ce3 ff        rst     38h
2ce4 7b        ld      a,e
2ce5 ff        rst     38h
2ce6 7b        ld      a,e
2ce7 ff        rst     38h
2ce8 7b        ld      a,e
2ce9 ff        rst     38h
2cea 7b        ld      a,e
2ceb ff        rst     38h
2cec 7b        ld      a,e
2ced ff        rst     38h
2cee 7b        ld      a,e
2cef ff        rst     38h
2cf0 7b        ld      a,e
2cf1 ff        rst     38h
2cf2 7b        ld      a,e
2cf3 ff        rst     38h
2cf4 7b        ld      a,e
2cf5 ff        rst     38h
2cf6 7b        ld      a,e
2cf7 ff        rst     38h
2cf8 7b        ld      a,e
2cf9 ff        rst     38h
2cfa 7b        ld      a,e
2cfb ff        rst     38h
2cfc 7b        ld      a,e
2cfd ff        rst     38h
2cfe 7b        ld      a,e
2cff ff        rst     38h
2d00 00        nop     
2d01 00        nop     
2d02 00        nop     
2d03 00        nop     
2d04 00        nop     
2d05 00        nop     
2d06 ee40      xor     40h
2d08 0f        rrca    
2d09 ff        rst     38h
2d0a 0f        rrca    
2d0b 0f        rrca    
2d0c 0f        rrca    
2d0d 0f        rrca    
2d0e f0        ret     p

2d0f 0f        rrca    
2d10 e1        pop     hl
2d11 8f        adc     a,a
2d12 e1        pop     hl
2d13 e9        jp      (hl)
2d14 0f        rrca    
2d15 0f        rrca    
2d16 0f        rrca    
2d17 0f        rrca    
2d18 0f        rrca    
2d19 0f        rrca    
2d1a 0f        rrca    
2d1b 0f        rrca    
2d1c f0        ret     p

2d1d f0        ret     p

2d1e f0        ret     p

2d1f f0        ret     p

2d20 f0        ret     p

2d21 f0        ret     p

2d22 f0        ret     p

2d23 f0        ret     p

2d24 f0        ret     p

2d25 f0        ret     p

2d26 f0        ret     p

2d27 f0        ret     p

2d28 f0        ret     p

2d29 f0        ret     p

2d2a f0        ret     p

2d2b f0        ret     p

2d2c f0        ret     p

2d2d f0        ret     p

2d2e d2b40f    jp      nc,0fb4h
2d31 5a        ld      e,d
2d32 0f        rrca    
2d33 3c        inc     a
2d34 c30f0f    jp      0f0fh
2d37 0f        rrca    
2d38 0f        rrca    
2d39 0f        rrca    
2d3a 0f        rrca    
2d3b 0f        rrca    
2d3c 0f        rrca    
2d3d 0f        rrca    
2d3e 0f        rrca    
2d3f 0f        rrca    
2d40 00        nop     
2d41 00        nop     
2d42 00        nop     
2d43 00        nop     
2d44 00        nop     
2d45 00        nop     
2d46 00        nop     
2d47 00        nop     
2d48 2000      jr      nz,2d4ah
2d4a 7f        ld      a,a
2d4b 98        sbc     a,b
2d4c 0f        rrca    
2d4d 3f        ccf     
2d4e 0f        rrca    
2d4f 0f        rrca    
2d50 c32ff0    jp      0f02fh
2d53 e1        pop     hl
2d54 f0        ret     p

2d55 e1        pop     hl
2d56 78        ld      a,b
2d57 d278b4    jp      nc,0b478h
2d5a f0        ret     p

2d5b b4        or      h
2d5c f0        ret     p

2d5d c2f0c2    jp      nz,0c2f0h
2d60 f0        ret     p

2d61 d3f0      out     (0f0h),a
2d63 d3f0      out     (0f0h),a
2d65 d3f0      out     (0f0h),a
2d67 d3f0      out     (0f0h),a
2d69 d3f0      out     (0f0h),a
2d6b d3f0      out     (0f0h),a
2d6d d30f      out     (0fh),a
2d6f 1f        rra     
2d70 5a        ld      e,d
2d71 1f        rra     
2d72 f0        ret     p

2d73 d3f0      out     (0f0h),a
2d75 d33c      out     (3ch),a
2d77 d30f      out     (0fh),a
2d79 d30f      out     (0fh),a
2d7b 1f        rra     
2d7c 0f        rrca    
2d7d 1f        rra     
2d7e 0f        rrca    
2d7f 1f        rra     
2d80 00        nop     
2d81 00        nop     
2d82 00        nop     
2d83 00        nop     
2d84 00        nop     
2d85 00        nop     
2d86 00        nop     
2d87 00        nop     
2d88 00        nop     
2d89 00        nop     
2d8a 00        nop     
2d8b 00        nop     
2d8c ee40      xor     40h
2d8e 0f        rrca    
2d8f ff        rst     38h
2d90 0f        rrca    
2d91 0f        rrca    
2d92 0f        rrca    
2d93 0f        rrca    
2d94 0f        rrca    
2d95 0f        rrca    
2d96 6f        ld      l,a
2d97 0f        rrca    
2d98 09        add     hl,bc
2d99 0f        rrca    
2d9a 8f        adc     a,a
2d9b 0f        rrca    
2d9c bc        cp      h
2d9d f0        ret     p

2d9e bc        cp      h
2d9f f0        ret     p

2da0 78        ld      a,b
2da1 f0        ret     p

2da2 78        ld      a,b
2da3 f0        ret     p

2da4 78        ld      a,b
2da5 f0        ret     p

2da6 78        ld      a,b
2da7 f0        ret     p

2da8 78        ld      a,b
2da9 f0        ret     p

2daa 78        ld      a,b
2dab f0        ret     p

2dac 78        ld      a,b
2dad f0        ret     p

2dae 78        ld      a,b
2daf f0        ret     p

2db0 78        ld      a,b
2db1 f0        ret     p

2db2 78        ld      a,b
2db3 f0        ret     p

2db4 78        ld      a,b
2db5 f0        ret     p

2db6 78        ld      a,b
2db7 f0        ret     p

2db8 78        ld      a,b
2db9 f0        ret     p

2dba 78        ld      a,b
2dbb f0        ret     p

2dbc 0f        rrca    
2dbd 0f        rrca    
2dbe 0f        rrca    
2dbf 0f        rrca    
2dc0 00        nop     
2dc1 00        nop     
2dc2 00        nop     
2dc3 00        nop     
2dc4 00        nop     
2dc5 00        nop     
2dc6 00        nop     
2dc7 00        nop     
2dc8 00        nop     
2dc9 00        nop     
2dca 00        nop     
2dcb 00        nop     
2dcc 00        nop     
2dcd 00        nop     
2dce 98        sbc     a,b
2dcf 00        nop     
2dd0 3f        ccf     
2dd1 ee0f      xor     0fh
2dd3 0f        rrca    
2dd4 0f        rrca    
2dd5 0f        rrca    
2dd6 4b        ld      c,e
2dd7 0f        rrca    
2dd8 78        ld      a,b
2dd9 f0        ret     p

2dda f0        ret     p

2ddb f0        ret     p

2ddc f0        ret     p

2ddd f0        ret     p

2dde f0        ret     p

2ddf f0        ret     p

2de0 f0        ret     p

2de1 f0        ret     p

2de2 f0        ret     p

2de3 f0        ret     p

2de4 f0        ret     p

2de5 f0        ret     p

2de6 f0        ret     p

2de7 f0        ret     p

2de8 f0        ret     p

2de9 f0        ret     p

2dea f0        ret     p

2deb f0        ret     p

2dec f0        ret     p

2ded f0        ret     p

2dee f0        ret     p

2def f0        ret     p

2df0 f0        ret     p

2df1 f0        ret     p

2df2 f0        ret     p

2df3 f0        ret     p

2df4 f0        ret     p

2df5 f0        ret     p

2df6 f0        ret     p

2df7 f0        ret     p

2df8 f0        ret     p

2df9 f0        ret     p

2dfa f0        ret     p

2dfb f0        ret     p

2dfc 0f        rrca    
2dfd 0f        rrca    
2dfe 0f        rrca    
2dff 0f        rrca    
2e00 0f        rrca    
2e01 0f        rrca    
2e02 0f        rrca    
2e03 0f        rrca    
2e04 0f        rrca    
2e05 0f        rrca    
2e06 0f        rrca    
2e07 0f        rrca    
2e08 0f        rrca    
2e09 0f        rrca    
2e0a c30f0f    jp      0f0fh
2e0d 3c        inc     a
2e0e 0f        rrca    
2e0f 5a        ld      e,d
2e10 d2b4f0    jp      nc,0f0b4h
2e13 f0        ret     p

2e14 f0        ret     p

2e15 f0        ret     p

2e16 f0        ret     p

2e17 f0        ret     p

2e18 f0        ret     p

2e19 f0        ret     p

2e1a f0        ret     p

2e1b f0        ret     p

2e1c f0        ret     p

2e1d f0        ret     p

2e1e f0        ret     p

2e1f f0        ret     p

2e20 f0        ret     p

2e21 f0        ret     p

2e22 f0        ret     p

2e23 f0        ret     p

2e24 0f        rrca    
2e25 0f        rrca    
2e26 0f        rrca    
2e27 0f        rrca    
2e28 0f        rrca    
2e29 0f        rrca    
2e2a 0f        rrca    
2e2b 0f        rrca    
2e2c e1        pop     hl
2e2d e9        jp      (hl)
2e2e e1        pop     hl
2e2f 8f        adc     a,a
2e30 f0        ret     p

2e31 87        add     a,a
2e32 0f        rrca    
2e33 0f        rrca    
2e34 0f        rrca    
2e35 0f        rrca    
2e36 0f        rrca    
2e37 ff        rst     38h
2e38 ee73      xor     73h
2e3a ff        rst     38h
2e3b ff        rst     38h
2e3c ff        rst     38h
2e3d ff        rst     38h
2e3e ff        rst     38h
2e3f ff        rst     38h
2e40 0f        rrca    
2e41 1f        rra     
2e42 0f        rrca    
2e43 1f        rra     
2e44 0f        rrca    
2e45 1f        rra     
2e46 0f        rrca    
2e47 d33c      out     (3ch),a
2e49 d3f0      out     (0f0h),a
2e4b d3f0      out     (0f0h),a
2e4d d35a      out     (5ah),a
2e4f 1f        rra     
2e50 0f        rrca    
2e51 1f        rra     
2e52 f0        ret     p

2e53 d3f0      out     (0f0h),a
2e55 d3f0      out     (0f0h),a
2e57 d3f0      out     (0f0h),a
2e59 d3f0      out     (0f0h),a
2e5b d3f0      out     (0f0h),a
2e5d d3f0      out     (0f0h),a
2e5f d3f0      out     (0f0h),a
2e61 c2f0c2    jp      nz,0c2f0h
2e64 f0        ret     p

2e65 b4        or      h
2e66 78        ld      a,b
2e67 b4        or      h
2e68 78        ld      a,b
2e69 d2f0e1    jp      nc,0e1f0h
2e6c f0        ret     p

2e6d c3f0a7    jp      0a7f0h
2e70 0f        rrca    
2e71 0f        rrca    
2e72 0f        rrca    
2e73 3f        ccf     
2e74 7f        ld      a,a
2e75 98        sbc     a,b
2e76 31ffff    ld      sp,0ffffh
2e79 ff        rst     38h
2e7a ff        rst     38h
2e7b ff        rst     38h
2e7c ff        rst     38h
2e7d ff        rst     38h
2e7e ff        rst     38h
2e7f ff        rst     38h
2e80 0f        rrca    
2e81 0f        rrca    
2e82 0f        rrca    
2e83 0f        rrca    
2e84 78        ld      a,b
2e85 f0        ret     p

2e86 78        ld      a,b
2e87 f0        ret     p

2e88 78        ld      a,b
2e89 f0        ret     p

2e8a 78        ld      a,b
2e8b f0        ret     p

2e8c 78        ld      a,b
2e8d f0        ret     p

2e8e 78        ld      a,b
2e8f f0        ret     p

2e90 78        ld      a,b
2e91 f0        ret     p

2e92 78        ld      a,b
2e93 f0        ret     p

2e94 78        ld      a,b
2e95 f0        ret     p

2e96 78        ld      a,b
2e97 f0        ret     p

2e98 78        ld      a,b
2e99 f0        ret     p

2e9a 78        ld      a,b
2e9b f0        ret     p

2e9c 78        ld      a,b
2e9d f0        ret     p

2e9e 69        ld      l,c
2e9f 78        ld      a,b
2ea0 c2bc86    jp      nz,86bch
2ea3 bc        cp      h
2ea4 78        ld      a,b
2ea5 8f        adc     a,a
2ea6 69        ld      l,c
2ea7 01a5ef    ld      bc,0efa5h
2eaa c30f0f    jp      0f0fh
2ead 0f        rrca    
2eae 0f        rrca    
2eaf 0f        rrca    
2eb0 0f        rrca    
2eb1 ff        rst     38h
2eb2 ee73      xor     73h
2eb4 ff        rst     38h
2eb5 ff        rst     38h
2eb6 ff        rst     38h
2eb7 ff        rst     38h
2eb8 ff        rst     38h
2eb9 ff        rst     38h
2eba ff        rst     38h
2ebb ff        rst     38h
2ebc ff        rst     38h
2ebd ff        rst     38h
2ebe fef0      cp      0f0h
2ec0 0f        rrca    
2ec1 0f        rrca    
2ec2 0f        rrca    
2ec3 0f        rrca    
2ec4 f0        ret     p

2ec5 f0        ret     p

2ec6 f0        ret     p

2ec7 f0        ret     p

2ec8 f0        ret     p

2ec9 f0        ret     p

2eca f0        ret     p

2ecb f0        ret     p

2ecc f0        ret     p

2ecd f0        ret     p

2ece f0        ret     p

2ecf f0        ret     p

2ed0 f0        ret     p

2ed1 f0        ret     p

2ed2 f0        ret     p

2ed3 f0        ret     p

2ed4 f0        ret     p

2ed5 f0        ret     p

2ed6 f0        ret     p

2ed7 f0        ret     p

2ed8 f0        ret     p

2ed9 f0        ret     p

2eda f0        ret     p

2edb f0        ret     p

2edc f0        ret     p

2edd f0        ret     p

2ede f0        ret     p

2edf f0        ret     p

2ee0 f0        ret     p

2ee1 f0        ret     p

2ee2 f0        ret     p

2ee3 f0        ret     p

2ee4 f0        ret     p

2ee5 f0        ret     p

2ee6 78        ld      a,b
2ee7 f0        ret     p

2ee8 0f        rrca    
2ee9 0f        rrca    
2eea 0f        rrca    
2eeb 0f        rrca    
2eec 0f        rrca    
2eed 0f        rrca    
2eee 3f        ccf     
2eef ee98      xor     98h
2ef1 ff        rst     38h
2ef2 ff        rst     38h
2ef3 ff        rst     38h
2ef4 ff        rst     38h
2ef5 ff        rst     38h
2ef6 ff        rst     38h
2ef7 ff        rst     38h
2ef8 ff        rst     38h
2ef9 ff        rst     38h
2efa ff        rst     38h
2efb fef8      cp      0f8h
2efd e1        pop     hl
2efe 87        add     a,a
2eff 0eff      ld      c,0ffh
2f01 ff        rst     38h
2f02 ff        rst     38h
2f03 ff        rst     38h
2f04 fef0      cp      0f0h
2f06 e1        pop     hl
2f07 0f        rrca    
2f08 0e00      ld      c,00h
2f0a 00        nop     
2f0b 00        nop     
2f0c 00        nop     
2f0d 00        nop     
2f0e 00        nop     
2f0f 00        nop     
2f10 00        nop     
2f11 00        nop     
2f12 00        nop     
2f13 00        nop     
2f14 00        nop     
2f15 00        nop     
2f16 00        nop     
2f17 00        nop     
2f18 00        nop     
2f19 00        nop     
2f1a 00        nop     
2f1b 00        nop     
2f1c 00        nop     
2f1d 00        nop     
2f1e 00        nop     
2f1f 00        nop     
2f20 00        nop     
2f21 00        nop     
2f22 00        nop     
2f23 00        nop     
2f24 00        nop     
2f25 00        nop     
2f26 00        nop     
2f27 00        nop     
2f28 00        nop     
2f29 00        nop     
2f2a 00        nop     
2f2b 00        nop     
2f2c 00        nop     
2f2d 00        nop     
2f2e 00        nop     
2f2f 00        nop     
2f30 00        nop     
2f31 00        nop     
2f32 00        nop     
2f33 00        nop     
2f34 00        nop     
2f35 00        nop     
2f36 00        nop     
2f37 00        nop     
2f38 00        nop     
2f39 00        nop     
2f3a 00        nop     
2f3b 00        nop     
2f3c 00        nop     
2f3d 00        nop     
2f3e 00        nop     
2f3f 00        nop     
2f40 ff        rst     38h
2f41 f8        ret     m

2f42 f0        ret     p

2f43 87        add     a,a
2f44 0f        rrca    
2f45 08        ex      af,af'
2f46 00        nop     
2f47 00        nop     
2f48 00        nop     
2f49 00        nop     
2f4a 00        nop     
2f4b 00        nop     
2f4c 00        nop     
2f4d 00        nop     
2f4e 00        nop     
2f4f 00        nop     
2f50 00        nop     
2f51 00        nop     
2f52 00        nop     
2f53 00        nop     
2f54 00        nop     
2f55 00        nop     
2f56 00        nop     
2f57 00        nop     
2f58 00        nop     
2f59 00        nop     
2f5a 00        nop     
2f5b 00        nop     
2f5c 00        nop     
2f5d 00        nop     
2f5e 00        nop     
2f5f 00        nop     
2f60 00        nop     
2f61 00        nop     
2f62 00        nop     
2f63 00        nop     
2f64 00        nop     
2f65 00        nop     
2f66 00        nop     
2f67 00        nop     
2f68 00        nop     
2f69 00        nop     
2f6a 00        nop     
2f6b 00        nop     
2f6c 00        nop     
2f6d 00        nop     
2f6e 00        nop     
2f6f 00        nop     
2f70 00        nop     
2f71 00        nop     
2f72 00        nop     
2f73 00        nop     
2f74 00        nop     
2f75 00        nop     
2f76 00        nop     
2f77 00        nop     
2f78 00        nop     
2f79 00        nop     
2f7a 00        nop     
2f7b 00        nop     
2f7c 00        nop     
2f7d 00        nop     
2f7e 00        nop     
2f7f 00        nop     
2f80 e1        pop     hl
2f81 0f        rrca    
2f82 0e00      ld      c,00h
2f84 00        nop     
2f85 00        nop     
2f86 00        nop     
2f87 00        nop     
2f88 00        nop     
2f89 00        nop     
2f8a 00        nop     
2f8b 00        nop     
2f8c 00        nop     
2f8d 00        nop     
2f8e 00        nop     
2f8f 00        nop     
2f90 00        nop     
2f91 00        nop     
2f92 00        nop     
2f93 00        nop     
2f94 00        nop     
2f95 00        nop     
2f96 00        nop     
2f97 00        nop     
2f98 00        nop     
2f99 00        nop     
2f9a 00        nop     
2f9b 00        nop     
2f9c 00        nop     
2f9d 00        nop     
2f9e 00        nop     
2f9f 00        nop     
2fa0 00        nop     
2fa1 00        nop     
2fa2 00        nop     
2fa3 00        nop     
2fa4 00        nop     
2fa5 00        nop     
2fa6 00        nop     
2fa7 00        nop     
2fa8 00        nop     
2fa9 00        nop     
2faa 00        nop     
2fab 00        nop     
2fac 00        nop     
2fad 00        nop     
2fae 00        nop     
2faf 00        nop     
2fb0 00        nop     
2fb1 00        nop     
2fb2 00        nop     
2fb3 00        nop     
2fb4 00        nop     
2fb5 00        nop     
2fb6 00        nop     
2fb7 00        nop     
2fb8 00        nop     
2fb9 00        nop     
2fba 00        nop     
2fbb 00        nop     
2fbc 00        nop     
2fbd 00        nop     
2fbe 00        nop     
2fbf 00        nop     
2fc0 08        ex      af,af'
2fc1 00        nop     
2fc2 00        nop     
2fc3 00        nop     
2fc4 00        nop     
2fc5 00        nop     
2fc6 00        nop     
2fc7 00        nop     
2fc8 00        nop     
2fc9 00        nop     
2fca 00        nop     
2fcb 00        nop     
2fcc 00        nop     
2fcd 00        nop     
2fce 00        nop     
2fcf 00        nop     
2fd0 00        nop     
2fd1 00        nop     
2fd2 00        nop     
2fd3 00        nop     
2fd4 00        nop     
2fd5 00        nop     
2fd6 00        nop     
2fd7 00        nop     
2fd8 00        nop     
2fd9 00        nop     
2fda 00        nop     
2fdb 00        nop     
2fdc 00        nop     
2fdd 00        nop     
2fde 00        nop     
2fdf 00        nop     
2fe0 00        nop     
2fe1 00        nop     
2fe2 00        nop     
2fe3 00        nop     
2fe4 00        nop     
2fe5 00        nop     
2fe6 00        nop     
2fe7 00        nop     
2fe8 00        nop     
2fe9 00        nop     
2fea 00        nop     
2feb 00        nop     
2fec 00        nop     
2fed 00        nop     
2fee 00        nop     
2fef 00        nop     
2ff0 00        nop     
2ff1 00        nop     
2ff2 00        nop     
2ff3 00        nop     
2ff4 00        nop     
2ff5 00        nop     
2ff6 00        nop     
2ff7 00        nop     
2ff8 00        nop     
2ff9 00        nop     
2ffa 00        nop     
2ffb 00        nop     
2ffc 00        nop     
2ffd 00        nop     
2ffe 00        nop     
2fff 00        nop     
3000 00        nop     
3001 00        nop     
3002 00        nop     
3003 00        nop     
3004 00        nop     
3005 00        nop     
3006 00        nop     
3007 00        nop     
3008 00        nop     
3009 00        nop     
300a 00        nop     
300b 00        nop     
300c 00        nop     
300d 00        nop     
300e 00        nop     
300f 00        nop     
3010 00        nop     
3011 00        nop     
3012 00        nop     
3013 00        nop     
3014 00        nop     
3015 00        nop     
3016 00        nop     
3017 00        nop     
3018 00        nop     
3019 00        nop     
301a 00        nop     
301b 00        nop     
301c 00        nop     
301d 00        nop     
301e 00        nop     
301f 00        nop     
3020 00        nop     
3021 00        nop     
3022 00        nop     
3023 00        nop     
3024 00        nop     
3025 00        nop     
3026 00        nop     
3027 00        nop     
3028 00        nop     
3029 00        nop     
302a 00        nop     
302b 00        nop     
302c 00        nop     
302d 00        nop     
302e 00        nop     
302f 00        nop     
3030 00        nop     
3031 00        nop     
3032 c0        ret     nz

3033 00        nop     
3034 ec006c    call    pe,6c00h
3037 00        nop     
3038 ce00      adc     a,00h
303a 2000      jr      nz,303ch
303c 7f        ld      a,a
303d cc0f1f    call    z,1f0fh
3040 00        nop     
3041 00        nop     
3042 00        nop     
3043 00        nop     
3044 00        nop     
3045 00        nop     
3046 00        nop     
3047 00        nop     
3048 00        nop     
3049 00        nop     
304a 00        nop     
304b 00        nop     
304c 00        nop     
304d 00        nop     
304e 00        nop     
304f 00        nop     
3050 00        nop     
3051 00        nop     
3052 00        nop     
3053 00        nop     
3054 00        nop     
3055 00        nop     
3056 00        nop     
3057 00        nop     
3058 00        nop     
3059 00        nop     
305a 00        nop     
305b 00        nop     
305c 00        nop     
305d 00        nop     
305e 00        nop     
305f 00        nop     
3060 00        nop     
3061 00        nop     
3062 00        nop     
3063 00        nop     
3064 00        nop     
3065 00        nop     
3066 00        nop     
3067 00        nop     
3068 00        nop     
3069 00        nop     
306a 00        nop     
306b 00        nop     
306c 00        nop     
306d 00        nop     
306e 00        nop     
306f 00        nop     
3070 00        nop     
3071 00        nop     
3072 00        nop     
3073 00        nop     
3074 00        nop     
3075 00        nop     
3076 00        nop     
3077 0f        rrca    
3078 01ee01    ld      bc,01eeh
307b 1f        rra     
307c 91        sub     c
307d 0f        rrca    
307e ff        rst     38h
307f 210000    ld      hl,0000h
3082 00        nop     
3083 00        nop     
3084 00        nop     
3085 00        nop     
3086 00        nop     
3087 00        nop     
3088 00        nop     
3089 00        nop     
308a 00        nop     
308b 00        nop     
308c 00        nop     
308d 00        nop     
308e 00        nop     
308f 00        nop     
3090 00        nop     
3091 00        nop     
3092 00        nop     
3093 00        nop     
3094 00        nop     
3095 00        nop     
3096 00        nop     
3097 00        nop     
3098 00        nop     
3099 00        nop     
309a 00        nop     
309b 00        nop     
309c 00        nop     
309d 00        nop     
309e 00        nop     
309f 00        nop     
30a0 00        nop     
30a1 00        nop     
30a2 00        nop     
30a3 00        nop     
30a4 00        nop     
30a5 00        nop     
30a6 00        nop     
30a7 00        nop     
30a8 00        nop     
30a9 00        nop     
30aa 00        nop     
30ab 00        nop     
30ac 00        nop     
30ad 00        nop     
30ae 00        nop     
30af 00        nop     
30b0 00        nop     
30b1 00        nop     
30b2 00        nop     
30b3 00        nop     
30b4 00        nop     
30b5 00        nop     
30b6 c8        ret     z

30b7 00        nop     
30b8 78        ld      a,b
30b9 00        nop     
30ba ff        rst     38h
30bb 80        add     a,b
30bc 1f        rra     
30bd 80        add     a,b
30be ff        rst     38h
30bf 08        ex      af,af'
30c0 00        nop     
30c1 00        nop     
30c2 00        nop     
30c3 00        nop     
30c4 00        nop     
30c5 00        nop     
30c6 00        nop     
30c7 00        nop     
30c8 00        nop     
30c9 00        nop     
30ca 00        nop     
30cb 00        nop     
30cc 00        nop     
30cd 00        nop     
30ce 00        nop     
30cf 00        nop     
30d0 00        nop     
30d1 00        nop     
30d2 00        nop     
30d3 00        nop     
30d4 00        nop     
30d5 00        nop     
30d6 00        nop     
30d7 00        nop     
30d8 00        nop     
30d9 00        nop     
30da 00        nop     
30db 00        nop     
30dc 00        nop     
30dd 00        nop     
30de 00        nop     
30df 00        nop     
30e0 00        nop     
30e1 00        nop     
30e2 00        nop     
30e3 00        nop     
30e4 00        nop     
30e5 00        nop     
30e6 00        nop     
30e7 00        nop     
30e8 00        nop     
30e9 00        nop     
30ea 00        nop     
30eb 00        nop     
30ec 00        nop     
30ed 00        nop     
30ee 00        nop     
30ef 00        nop     
30f0 00        nop     
30f1 00        nop     
30f2 00        nop     
30f3 00        nop     
30f4 00        nop     
30f5 00        nop     
30f6 00        nop     
30f7 00        nop     
30f8 00        nop     
30f9 00        nop     
30fa 00        nop     
30fb 00        nop     
30fc 00        nop     
30fd 00        nop     
30fe 00        nop     
30ff 00        nop     
3100 87        add     a,a
3101 0f        rrca    
3102 f0        ret     p

3103 e1        pop     hl
3104 f0        ret     p

3105 f0        ret     p

3106 f0        ret     p

3107 f0        ret     p

3108 f0        ret     p

3109 f0        ret     p

310a f0        ret     p

310b f0        ret     p

310c f0        ret     p

310d f0        ret     p

310e f0        ret     p

310f f0        ret     p

3110 f0        ret     p

3111 f0        ret     p

3112 f0        ret     p

3113 f0        ret     p

3114 f0        ret     p

3115 f0        ret     p

3116 0f        rrca    
3117 0f        rrca    
3118 0f        rrca    
3119 0f        rrca    
311a f0        ret     p

311b f0        ret     p

311c f0        ret     p

311d f0        ret     p

311e f0        ret     p

311f f0        ret     p

3120 f0        ret     p

3121 f0        ret     p

3122 f0        ret     p

3123 f0        ret     p

3124 f0        ret     p

3125 f0        ret     p

3126 f0        ret     p

3127 f0        ret     p

3128 f0        ret     p

3129 f0        ret     p

312a f0        ret     p

312b f0        ret     p

312c f0        ret     p

312d f0        ret     p

312e f0        ret     p

312f f0        ret     p

3130 f0        ret     p

3131 f0        ret     p

3132 f0        ret     p

3133 f0        ret     p

3134 f0        ret     p

3135 f0        ret     p

3136 f0        ret     p

3137 f0        ret     p

3138 f0        ret     p

3139 f0        ret     p

313a f0        ret     p

313b f0        ret     p

313c f0        ret     p

313d f0        ret     p

313e 0f        rrca    
313f 0f        rrca    
3140 0f        rrca    
3141 7f        ld      a,a
3142 0f        rrca    
3143 0f        rrca    
3144 f0        ret     p

3145 c3f0f0    jp      0f0f0h
3148 f0        ret     p

3149 f0        ret     p

314a f0        ret     p

314b f0        ret     p

314c f0        ret     p

314d f0        ret     p

314e f0        ret     p

314f f0        ret     p

3150 f0        ret     p

3151 f0        ret     p

3152 f0        ret     p

3153 f0        ret     p

3154 f0        ret     p

3155 f0        ret     p

3156 f0        ret     p

3157 f0        ret     p

3158 f0        ret     p

3159 f0        ret     p

315a f0        ret     p

315b f0        ret     p

315c f0        ret     p

315d f0        ret     p

315e f0        ret     p

315f f0        ret     p

3160 f0        ret     p

3161 f0        ret     p

3162 f0        ret     p

3163 f0        ret     p

3164 f0        ret     p

3165 f0        ret     p

3166 f0        ret     p

3167 f0        ret     p

3168 f0        ret     p

3169 f0        ret     p

316a f0        ret     p

316b f0        ret     p

316c f0        ret     p

316d f0        ret     p

316e f0        ret     p

316f f0        ret     p

3170 78        ld      a,b
3171 f0        ret     p

3172 f0        ret     p

3173 f0        ret     p

3174 f0        ret     p

3175 f0        ret     p

3176 f0        ret     p

3177 f0        ret     p

3178 f0        ret     p

3179 f0        ret     p

317a f0        ret     p

317b f0        ret     p

317c f0        ret     p

317d f0        ret     p

317e 0f        rrca    
317f 0f        rrca    
3180 cc801f    call    z,1f80h
3183 ff        rst     38h
3184 0f        rrca    
3185 0f        rrca    
3186 e1        pop     hl
3187 0f        rrca    
3188 f0        ret     p

3189 f0        ret     p

318a f0        ret     p

318b f0        ret     p

318c f0        ret     p

318d f0        ret     p

318e f0        ret     p

318f f0        ret     p

3190 f0        ret     p

3191 f0        ret     p

3192 f0        ret     p

3193 f0        ret     p

3194 f0        ret     p

3195 f0        ret     p

3196 0f        rrca    
3197 0f        rrca    
3198 0f        rrca    
3199 0f        rrca    
319a f0        ret     p

319b f0        ret     p

319c f0        ret     p

319d f0        ret     p

319e f0        ret     p

319f f0        ret     p

31a0 f0        ret     p

31a1 f0        ret     p

31a2 f0        ret     p

31a3 f0        ret     p

31a4 f0        ret     p

31a5 f0        ret     p

31a6 f0        ret     p

31a7 f0        ret     p

31a8 f0        ret     p

31a9 f0        ret     p

31aa f0        ret     p

31ab f0        ret     p

31ac f0        ret     p

31ad f0        ret     p

31ae f0        ret     p

31af f0        ret     p

31b0 f0        ret     p

31b1 f0        ret     p

31b2 f0        ret     p

31b3 0f        rrca    
31b4 f0        ret     p

31b5 f0        ret     p

31b6 f0        ret     p

31b7 f0        ret     p

31b8 f0        ret     p

31b9 f0        ret     p

31ba f0        ret     p

31bb f0        ret     p

31bc f0        ret     p

31bd f0        ret     p

31be 0f        rrca    
31bf 0f        rrca    
31c0 00        nop     
31c1 00        nop     
31c2 2000      jr      nz,31c4h
31c4 7f        ld      a,a
31c5 cc0f1f    call    z,1f0fh
31c8 87        add     a,a
31c9 0f        rrca    
31ca f0        ret     p

31cb e1        pop     hl
31cc f0        ret     p

31cd f0        ret     p

31ce f0        ret     p

31cf f0        ret     p

31d0 f0        ret     p

31d1 f0        ret     p

31d2 f0        ret     p

31d3 f0        ret     p

31d4 f0        ret     p

31d5 f0        ret     p

31d6 f0        ret     p

31d7 f0        ret     p

31d8 f0        ret     p

31d9 f0        ret     p

31da f0        ret     p

31db f0        ret     p

31dc f0        ret     p

31dd f0        ret     p

31de f0        ret     p

31df f0        ret     p

31e0 f0        ret     p

31e1 f0        ret     p

31e2 f0        ret     p

31e3 f0        ret     p

31e4 f0        ret     p

31e5 f0        ret     p

31e6 f0        ret     p

31e7 f0        ret     p

31e8 3c        inc     a
31e9 f0        ret     p

31ea c3f0f0    jp      0f0f0h
31ed 3c        inc     a
31ee f0        ret     p

31ef c3f0f0    jp      0f0f0h
31f2 f0        ret     p

31f3 f0        ret     p

31f4 0f        rrca    
31f5 f0        ret     p

31f6 f0        ret     p

31f7 0f        rrca    
31f8 f0        ret     p

31f9 f0        ret     p

31fa f0        ret     p

31fb f0        ret     p

31fc f0        ret     p

31fd f0        ret     p

31fe 0f        rrca    
31ff 0f        rrca    
3200 0f        rrca    
3201 0f        rrca    
3202 f0        ret     p

3203 f0        ret     p

3204 f0        ret     p

3205 f0        ret     p

3206 f0        ret     p

3207 f0        ret     p

3208 f0        ret     p

3209 f0        ret     p

320a f0        ret     p

320b f0        ret     p

320c f0        ret     p

320d f0        ret     p

320e f0        ret     p

320f f0        ret     p

3210 f0        ret     p

3211 f0        ret     p

3212 f0        ret     p

3213 f0        ret     p

3214 f0        ret     p

3215 f0        ret     p

3216 f0        ret     p

3217 f0        ret     p

3218 f0        ret     p

3219 f0        ret     p

321a f0        ret     p

321b f0        ret     p

321c f0        ret     p

321d f0        ret     p

321e f0        ret     p

321f f0        ret     p

3220 f0        ret     p

3221 f0        ret     p

3222 f0        ret     p

3223 f0        ret     p

3224 f0        ret     p

3225 f0        ret     p

3226 0f        rrca    
3227 0f        rrca    
3228 0f        rrca    
3229 0f        rrca    
322a f0        ret     p

322b f0        ret     p

322c f0        ret     p

322d f0        ret     p

322e f0        ret     p

322f f0        ret     p

3230 f0        ret     p

3231 f0        ret     p

3232 f0        ret     p

3233 f0        ret     p

3234 f0        ret     p

3235 f0        ret     p

3236 f0        ret     p

3237 f0        ret     p

3238 f0        ret     p

3239 f0        ret     p

323a f0        ret     p

323b f0        ret     p

323c f0        ret     p

323d e1        pop     hl
323e 87        add     a,a
323f 0f        rrca    
3240 0f        rrca    
3241 0f        rrca    
3242 f0        ret     p

3243 f0        ret     p

3244 f0        ret     p

3245 f0        ret     p

3246 f0        ret     p

3247 f0        ret     p

3248 f0        ret     p

3249 f0        ret     p

324a f0        ret     p

324b f0        ret     p

324c f0        ret     p

324d f0        ret     p

324e 78        ld      a,b
324f f0        ret     p

3250 f0        ret     p

3251 f0        ret     p

3252 f0        ret     p

3253 f0        ret     p

3254 f0        ret     p

3255 f0        ret     p

3256 f0        ret     p

3257 f0        ret     p

3258 f0        ret     p

3259 f0        ret     p

325a f0        ret     p

325b f0        ret     p

325c f0        ret     p

325d f0        ret     p

325e f0        ret     p

325f f0        ret     p

3260 f0        ret     p

3261 f0        ret     p

3262 f0        ret     p

3263 f0        ret     p

3264 f0        ret     p

3265 f0        ret     p

3266 f0        ret     p

3267 f0        ret     p

3268 f0        ret     p

3269 f0        ret     p

326a f0        ret     p

326b f0        ret     p

326c f0        ret     p

326d f0        ret     p

326e f0        ret     p

326f f0        ret     p

3270 f0        ret     p

3271 f0        ret     p

3272 f0        ret     p

3273 f0        ret     p

3274 f0        ret     p

3275 f0        ret     p

3276 f0        ret     p

3277 f0        ret     p

3278 f0        ret     p

3279 f0        ret     p

327a f0        ret     p

327b c30f0f    jp      0f0fh
327e 0f        rrca    
327f 7f        ld      a,a
3280 0f        rrca    
3281 0f        rrca    
3282 f0        ret     p

3283 f0        ret     p

3284 f0        ret     p

3285 f0        ret     p

3286 f0        ret     p

3287 f0        ret     p

3288 f0        ret     p

3289 f0        ret     p

328a f0        ret     p

328b f0        ret     p

328c f0        ret     p

328d 0f        rrca    
328e f0        ret     p

328f f0        ret     p

3290 f0        ret     p

3291 f0        ret     p

3292 f0        ret     p

3293 f0        ret     p

3294 f0        ret     p

3295 f0        ret     p

3296 f0        ret     p

3297 f0        ret     p

3298 f0        ret     p

3299 f0        ret     p

329a f0        ret     p

329b f0        ret     p

329c f0        ret     p

329d f0        ret     p

329e f0        ret     p

329f f0        ret     p

32a0 f0        ret     p

32a1 f0        ret     p

32a2 f0        ret     p

32a3 f0        ret     p

32a4 f0        ret     p

32a5 f0        ret     p

32a6 0f        rrca    
32a7 0f        rrca    
32a8 0f        rrca    
32a9 0f        rrca    
32aa f0        ret     p

32ab f0        ret     p

32ac f0        ret     p

32ad f0        ret     p

32ae f0        ret     p

32af f0        ret     p

32b0 f0        ret     p

32b1 f0        ret     p

32b2 f0        ret     p

32b3 f0        ret     p

32b4 f0        ret     p

32b5 f0        ret     p

32b6 f0        ret     p

32b7 f0        ret     p

32b8 e1        pop     hl
32b9 0f        rrca    
32ba 0f        rrca    
32bb 0f        rrca    
32bc 1f        rra     
32bd ff        rst     38h
32be ccf70f    call    z,0ff7h
32c1 0f        rrca    
32c2 f0        ret     p

32c3 f0        ret     p

32c4 f0        ret     p

32c5 f0        ret     p

32c6 f0        ret     p

32c7 f0        ret     p

32c8 f0        ret     p

32c9 0f        rrca    
32ca 0f        rrca    
32cb f0        ret     p

32cc f0        ret     p

32cd f0        ret     p

32ce f0        ret     p

32cf f0        ret     p

32d0 f0        ret     p

32d1 c3f03c    jp      3cf0h
32d4 c3f03c    jp      3cf0h
32d7 f0        ret     p

32d8 f0        ret     p

32d9 f0        ret     p

32da f0        ret     p

32db f0        ret     p

32dc f0        ret     p

32dd f0        ret     p

32de f0        ret     p

32df f0        ret     p

32e0 f0        ret     p

32e1 f0        ret     p

32e2 f0        ret     p

32e3 f0        ret     p

32e4 f0        ret     p

32e5 f0        ret     p

32e6 f0        ret     p

32e7 f0        ret     p

32e8 f0        ret     p

32e9 f0        ret     p

32ea f0        ret     p

32eb f0        ret     p

32ec f0        ret     p

32ed f0        ret     p

32ee f0        ret     p

32ef f0        ret     p

32f0 f0        ret     p

32f1 f0        ret     p

32f2 f0        ret     p

32f3 f0        ret     p

32f4 f0        ret     p

32f5 e1        pop     hl
32f6 87        add     a,a
32f7 0f        rrca    
32f8 0f        rrca    
32f9 1f        rra     
32fa 7f        ld      a,a
32fb cc31ff    call    z,0ff31h
32fe ff        rst     38h
32ff ff        rst     38h
3300 0f        rrca    
3301 1f        rra     
3302 7f        ld      a,a
3303 cc31ff    call    z,0ff31h
3306 bb        cp      e
3307 ff        rst     38h
3308 bb        cp      e
3309 ff        rst     38h
330a ff        rst     38h
330b ff        rst     38h
330c ff        rst     38h
330d ff        rst     38h
330e ff        rst     38h
330f ff        rst     38h
3310 f0        ret     p

3311 f0        ret     p

3312 0f        rrca    
3313 0f        rrca    
3314 00        nop     
3315 00        nop     
3316 00        nop     
3317 00        nop     
3318 00        nop     
3319 00        nop     
331a 00        nop     
331b 00        nop     
331c 00        nop     
331d 00        nop     
331e 00        nop     
331f 00        nop     
3320 00        nop     
3321 00        nop     
3322 00        nop     
3323 00        nop     
3324 00        nop     
3325 00        nop     
3326 00        nop     
3327 00        nop     
3328 00        nop     
3329 00        nop     
332a 00        nop     
332b 00        nop     
332c 00        nop     
332d 00        nop     
332e 00        nop     
332f 00        nop     
3330 00        nop     
3331 00        nop     
3332 00        nop     
3333 00        nop     
3334 00        nop     
3335 00        nop     
3336 00        nop     
3337 00        nop     
3338 00        nop     
3339 00        nop     
333a 00        nop     
333b 00        nop     
333c 00        nop     
333d 00        nop     
333e 00        nop     
333f 00        nop     
3340 ff        rst     38h
3341 21e60f    ld      hl,0fe6h
3344 eeff      xor     0ffh
3346 ff        rst     38h
3347 deff      sbc     a,0ffh
3349 ff        rst     38h
334a ff        rst     38h
334b ff        rst     38h
334c ff        rst     38h
334d ff        rst     38h
334e ff        rst     38h
334f ff        rst     38h
3350 ff        rst     38h
3351 ff        rst     38h
3352 f7        rst     30h
3353 ff        rst     38h
3354 7b        ld      a,e
3355 fe78      cp      78h
3357 e1        pop     hl
3358 07        rlca    
3359 0e00      ld      c,00h
335b 00        nop     
335c 00        nop     
335d 00        nop     
335e 00        nop     
335f 00        nop     
3360 00        nop     
3361 00        nop     
3362 00        nop     
3363 00        nop     
3364 00        nop     
3365 00        nop     
3366 00        nop     
3367 00        nop     
3368 00        nop     
3369 00        nop     
336a 00        nop     
336b 00        nop     
336c 00        nop     
336d 00        nop     
336e 00        nop     
336f 00        nop     
3370 00        nop     
3371 00        nop     
3372 00        nop     
3373 00        nop     
3374 00        nop     
3375 00        nop     
3376 00        nop     
3377 00        nop     
3378 00        nop     
3379 00        nop     
337a 00        nop     
337b 00        nop     
337c 00        nop     
337d 00        nop     
337e 00        nop     
337f 00        nop     
3380 ff        rst     38h
3381 77        ld      (hl),a
3382 1f        rra     
3383 77        ld      (hl),a
3384 ff        rst     38h
3385 ff        rst     38h
3386 ff        rst     38h
3387 ff        rst     38h
3388 73        ld      (hl),e
3389 ff        rst     38h
338a fcf0cb    call    m,0cbf0h
338d 0f        rrca    
338e 84        add     a,h
338f 00        nop     
3390 84        add     a,h
3391 00        nop     
3392 84        add     a,h
3393 00        nop     
3394 84        add     a,h
3395 00        nop     
3396 08        ex      af,af'
3397 00        nop     
3398 00        nop     
3399 00        nop     
339a 00        nop     
339b 00        nop     
339c 00        nop     
339d 00        nop     
339e 00        nop     
339f 00        nop     
33a0 00        nop     
33a1 00        nop     
33a2 00        nop     
33a3 00        nop     
33a4 00        nop     
33a5 00        nop     
33a6 00        nop     
33a7 00        nop     
33a8 00        nop     
33a9 00        nop     
33aa 00        nop     
33ab 00        nop     
33ac 00        nop     
33ad 00        nop     
33ae 00        nop     
33af 00        nop     
33b0 00        nop     
33b1 00        nop     
33b2 00        nop     
33b3 00        nop     
33b4 00        nop     
33b5 00        nop     
33b6 00        nop     
33b7 00        nop     
33b8 00        nop     
33b9 00        nop     
33ba 00        nop     
33bb 00        nop     
33bc 00        nop     
33bd 00        nop     
33be 00        nop     
33bf 00        nop     
33c0 ff        rst     38h
33c1 ff        rst     38h
33c2 ff        rst     38h
33c3 ff        rst     38h
33c4 ff        rst     38h
33c5 ff        rst     38h
33c6 ff        rst     38h
33c7 fcf0c3    call    m,0c3f0h
33ca 0f        rrca    
33cb 0c        inc     c
33cc 00        nop     
33cd 00        nop     
33ce 00        nop     
33cf 00        nop     
33d0 00        nop     
33d1 00        nop     
33d2 00        nop     
33d3 00        nop     
33d4 00        nop     
33d5 00        nop     
33d6 00        nop     
33d7 00        nop     
33d8 00        nop     
33d9 00        nop     
33da 00        nop     
33db 00        nop     
33dc 00        nop     
33dd 00        nop     
33de 00        nop     
33df 00        nop     
33e0 00        nop     
33e1 00        nop     
33e2 00        nop     
33e3 00        nop     
33e4 00        nop     
33e5 00        nop     
33e6 00        nop     
33e7 00        nop     
33e8 00        nop     
33e9 00        nop     
33ea 00        nop     
33eb 00        nop     
33ec 00        nop     
33ed 00        nop     
33ee 00        nop     
33ef 00        nop     
33f0 00        nop     
33f1 00        nop     
33f2 00        nop     
33f3 00        nop     
33f4 00        nop     
33f5 00        nop     
33f6 00        nop     
33f7 00        nop     
33f8 00        nop     
33f9 00        nop     
33fa 00        nop     
33fb 00        nop     
33fc 00        nop     
33fd 00        nop     
33fe 00        nop     
33ff 00        nop     
3400 00        nop     
3401 00        nop     
3402 00        nop     
3403 00        nop     
3404 00        nop     
3405 00        nop     
3406 00        nop     
3407 00        nop     
3408 00        nop     
3409 00        nop     
340a 00        nop     
340b 00        nop     
340c 00        nop     
340d 00        nop     
340e 00        nop     
340f 00        nop     
3410 00        nop     
3411 00        nop     
3412 00        nop     
3413 00        nop     
3414 00        nop     
3415 00        nop     
3416 00        nop     
3417 00        nop     
3418 c0        ret     nz

3419 00        nop     
341a 6c        ld      l,h
341b 00        nop     
341c f20071    jp      p,7100h
341f 80        add     a,b
3420 b1        or      c
3421 80        add     a,b
3422 b9        cp      c
3423 80        add     a,b
3424 3180b1    ld      sp,0b180h
3427 e0        ret     po

3428 61        ld      h,c
3429 fef0      cp      0f0h
342b 3ef0      ld      a,0f0h
342d a7        and     a
342e 0f        rrca    
342f 0f        rrca    
3430 c0        ret     nz

3431 63        ld      h,e
3432 0f        rrca    
3433 0f        rrca    
3434 ff        rst     38h
3435 ff        rst     38h
3436 0f        rrca    
3437 0f        rrca    
3438 0f        rrca    
3439 0f        rrca    
343a f0        ret     p

343b f0        ret     p

343c f0        ret     p

343d f0        ret     p

343e f0        ret     p

343f f0        ret     p

3440 00        nop     
3441 00        nop     
3442 00        nop     
3443 00        nop     
3444 00        nop     
3445 00        nop     
3446 00        nop     
3447 00        nop     
3448 00        nop     
3449 00        nop     
344a 00        nop     
344b 00        nop     
344c 00        nop     
344d 00        nop     
344e 00        nop     
344f 00        nop     
3450 00        nop     
3451 00        nop     
3452 00        nop     
3453 00        nop     
3454 00        nop     
3455 00        nop     
3456 00        nop     
3457 00        nop     
3458 00        nop     
3459 00        nop     
345a 00        nop     
345b 00        nop     
345c 00        nop     
345d 00        nop     
345e 00        nop     
345f 00        nop     
3460 00        nop     
3461 00        nop     
3462 00        nop     
3463 00        nop     
3464 00        nop     
3465 00        nop     
3466 00        nop     
3467 00        nop     
3468 00        nop     
3469 00        nop     
346a 00        nop     
346b 00        nop     
346c 00        nop     
346d 00        nop     
346e 00        nop     
346f 00        nop     
3470 00        nop     
3471 00        nop     
3472 00        nop     
3473 00        nop     
3474 88        adc     a,b
3475 00        nop     
3476 3f        ccf     
3477 ff        rst     38h
3478 0f        rrca    
3479 0f        rrca    
347a e1        pop     hl
347b 0f        rrca    
347c f0        ret     p

347d f0        ret     p

347e f0        ret     p

347f f0        ret     p

3480 00        nop     
3481 00        nop     
3482 00        nop     
3483 00        nop     
3484 00        nop     
3485 00        nop     
3486 00        nop     
3487 00        nop     
3488 00        nop     
3489 00        nop     
348a 00        nop     
348b 00        nop     
348c 00        nop     
348d 00        nop     
348e 00        nop     
348f 00        nop     
3490 00        nop     
3491 00        nop     
3492 00        nop     
3493 00        nop     
3494 00        nop     
3495 00        nop     
3496 00        nop     
3497 00        nop     
3498 00        nop     
3499 00        nop     
349a 00        nop     
349b 00        nop     
349c 00        nop     
349d 00        nop     
349e 00        nop     
349f 00        nop     
34a0 00        nop     
34a1 00        nop     
34a2 00        nop     
34a3 00        nop     
34a4 00        nop     
34a5 00        nop     
34a6 00        nop     
34a7 00        nop     
34a8 00        nop     
34a9 00        nop     
34aa 00        nop     
34ab 00        nop     
34ac 00        nop     
34ad 00        nop     
34ae 00        nop     
34af 00        nop     
34b0 00        nop     
34b1 00        nop     
34b2 00        nop     
34b3 00        nop     
34b4 00        nop     
34b5 00        nop     
34b6 cc001f    call    z,1f00h
34b9 ff        rst     38h
34ba 0f        rrca    
34bb 0f        rrca    
34bc c30ff0    jp      0f00fh
34bf f0        ret     p

34c0 00        nop     
34c1 00        nop     
34c2 00        nop     
34c3 00        nop     
34c4 00        nop     
34c5 00        nop     
34c6 00        nop     
34c7 00        nop     
34c8 00        nop     
34c9 00        nop     
34ca 00        nop     
34cb 00        nop     
34cc 00        nop     
34cd 00        nop     
34ce 00        nop     
34cf 00        nop     
34d0 00        nop     
34d1 00        nop     
34d2 00        nop     
34d3 00        nop     
34d4 00        nop     
34d5 00        nop     
34d6 00        nop     
34d7 00        nop     
34d8 00        nop     
34d9 00        nop     
34da 00        nop     
34db 00        nop     
34dc 00        nop     
34dd 00        nop     
34de 00        nop     
34df 00        nop     
34e0 00        nop     
34e1 00        nop     
34e2 00        nop     
34e3 00        nop     
34e4 00        nop     
34e5 00        nop     
34e6 00        nop     
34e7 00        nop     
34e8 00        nop     
34e9 00        nop     
34ea 00        nop     
34eb 00        nop     
34ec 00        nop     
34ed 00        nop     
34ee 00        nop     
34ef 00        nop     
34f0 03        inc     bc
34f1 3e37      ld      a,37h
34f3 d607      sub     07h
34f5 3f        ccf     
34f6 77        ld      (hl),a
34f7 8f        adc     a,a
34f8 ccf71f    call    z,1ff7h
34fb ff        rst     38h
34fc 0f        rrca    
34fd 0f        rrca    
34fe c30ff0    jp      0f00fh
3501 f0        ret     p

3502 f0        ret     p

3503 f0        ret     p

3504 f0        ret     p

3505 f0        ret     p

3506 f0        ret     p

3507 f0        ret     p

3508 f0        ret     p

3509 f0        ret     p

350a f0        ret     p

350b f0        ret     p

350c f0        ret     p

350d f0        ret     p

350e f0        ret     p

350f f0        ret     p

3510 f0        ret     p

3511 f0        ret     p

3512 f0        ret     p

3513 f0        ret     p

3514 f0        ret     p

3515 f0        ret     p

3516 0f        rrca    
3517 0f        rrca    
3518 0f        rrca    
3519 0f        rrca    
351a 0f        rrca    
351b 0f        rrca    
351c 0f        rrca    
351d 0f        rrca    
351e ff        rst     38h
351f ff        rst     38h
3520 ff        rst     38h
3521 ff        rst     38h
3522 ff        rst     38h
3523 7f        ld      a,a
3524 ef        rst     28h
3525 b7        or      a
3526 cf        rst     08h
3527 e1        pop     hl
3528 fe61      cp      61h
352a fef4      cp      0f4h
352c 47        ld      b,a
352d 8f        adc     a,a
352e 67        ld      h,a
352f 4f        ld      c,a
3530 ddff      rst     38h
3532 ff        rst     38h
3533 ff        rst     38h
3534 ff        rst     38h
3535 ff        rst     38h
3536 ff        rst     38h
3537 ff        rst     38h
3538 99        sbc     a,c
3539 77        ld      (hl),a
353a 55        ld      d,l
353b ef        rst     28h
353c c0        ret     nz

353d df        rst     18h
353e f3        di      
353f ddf0      ret     p

3541 f0        ret     p

3542 f0        ret     p

3543 f0        ret     p

3544 f0        ret     p

3545 f0        ret     p

3546 f0        ret     p

3547 f0        ret     p

3548 f0        ret     p

3549 f0        ret     p

354a f0        ret     p

354b f0        ret     p

354c f0        ret     p

354d f0        ret     p

354e f0        ret     p

354f f0        ret     p

3550 f0        ret     p

3551 f0        ret     p

3552 f0        ret     p

3553 f0        ret     p

3554 f0        ret     p

3555 f0        ret     p

3556 3c        inc     a
3557 f1        pop     af
3558 3c        inc     a
3559 f1        pop     af
355a 0f        rrca    
355b 3d        dec     a
355c 0f        rrca    
355d 5b        ld      e,e
355e ff        rst     38h
355f bf        cp      a
3560 ff        rst     38h
3561 bf        cp      a
3562 ff        rst     38h
3563 bf        cp      a
3564 ff        rst     38h
3565 bf        cp      a
3566 7f        ld      a,a
3567 bf        cp      a
3568 77        ld      (hl),a
3569 bf        cp      a
356a 33        inc     sp
356b bf        cp      a
356c 77        ld      (hl),a
356d bf        cp      a
356e ff        rst     38h
356f bf        cp      a
3570 fb        ei      
3571 bf        cp      a
3572 9b        sbc     a,e
3573 bf        cp      a
3574 9b        sbc     a,e
3575 bf        cp      a
3576 9b        sbc     a,e
3577 bf        cp      a
3578 5b        ld      e,e
3579 bf        cp      a
357a 53        ld      d,e
357b bf        cp      a
357c d3bf      out     (0bfh),a
357e 53        ld      d,e
357f bf        cp      a
3580 f0        ret     p

3581 f0        ret     p

3582 f0        ret     p

3583 f0        ret     p

3584 f0        ret     p

3585 f0        ret     p

3586 f0        ret     p

3587 f0        ret     p

3588 f0        ret     p

3589 f0        ret     p

358a f0        ret     p

358b f0        ret     p

358c f0        ret     p

358d f0        ret     p

358e f0        ret     p

358f f0        ret     p

3590 f0        ret     p

3591 f0        ret     p

3592 f0        ret     p

3593 f0        ret     p

3594 f0        ret     p

3595 f0        ret     p

3596 fe0f      cp      0fh
3598 ef        rst     28h
3599 8f        adc     a,a
359a 1ef8      ld      e,0f8h
359c f0        ret     p

359d f8        ret     m

359e ef        rst     28h
359f f8        ret     m

35a0 1ef8      ld      e,0f8h
35a2 f0        ret     p

35a3 f8        ret     m

35a4 ef        rst     28h
35a5 f8        ret     m

35a6 1ef8      ld      e,0f8h
35a8 f0        ret     p

35a9 f8        ret     m

35aa ef        rst     28h
35ab f8        ret     m

35ac 1ef8      ld      e,0f8h
35ae f0        ret     p

35af f8        ret     m

35b0 ef        rst     28h
35b1 f8        ret     m

35b2 1ef8      ld      e,0f8h
35b4 f0        ret     p

35b5 f8        ret     m

35b6 ef        rst     28h
35b7 f8        ret     m

35b8 1ef8      ld      e,0f8h
35ba f0        ret     p

35bb f8        ret     m

35bc ef        rst     28h
35bd f8        ret     m

35be 1e8f      ld      e,8fh
35c0 f0        ret     p

35c1 f0        ret     p

35c2 f0        ret     p

35c3 78        ld      a,b
35c4 f0        ret     p

35c5 f0        ret     p

35c6 f0        ret     p

35c7 70        ld      (hl),b
35c8 f0        ret     p

35c9 70        ld      (hl),b
35ca f0        ret     p

35cb 70        ld      (hl),b
35cc f0        ret     p

35cd 70        ld      (hl),b
35ce f0        ret     p

35cf 70        ld      (hl),b
35d0 f0        ret     p

35d1 70        ld      (hl),b
35d2 f0        ret     p

35d3 70        ld      (hl),b
35d4 f0        ret     p

35d5 70        ld      (hl),b
35d6 f0        ret     p

35d7 70        ld      (hl),b
35d8 f0        ret     p

35d9 70        ld      (hl),b
35da f0        ret     p

35db 70        ld      (hl),b
35dc f0        ret     p

35dd 70        ld      (hl),b
35de f0        ret     p

35df 70        ld      (hl),b
35e0 f0        ret     p

35e1 70        ld      (hl),b
35e2 f0        ret     p

35e3 70        ld      (hl),b
35e4 f0        ret     p

35e5 70        ld      (hl),b
35e6 f0        ret     p

35e7 70        ld      (hl),b
35e8 f0        ret     p

35e9 70        ld      (hl),b
35ea f0        ret     p

35eb 70        ld      (hl),b
35ec f0        ret     p

35ed 70        ld      (hl),b
35ee f0        ret     p

35ef 70        ld      (hl),b
35f0 f0        ret     p

35f1 70        ld      (hl),b
35f2 f0        ret     p

35f3 70        ld      (hl),b
35f4 f0        ret     p

35f5 70        ld      (hl),b
35f6 f0        ret     p

35f7 70        ld      (hl),b
35f8 f0        ret     p

35f9 70        ld      (hl),b
35fa f0        ret     p

35fb 70        ld      (hl),b
35fc f0        ret     p

35fd 70        ld      (hl),b
35fe 0f        rrca    
35ff 0f        rrca    
3600 0f        rrca    
3601 0f        rrca    
3602 f0        ret     p

3603 f0        ret     p

3604 f0        ret     p

3605 f0        ret     p

3606 f0        ret     p

3607 f0        ret     p

3608 f0        ret     p

3609 f0        ret     p

360a f0        ret     p

360b f0        ret     p

360c f0        ret     p

360d f0        ret     p

360e f0        ret     p

360f f0        ret     p

3610 f0        ret     p

3611 f0        ret     p

3612 f0        ret     p

3613 f0        ret     p

3614 f0        ret     p

3615 f0        ret     p

3616 f0        ret     p

3617 f0        ret     p

3618 f0        ret     p

3619 f0        ret     p

361a f0        ret     p

361b f0        ret     p

361c f0        ret     p

361d f0        ret     p

361e f0        ret     p

361f f0        ret     p

3620 f0        ret     p

3621 f0        ret     p

3622 f0        ret     p

3623 f0        ret     p

3624 f0        ret     p

3625 f0        ret     p

3626 f0        ret     p

3627 f0        ret     p

3628 f0        ret     p

3629 f0        ret     p

362a f0        ret     p

362b f0        ret     p

362c f0        ret     p

362d f0        ret     p

362e f0        ret     p

362f f0        ret     p

3630 f0        ret     p

3631 f0        ret     p

3632 f0        ret     p

3633 f0        ret     p

3634 f0        ret     p

3635 f0        ret     p

3636 f0        ret     p

3637 f0        ret     p

3638 f0        ret     p

3639 f0        ret     p

363a f0        ret     p

363b f0        ret     p

363c f0        ret     p

363d f0        ret     p

363e f0        ret     p

363f f0        ret     p

3640 0f        rrca    
3641 0f        rrca    
3642 f0        ret     p

3643 f0        ret     p

3644 f0        ret     p

3645 f0        ret     p

3646 f0        ret     p

3647 f0        ret     p

3648 f0        ret     p

3649 f0        ret     p

364a f0        ret     p

364b f0        ret     p

364c f0        ret     p

364d f0        ret     p

364e f0        ret     p

364f f0        ret     p

3650 f0        ret     p

3651 f0        ret     p

3652 f0        ret     p

3653 f0        ret     p

3654 f0        ret     p

3655 f0        ret     p

3656 f0        ret     p

3657 f0        ret     p

3658 f0        ret     p

3659 f0        ret     p

365a f0        ret     p

365b f0        ret     p

365c f0        ret     p

365d f0        ret     p

365e f0        ret     p

365f f0        ret     p

3660 f0        ret     p

3661 f0        ret     p

3662 f0        ret     p

3663 f0        ret     p

3664 f0        ret     p

3665 f0        ret     p

3666 f0        ret     p

3667 f0        ret     p

3668 f0        ret     p

3669 f0        ret     p

366a f0        ret     p

366b f0        ret     p

366c f0        ret     p

366d f0        ret     p

366e f0        ret     p

366f f0        ret     p

3670 f0        ret     p

3671 f0        ret     p

3672 f0        ret     p

3673 f0        ret     p

3674 f0        ret     p

3675 f0        ret     p

3676 f0        ret     p

3677 f0        ret     p

3678 f0        ret     p

3679 f0        ret     p

367a f0        ret     p

367b f0        ret     p

367c f0        ret     p

367d f0        ret     p

367e f0        ret     p

367f f0        ret     p

3680 0f        rrca    
3681 0f        rrca    
3682 f0        ret     p

3683 c3f0c3    jp      0c3f0h
3686 f0        ret     p

3687 a1        and     c
3688 f0        ret     p

3689 c5        push    bc
368a f0        ret     p

368b c4f0c4    call    nz,0c4f0h
368e f0        ret     p

368f c5        push    bc
3690 f0        ret     p

3691 c5        push    bc
3692 f0        ret     p

3693 b1        or      c
3694 f0        ret     p

3695 e3        ex      (sp),hl
3696 f0        ret     p

3697 d3f0      out     (0f0h),a
3699 f3        di      
369a f0        ret     p

369b f3        di      
369c f0        ret     p

369d f3        di      
369e f0        ret     p

369f f3        di      
36a0 f0        ret     p

36a1 c3f0c3    jp      0c3f0h
36a4 f0        ret     p

36a5 c3f0c3    jp      0c3f0h
36a8 f0        ret     p

36a9 c3f0c3    jp      0c3f0h
36ac f0        ret     p

36ad c3f0c3    jp      0c3f0h
36b0 f0        ret     p

36b1 c3f0c3    jp      0c3f0h
36b4 f0        ret     p

36b5 c3f0c3    jp      0c3f0h
36b8 f0        ret     p

36b9 c3f0c3    jp      0c3f0h
36bc f0        ret     p

36bd c3f0c3    jp      0c3f0h
36c0 0f        rrca    
36c1 07        rlca    
36c2 f0        ret     p

36c3 70        ld      (hl),b
36c4 f670      or      70h
36c6 96        sub     (hl)
36c7 70        ld      (hl),b
36c8 f8        ret     m

36c9 70        ld      (hl),b
36ca f8        ret     m

36cb 70        ld      (hl),b
36cc 90        sub     b
36cd 70        ld      (hl),b
36ce f0        ret     p

36cf 70        ld      (hl),b
36d0 f0        ret     p

36d1 f0        ret     p

36d2 f0        ret     p

36d3 70        ld      (hl),b
36d4 f0        ret     p

36d5 f0        ret     p

36d6 f0        ret     p

36d7 70        ld      (hl),b
36d8 f0        ret     p

36d9 f0        ret     p

36da f0        ret     p

36db f0        ret     p

36dc f0        ret     p

36dd f0        ret     p

36de f0        ret     p

36df f0        ret     p

36e0 f0        ret     p

36e1 70        ld      (hl),b
36e2 f0        ret     p

36e3 70        ld      (hl),b
36e4 f0        ret     p

36e5 70        ld      (hl),b
36e6 f0        ret     p

36e7 70        ld      (hl),b
36e8 f0        ret     p

36e9 70        ld      (hl),b
36ea 0f        rrca    
36eb 07        rlca    
36ec 0f        rrca    
36ed 07        rlca    
36ee f0        ret     p

36ef 70        ld      (hl),b
36f0 f0        ret     p

36f1 70        ld      (hl),b
36f2 f0        ret     p

36f3 70        ld      (hl),b
36f4 f0        ret     p

36f5 70        ld      (hl),b
36f6 f0        ret     p

36f7 70        ld      (hl),b
36f8 f0        ret     p

36f9 70        ld      (hl),b
36fa f0        ret     p

36fb 70        ld      (hl),b
36fc f0        ret     p

36fd 70        ld      (hl),b
36fe f0        ret     p

36ff 70        ld      (hl),b
3700 f0        ret     p

3701 f0        ret     p

3702 0f        rrca    
3703 0f        rrca    
3704 0f        rrca    
3705 0f        rrca    
3706 0f        rrca    
3707 0f        rrca    
3708 ff        rst     38h
3709 ff        rst     38h
370a ff        rst     38h
370b ff        rst     38h
370c ff        rst     38h
370d ff        rst     38h
370e ff        rst     38h
370f ff        rst     38h
3710 8f        adc     a,a
3711 0f        rrca    
3712 8f        adc     a,a
3713 2d        dec     l
3714 9f        sbc     a,a
3715 edbf      db      0edh, 0bfh       ; Undocumented 8 T-State NOP
3717 edcc      db      0edh, 0cch       ; Undocumented 8 T-State NOP
3719 65        ld      h,l
371a eee9      xor     0e9h
371c bb        cp      e
371d d311      out     (11h),a
371f 0f        rrca    
3720 47        ld      b,a
3721 1f        rra     
3722 ff        rst     38h
3723 ccffc8    call    z,0c8ffh
3726 ff        rst     38h
3727 8c        adc     a,h
3728 ff        rst     38h
3729 8c        adc     a,h
372a ff        rst     38h
372b 8c        adc     a,h
372c ff        rst     38h
372d 8c        adc     a,h
372e f0        ret     p

372f 08        ex      af,af'
3730 0f        rrca    
3731 00        nop     
3732 00        nop     
3733 00        nop     
3734 00        nop     
3735 00        nop     
3736 00        nop     
3737 00        nop     
3738 00        nop     
3739 00        nop     
373a 00        nop     
373b 00        nop     
373c 00        nop     
373d 00        nop     
373e 00        nop     
373f 00        nop     
3740 f0        ret     p

3741 f0        ret     p

3742 0f        rrca    
3743 0f        rrca    
3744 0f        rrca    
3745 0f        rrca    
3746 0f        rrca    
3747 0f        rrca    
3748 ff        rst     38h
3749 ff        rst     38h
374a bb        cp      e
374b ff        rst     38h
374c bb        cp      e
374d ff        rst     38h
374e ff        rst     38h
374f ff        rst     38h
3750 ff        rst     38h
3751 ff        rst     38h
3752 ff        rst     38h
3753 ff        rst     38h
3754 bf        cp      a
3755 ff        rst     38h
3756 bc        cp      h
3757 f0        ret     p

3758 8f        adc     a,a
3759 0f        rrca    
375a 8c        adc     a,h
375b 00        nop     
375c 4c        ld      c,h
375d 00        nop     
375e 88        adc     a,b
375f 00        nop     
3760 00        nop     
3761 00        nop     
3762 00        nop     
3763 00        nop     
3764 00        nop     
3765 00        nop     
3766 00        nop     
3767 00        nop     
3768 00        nop     
3769 00        nop     
376a 00        nop     
376b 00        nop     
376c 00        nop     
376d 00        nop     
376e 00        nop     
376f 00        nop     
3770 00        nop     
3771 00        nop     
3772 00        nop     
3773 00        nop     
3774 00        nop     
3775 00        nop     
3776 00        nop     
3777 00        nop     
3778 00        nop     
3779 00        nop     
377a 00        nop     
377b 00        nop     
377c 00        nop     
377d 00        nop     
377e 00        nop     
377f 00        nop     
3780 f0        ret     p

3781 c30f0f    jp      0f0fh
3784 0f        rrca    
3785 0f        rrca    
3786 0f        rrca    
3787 7f        ld      a,a
3788 ff        rst     38h
3789 31ffff    ld      sp,0ffffh
378c ff        rst     38h
378d ff        rst     38h
378e ff        rst     38h
378f ff        rst     38h
3790 ff        rst     38h
3791 ff        rst     38h
3792 ff        rst     38h
3793 ff        rst     38h
3794 ff        rst     38h
3795 f3        di      
3796 f0        ret     p

3797 3d        dec     a
3798 0f        rrca    
3799 12        ld      (de),a
379a 00        nop     
379b 12        ld      (de),a
379c 00        nop     
379d 12        ld      (de),a
379e 00        nop     
379f 010000    ld      bc,0000h
37a2 00        nop     
37a3 00        nop     
37a4 00        nop     
37a5 00        nop     
37a6 00        nop     
37a7 00        nop     
37a8 00        nop     
37a9 00        nop     
37aa 00        nop     
37ab 00        nop     
37ac 00        nop     
37ad 00        nop     
37ae 00        nop     
37af 00        nop     
37b0 00        nop     
37b1 00        nop     
37b2 00        nop     
37b3 00        nop     
37b4 00        nop     
37b5 00        nop     
37b6 00        nop     
37b7 00        nop     
37b8 00        nop     
37b9 00        nop     
37ba 00        nop     
37bb 00        nop     
37bc 00        nop     
37bd 00        nop     
37be 00        nop     
37bf 00        nop     
37c0 0f        rrca    
37c1 0f        rrca    
37c2 0f        rrca    
37c3 0f        rrca    
37c4 1f        rra     
37c5 ff        rst     38h
37c6 ccb7ab    call    z,0abb7h
37c9 0f        rrca    
37ca bb        cp      e
37cb ff        rst     38h
37cc ef        rst     28h
37cd f7        rst     30h
37ce ff        rst     38h
37cf 9b        sbc     a,e
37d0 ff        rst     38h
37d1 feff      cp      0ffh
37d3 edff      db      0edh, 0ffh       ; Undocumented 8 T-State NOP
37d5 caffca    jp      z,0caffh
37d8 ff        rst     38h
37d9 caffc2    jp      z,0c2ffh
37dc f0        ret     p

37dd 0c        inc     c
37de 0f        rrca    
37df 00        nop     
37e0 00        nop     
37e1 00        nop     
37e2 00        nop     
37e3 00        nop     
37e4 00        nop     
37e5 00        nop     
37e6 00        nop     
37e7 00        nop     
37e8 00        nop     
37e9 00        nop     
37ea 00        nop     
37eb 00        nop     
37ec 00        nop     
37ed 00        nop     
37ee 00        nop     
37ef 00        nop     
37f0 00        nop     
37f1 00        nop     
37f2 00        nop     
37f3 00        nop     
37f4 00        nop     
37f5 00        nop     
37f6 00        nop     
37f7 00        nop     
37f8 00        nop     
37f9 00        nop     
37fa 00        nop     
37fb 00        nop     
37fc 00        nop     
37fd 00        nop     
37fe 00        nop     
37ff 00        nop     
3800 00        nop     
3801 00        nop     
3802 00        nop     
3803 00        nop     
3804 00        nop     
3805 00        nop     
3806 00        nop     
3807 00        nop     
3808 00        nop     
3809 00        nop     
380a 00        nop     
380b 00        nop     
380c 00        nop     
380d 00        nop     
380e 00        nop     
380f 00        nop     
3810 00        nop     
3811 00        nop     
3812 00        nop     
3813 00        nop     
3814 00        nop     
3815 00        nop     
3816 00        nop     
3817 00        nop     
3818 010f12    ld      bc,120fh
381b 3f        ccf     
381c 34        inc     (hl)
381d f0        ret     p

381e 48        ld      c,b
381f 1048      djnz    3869h
3821 e449ee    call    po,0ee49h
3824 79        ld      a,c
3825 228a46    ld      (468ah),hl
3828 73        ld      (hl),e
3829 74        ld      (hl),h
382a 9d        sbc     a,l
382b 8f        adc     a,a
382c 88        adc     a,b
382d cc90f1    call    z,0f190h
3830 0f        rrca    
3831 0f        rrca    
3832 0f        rrca    
3833 0f        rrca    
3834 f0        ret     p

3835 f0        ret     p

3836 f0        ret     p

3837 f0        ret     p

3838 f0        ret     p

3839 f0        ret     p

383a f0        ret     p

383b f0        ret     p

383c f0        ret     p

383d f0        ret     p

383e f0        ret     p

383f f0        ret     p

3840 00        nop     
3841 00        nop     
3842 00        nop     
3843 00        nop     
3844 00        nop     
3845 00        nop     
3846 00        nop     
3847 00        nop     
3848 00        nop     
3849 00        nop     
384a 00        nop     
384b 00        nop     
384c 00        nop     
384d 00        nop     
384e 00        nop     
384f 00        nop     
3850 00        nop     
3851 00        nop     
3852 00        nop     
3853 00        nop     
3854 00        nop     
3855 00        nop     
3856 00        nop     
3857 00        nop     
3858 00        nop     
3859 00        nop     
385a 08        ex      af,af'
385b 018c12    ld      bc,128ch
385e c634      add     a,34h
3860 c624      add     a,24h
3862 d7        rst     10h
3863 ac        xor     h
3864 87        add     a,a
3865 ec0086    call    pe,8600h
3868 00        nop     
3869 26e0      ld      h,0e0h
386b 17        rla     
386c 87        add     a,a
386d 0f        rrca    
386e ff        rst     38h
386f cf        rst     08h
3870 0f        rrca    
3871 0f        rrca    
3872 0f        rrca    
3873 0f        rrca    
3874 0f        rrca    
3875 0f        rrca    
3876 f0        ret     p

3877 f0        ret     p

3878 f0        ret     p

3879 8f        adc     a,a
387a f0        ret     p

387b aa        xor     d
387c f0        ret     p

387d aa        xor     d
387e f0        ret     p

387f 8f        adc     a,a
3880 00        nop     
3881 00        nop     
3882 00        nop     
3883 00        nop     
3884 00        nop     
3885 00        nop     
3886 00        nop     
3887 00        nop     
3888 00        nop     
3889 00        nop     
388a 00        nop     
388b 00        nop     
388c 00        nop     
388d 00        nop     
388e 00        nop     
388f 00        nop     
3890 00        nop     
3891 00        nop     
3892 00        nop     
3893 00        nop     
3894 00        nop     
3895 00        nop     
3896 00        nop     
3897 00        nop     
3898 0f        rrca    
3899 08        ex      af,af'
389a 0f        rrca    
389b 8c        adc     a,h
389c f0        ret     p

389d c600      add     a,00h
389f e3        ex      (sp),hl
38a0 54        ld      d,h
38a1 63        ld      h,e
38a2 226322    ld      (2263h),hl
38a5 63        ld      h,e
38a6 00        nop     
38a7 73        ld      (hl),e
38a8 00        nop     
38a9 f0        ret     p

38aa 88        adc     a,b
38ab 00        nop     
38ac 78        ld      a,b
38ad f0        ret     p

38ae 0f        rrca    
38af 0f        rrca    
38b0 ff        rst     38h
38b1 cc0f0f    call    z,0f0fh
38b4 0f        rrca    
38b5 0f        rrca    
38b6 0f        rrca    
38b7 0f        rrca    
38b8 f4f07c    call    p,7cf0h
38bb f0        ret     p

38bc 7c        ld      a,h
38bd f0        ret     p

38be f4f000    call    p,00f0h
38c1 00        nop     
38c2 00        nop     
38c3 00        nop     
38c4 00        nop     
38c5 00        nop     
38c6 00        nop     
38c7 00        nop     
38c8 00        nop     
38c9 00        nop     
38ca 00        nop     
38cb 00        nop     
38cc 00        nop     
38cd 00        nop     
38ce 00        nop     
38cf 00        nop     
38d0 00        nop     
38d1 00        nop     
38d2 00        nop     
38d3 00        nop     
38d4 00        nop     
38d5 00        nop     
38d6 00        nop     
38d7 00        nop     
38d8 00        nop     
38d9 f8        ret     m

38da 116923    ld      de,2369h
38dd f0        ret     p

38de 12        ld      (de),a
38df 80        add     a,b
38e0 12        ld      (de),a
38e1 02        ld      (bc),a
38e2 12        ld      (de),a
38e3 04        inc     b
38e4 1e77      ld      e,77h
38e6 fe22      cp      22h
38e8 3d        dec     a
38e9 66        ld      h,(hl)
38ea 00        nop     
38eb 70        ld      (hl),b
38ec f0        ret     p

38ed f0        ret     p

38ee 0f        rrca    
38ef 0f        rrca    
38f0 0f        rrca    
38f1 0f        rrca    
38f2 ff        rst     38h
38f3 cc0f1f    call    z,1f0fh
38f6 0f        rrca    
38f7 0f        rrca    
38f8 0f        rrca    
38f9 0f        rrca    
38fa f0        ret     p

38fb f0        ret     p

38fc f0        ret     p

38fd f0        ret     p

38fe f0        ret     p

38ff f0        ret     p

3900 f0        ret     p

3901 d4f0d4    call    nc,0d4f0h
3904 f0        ret     p

3905 d4a95c    call    nc,5ca9h
3908 a9        xor     c
3909 5c        ld      e,h
390a b8        cp      b
390b d4b8d4    call    nc,0d4b8h
390e b8        cp      b
390f d4b8d4    call    nc,0d4b8h
3912 b8        cp      b
3913 d4b8d4    call    nc,0d4b8h
3916 8b        adc     a,e
3917 4d        ld      c,l
3918 8b        adc     a,e
3919 4d        ld      c,l
391a b8        cp      b
391b d4b8d4    call    nc,0d4b8h
391e b8        cp      b
391f d4b8d4    call    nc,0d4b8h
3922 b8        cp      b
3923 d4b8d4    call    nc,0d4b8h
3926 b8        cp      b
3927 d4b8d4    call    nc,0d4b8h
392a b8        cp      b
392b d4b8d4    call    nc,0d4b8h
392e b8        cp      b
392f d4b8d4    call    nc,0d4b8h
3932 b8        cp      b
3933 d4b8d4    call    nc,0d4b8h
3936 b8        cp      b
3937 d4b8d4    call    nc,0d4b8h
393a b8        cp      b
393b d4b8d4    call    nc,0d4b8h
393e 8b        adc     a,e
393f 4d        ld      c,l
3940 1eaa      ld      e,0aah
3942 1eaa      ld      e,0aah
3944 f0        ret     p

3945 8f        adc     a,a
3946 f0        ret     p

3947 aa        xor     d
3948 f0        ret     p

3949 aa        xor     d
394a f0        ret     p

394b 8f        adc     a,a
394c f0        ret     p

394d aa        xor     d
394e f0        ret     p

394f aa        xor     d
3950 f0        ret     p

3951 8f        adc     a,a
3952 f0        ret     p

3953 aa        xor     d
3954 f0        ret     p

3955 aa        xor     d
3956 f0        ret     p

3957 8f        adc     a,a
3958 f0        ret     p

3959 aa        xor     d
395a f0        ret     p

395b aa        xor     d
395c f0        ret     p

395d 8f        adc     a,a
395e f0        ret     p

395f aa        xor     d
3960 f0        ret     p

3961 aa        xor     d
3962 f0        ret     p

3963 8f        adc     a,a
3964 f0        ret     p

3965 aa        xor     d
3966 f0        ret     p

3967 aa        xor     d
3968 f0        ret     p

3969 8f        adc     a,a
396a f0        ret     p

396b aa        xor     d
396c f0        ret     p

396d aa        xor     d
396e f0        ret     p

396f 8f        adc     a,a
3970 f0        ret     p

3971 aa        xor     d
3972 f0        ret     p

3973 aa        xor     d
3974 f0        ret     p

3975 8f        adc     a,a
3976 f0        ret     p

3977 aa        xor     d
3978 f0        ret     p

3979 aa        xor     d
397a f0        ret     p

397b 8f        adc     a,a
397c f0        ret     p

397d aa        xor     d
397e 0f        rrca    
397f aa        xor     d
3980 7c        ld      a,h
3981 f0        ret     p

3982 7c        ld      a,h
3983 f0        ret     p

3984 f4f07c    call    p,7cf0h
3987 f0        ret     p

3988 7c        ld      a,h
3989 f0        ret     p

398a f4f07c    call    p,7cf0h
398d f0        ret     p

398e 7c        ld      a,h
398f f0        ret     p

3990 f4f07c    call    p,7cf0h
3993 f0        ret     p

3994 7c        ld      a,h
3995 f0        ret     p

3996 c7        rst     00h
3997 0f        rrca    
3998 4f        ld      c,a
3999 0f        rrca    
399a 6d        ld      l,l
399b 0f        rrca    
399c d60f      sub     0fh
399e 6d        ld      l,l
399f ff        rst     38h
39a0 6d        ld      l,l
39a1 ff        rst     38h
39a2 e5        push    hl
39a3 ff        rst     38h
39a4 6d        ld      l,l
39a5 ff        rst     38h
39a6 6d        ld      l,l
39a7 ff        rst     38h
39a8 e5        push    hl
39a9 0f        rrca    
39aa 6d        ld      l,l
39ab 08        ex      af,af'
39ac 6d        ld      l,l
39ad 08        ex      af,af'
39ae e5        push    hl
39af 6e        ld      l,(hl)
39b0 6d        ld      l,l
39b1 6e        ld      l,(hl)
39b2 6d        ld      l,l
39b3 6e        ld      l,(hl)
39b4 e5        push    hl
39b5 4c        ld      c,h
39b6 6d        ld      l,l
39b7 08        ex      af,af'
39b8 6d        ld      l,l
39b9 2ae508    ld      hl,(08e5h)
39bc 6d        ld      l,l
39bd 08        ex      af,af'
39be 6d        ld      l,l
39bf 4c        ld      c,h
39c0 f0        ret     p

39c1 f0        ret     p

39c2 f0        ret     p

39c3 f0        ret     p

39c4 f0        ret     p

39c5 f0        ret     p

39c6 f0        ret     p

39c7 f0        ret     p

39c8 f0        ret     p

39c9 f0        ret     p

39ca f0        ret     p

39cb f0        ret     p

39cc f0        ret     p

39cd f0        ret     p

39ce f0        ret     p

39cf f0        ret     p

39d0 f0        ret     p

39d1 f0        ret     p

39d2 f0        ret     p

39d3 f0        ret     p

39d4 f0        ret     p

39d5 f0        ret     p

39d6 f0        ret     p

39d7 f0        ret     p

39d8 f0        ret     p

39d9 f0        ret     p

39da 0f        rrca    
39db 0f        rrca    
39dc 0f        rrca    
39dd 0f        rrca    
39de ff        rst     38h
39df ff        rst     38h
39e0 ff        rst     38h
39e1 ff        rst     38h
39e2 ff        rst     38h
39e3 ff        rst     38h
39e4 ff        rst     38h
39e5 df        rst     18h
39e6 ff        rst     38h
39e7 8f        adc     a,a
39e8 6c        ld      l,h
39e9 43        ld      b,e
39ea 66        ld      h,(hl)
39eb 7c        ld      a,h
39ec f3        di      
39ed ae        xor     (hl)
39ee f7        rst     30h
39ef df        rst     18h
39f0 f3        di      
39f1 99        sbc     a,c
39f2 73        ld      (hl),e
39f3 55        ld      d,l
39f4 70        ld      (hl),b
39f5 7f        ld      a,a
39f6 43        ld      b,e
39f7 ff        rst     38h
39f8 43        ld      b,e
39f9 ff        rst     38h
39fa d7        rst     10h
39fb eeff      xor     0ffh
39fd eedd      xor     0ddh
39ff 44        ld      b,h
3a00 8b        adc     a,e
3a01 4d        ld      c,l
3a02 b8        cp      b
3a03 d4b8d4    call    nc,0d4b8h
3a06 b8        cp      b
3a07 d4b8d4    call    nc,0d4b8h
3a0a b8        cp      b
3a0b d4b8d4    call    nc,0d4b8h
3a0e b8        cp      b
3a0f d4b8d4    call    nc,0d4b8h
3a12 b8        cp      b
3a13 d4b8d4    call    nc,0d4b8h
3a16 b8        cp      b
3a17 d4b8d4    call    nc,0d4b8h
3a1a b8        cp      b
3a1b d4b8d4    call    nc,0d4b8h
3a1e b8        cp      b
3a1f d4b8d4    call    nc,0d4b8h
3a22 b8        cp      b
3a23 d4b8d4    call    nc,0d4b8h
3a26 8b        adc     a,e
3a27 4d        ld      c,l
3a28 8b        adc     a,e
3a29 4d        ld      c,l
3a2a b8        cp      b
3a2b d4b8d4    call    nc,0d4b8h
3a2e b8        cp      b
3a2f d4b8d4    call    nc,0d4b8h
3a32 b8        cp      b
3a33 d4b8d4    call    nc,0d4b8h
3a36 a9        xor     c
3a37 5c        ld      e,h
3a38 a9        xor     c
3a39 5c        ld      e,h
3a3a f0        ret     p

3a3b d4f0d4    call    nc,0d4f0h
3a3e f0        ret     p

3a3f d40f8f    call    nc,8f0fh
3a42 f0        ret     p

3a43 aa        xor     d
3a44 f0        ret     p

3a45 aa        xor     d
3a46 f0        ret     p

3a47 8f        adc     a,a
3a48 f0        ret     p

3a49 aa        xor     d
3a4a f0        ret     p

3a4b aa        xor     d
3a4c f0        ret     p

3a4d 8f        adc     a,a
3a4e f0        ret     p

3a4f aa        xor     d
3a50 f0        ret     p

3a51 aa        xor     d
3a52 f0        ret     p

3a53 8f        adc     a,a
3a54 f0        ret     p

3a55 aa        xor     d
3a56 f0        ret     p

3a57 aa        xor     d
3a58 f0        ret     p

3a59 8f        adc     a,a
3a5a f0        ret     p

3a5b aa        xor     d
3a5c f0        ret     p

3a5d aa        xor     d
3a5e f0        ret     p

3a5f 8f        adc     a,a
3a60 f0        ret     p

3a61 aa        xor     d
3a62 f0        ret     p

3a63 aa        xor     d
3a64 f0        ret     p

3a65 8f        adc     a,a
3a66 f0        ret     p

3a67 aa        xor     d
3a68 f0        ret     p

3a69 aa        xor     d
3a6a f0        ret     p

3a6b 8f        adc     a,a
3a6c f0        ret     p

3a6d aa        xor     d
3a6e f0        ret     p

3a6f aa        xor     d
3a70 f0        ret     p

3a71 8f        adc     a,a
3a72 f0        ret     p

3a73 aa        xor     d
3a74 f0        ret     p

3a75 aa        xor     d
3a76 f0        ret     p

3a77 8f        adc     a,a
3a78 f0        ret     p

3a79 aa        xor     d
3a7a f0        ret     p

3a7b aa        xor     d
3a7c 1e8f      ld      e,8fh
3a7e 1ef0      ld      e,0f0h
3a80 e7        rst     20h
3a81 08        ex      af,af'
3a82 6f        ld      l,a
3a83 2e6d      ld      l,6dh
3a85 7f        ld      a,a
3a86 e5        push    hl
3a87 6e        ld      l,(hl)
3a88 6d        ld      l,l
3a89 2e6d      ld      l,6dh
3a8b 3f        ccf     
3a8c e5        push    hl
3a8d 3f        ccf     
3a8e 6d        ld      l,l
3a8f 3f        ccf     
3a90 6d        ld      l,l
3a91 1f        rra     
3a92 e5        push    hl
3a93 3f        ccf     
3a94 6d        ld      l,l
3a95 1f        rra     
3a96 6d        ld      l,l
3a97 1f        rra     
3a98 e5        push    hl
3a99 1f        rra     
3a9a 6d        ld      l,l
3a9b 7f        ld      a,a
3a9c 6d        ld      l,l
3a9d 2ee5      ld      l,0e5h
3a9f 3f        ccf     
3aa0 6d        ld      l,l
3aa1 2e4f      ld      l,4fh
3aa3 ff        rst     38h
3aa4 e5        push    hl
3aa5 0f        rrca    
3aa6 4f        ld      c,a
3aa7 0f        rrca    
3aa8 4f        ld      c,a
3aa9 0f        rrca    
3aaa f4f07c    call    p,7cf0h
3aad f0        ret     p

3aae 7c        ld      a,h
3aaf f0        ret     p

3ab0 f4f07c    call    p,7cf0h
3ab3 f0        ret     p

3ab4 7c        ld      a,h
3ab5 f0        ret     p

3ab6 f4f07c    call    p,7cf0h
3ab9 f0        ret     p

3aba 7c        ld      a,h
3abb f0        ret     p

3abc f4f0f0    call    p,0f0f0h
3abf f0        ret     p

3ac0 7f        ld      a,a
3ac1 cc06ee    call    z,0ee06h
3ac4 47        ld      b,a
3ac5 88        adc     a,b
3ac6 77        ld      (hl),a
3ac7 bb        cp      e
3ac8 33        inc     sp
3ac9 66        ld      h,(hl)
3aca 33        inc     sp
3acb ff        rst     38h
3acc bb        cp      e
3acd 9f        sbc     a,a
3ace cc55cc    call    z,0cc55h
3ad1 11ff99    ld      de,99ffh
3ad4 ccbbb8    call    z,0b8bbh
3ad7 ff        rst     38h
3ad8 e9        jp      (hl)
3ad9 ff        rst     38h
3ada 13        inc     de
3adb 7d        ld      a,l
3adc 37        scf     
3add 7e        ld      a,(hl)
3ade 6f        ld      l,a
3adf ff        rst     38h
3ae0 ce00      adc     a,00h
3ae2 ff        rst     38h
3ae3 ff        rst     38h
3ae4 cf        rst     08h
3ae5 0f        rrca    
3ae6 cf        rst     08h
3ae7 0f        rrca    
3ae8 78        ld      a,b
3ae9 f0        ret     p

3aea f0        ret     p

3aeb f0        ret     p

3aec f0        ret     p

3aed f0        ret     p

3aee f0        ret     p

3aef f0        ret     p

3af0 f0        ret     p

3af1 f0        ret     p

3af2 f0        ret     p

3af3 f0        ret     p

3af4 f0        ret     p

3af5 f0        ret     p

3af6 f0        ret     p

3af7 f0        ret     p

3af8 f0        ret     p

3af9 f0        ret     p

3afa f0        ret     p

3afb f0        ret     p

3afc f0        ret     p

3afd f0        ret     p

3afe f0        ret     p

3aff f0        ret     p

3b00 f0        ret     p

3b01 f0        ret     p

3b02 0f        rrca    
3b03 0f        rrca    
3b04 0f        rrca    
3b05 0f        rrca    
3b06 0f        rrca    
3b07 0f        rrca    
3b08 ff        rst     38h
3b09 ff        rst     38h
3b0a ff        rst     38h
3b0b ff        rst     38h
3b0c ff        rst     38h
3b0d ff        rst     38h
3b0e ff        rst     38h
3b0f ff        rst     38h
3b10 0f        rrca    
3b11 1f        rra     
3b12 78        ld      a,b
3b13 d7        rst     10h
3b14 78        ld      a,b
3b15 f3        di      
3b16 f1        pop     af
3b17 75        ld      (hl),l
3b18 e233e2    jp      po,0e233h
3b1b 33        inc     sp
3b1c cc2f7f    call    z,7f2fh
3b1f cf        rst     08h
3b20 8f        adc     a,a
3b21 0f        rrca    
3b22 ff        rst     38h
3b23 caffc1    jp      z,0c1ffh
3b26 ff        rst     38h
3b27 83        add     a,e
3b28 ff        rst     38h
3b29 b3        or      e
3b2a ff        rst     38h
3b2b c4fff7    call    nz,0f7ffh
3b2e f0        ret     p

3b2f f7        rst     30h
3b30 1eff      ld      e,0ffh
3b32 12        ld      (de),a
3b33 fe12      cp      12h
3b35 e9        jp      (hl)
3b36 12        ld      (de),a
3b37 86        add     a,(hl)
3b38 010800    ld      bc,0008h
3b3b 00        nop     
3b3c 00        nop     
3b3d 00        nop     
3b3e 00        nop     
3b3f 00        nop     
3b40 f0        ret     p

3b41 f0        ret     p

3b42 0f        rrca    
3b43 0f        rrca    
3b44 0f        rrca    
3b45 0f        rrca    
3b46 0f        rrca    
3b47 0f        rrca    
3b48 ff        rst     38h
3b49 ff        rst     38h
3b4a ff        rst     38h
3b4b ff        rst     38h
3b4c ff        rst     38h
3b4d ff        rst     38h
3b4e 0f        rrca    
3b4f 0f        rrca    
3b50 ff        rst     38h
3b51 ff        rst     38h
3b52 ff        rst     38h
3b53 ff        rst     38h
3b54 ff        rst     38h
3b55 feff      cp      0ffh
3b57 fe4c      cp      4ch
3b59 323f5e    ld      (5e3fh),a
3b5c cc227f    call    z,7f22h
3b5f ec6fc0    call    pe,0c06fh
3b62 9e        sbc     a,(hl)
3b63 03        inc     bc
3b64 c8        ret     z

3b65 09        add     hl,bc
3b66 ba        cp      d
3b67 09        add     hl,bc
3b68 f609      or      09h
3b6a fe09      cp      09h
3b6c fe09      cp      09h
3b6e fe08      cp      08h
3b70 e9        jp      (hl)
3b71 08        ex      af,af'
3b72 86        add     a,(hl)
3b73 00        nop     
3b74 08        ex      af,af'
3b75 00        nop     
3b76 00        nop     
3b77 00        nop     
3b78 00        nop     
3b79 00        nop     
3b7a 00        nop     
3b7b 00        nop     
3b7c 00        nop     
3b7d 00        nop     
3b7e 00        nop     
3b7f 00        nop     
3b80 f0        ret     p

3b81 f0        ret     p

3b82 0f        rrca    
3b83 0f        rrca    
3b84 0f        rrca    
3b85 0f        rrca    
3b86 0f        rrca    
3b87 0f        rrca    
3b88 ff        rst     38h
3b89 ff        rst     38h
3b8a ff        rst     38h
3b8b ff        rst     38h
3b8c ff        rst     38h
3b8d ff        rst     38h
3b8e 3f        ccf     
3b8f ff        rst     38h
3b90 ff        rst     38h
3b91 0f        rrca    
3b92 110fdd    ld      de,0dd0fh
3b95 3f        ccf     
3b96 ff        rst     38h
3b97 ccee88    call    z,88eeh
3b9a ff        rst     38h
3b9b 66        ld      h,(hl)
3b9c feba      cp      0bah
3b9e ff        rst     38h
3b9f cf        rst     08h
3ba0 ff        rst     38h
3ba1 8f        adc     a,a
3ba2 ff        rst     38h
3ba3 ff        rst     38h
3ba4 ff        rst     38h
3ba5 ff        rst     38h
3ba6 f7        rst     30h
3ba7 ff        rst     38h
3ba8 f7        rst     30h
3ba9 ff        rst     38h
3baa f7        rst     30h
3bab ff        rst     38h
3bac f7        rst     30h
3bad ff        rst     38h
3bae 78        ld      a,b
3baf f0        ret     p

3bb0 07        rlca    
3bb1 0f        rrca    
3bb2 00        nop     
3bb3 00        nop     
3bb4 00        nop     
3bb5 00        nop     
3bb6 00        nop     
3bb7 00        nop     
3bb8 00        nop     
3bb9 00        nop     
3bba 00        nop     
3bbb 00        nop     
3bbc 00        nop     
3bbd 00        nop     
3bbe 00        nop     
3bbf 00        nop     
3bc0 f0        ret     p

3bc1 f0        ret     p

3bc2 0f        rrca    
3bc3 0f        rrca    
3bc4 0f        rrca    
3bc5 0f        rrca    
3bc6 0f        rrca    
3bc7 0f        rrca    
3bc8 ff        rst     38h
3bc9 ff        rst     38h
3bca ff        rst     38h
3bcb ff        rst     38h
3bcc ff        rst     38h
3bcd ff        rst     38h
3bce ef        rst     28h
3bcf 0f        rrca    
3bd0 1f        rra     
3bd1 ff        rst     38h
3bd2 1f        rra     
3bd3 00        nop     
3bd4 5b        ld      e,e
3bd5 66        ld      h,(hl)
3bd6 dbff      in      a,(0ffh)
3bd8 db6e      in      a,(6eh)
3bda d37e      out     (7eh),a
3bdc a7        and     a
3bdd ff        rst     38h
3bde 1f        rra     
3bdf ff        rst     38h
3be0 3f        ccf     
3be1 ff        rst     38h
3be2 ff        rst     38h
3be3 ff        rst     38h
3be4 f7        rst     30h
3be5 ff        rst     38h
3be6 c3f384    jp      84f3h
3be9 7b        ld      a,e
3bea 84        add     a,h
3beb 7b        ld      a,e
3bec 84        add     a,h
3bed 7b        ld      a,e
3bee 08        ex      af,af'
3bef 34        inc     (hl)
3bf0 00        nop     
3bf1 03        inc     bc
3bf2 00        nop     
3bf3 00        nop     
3bf4 00        nop     
3bf5 00        nop     
3bf6 00        nop     
3bf7 00        nop     
3bf8 00        nop     
3bf9 00        nop     
3bfa 00        nop     
3bfb 00        nop     
3bfc 00        nop     
3bfd 00        nop     
3bfe 00        nop     
3bff 00        nop     
3c00 00        nop     
3c01 00        nop     
3c02 00        nop     
3c03 00        nop     
3c04 00        nop     
3c05 00        nop     
3c06 00        nop     
3c07 00        nop     
3c08 00        nop     
3c09 00        nop     
3c0a 00        nop     
3c0b 00        nop     
3c0c 00        nop     
3c0d 00        nop     
3c0e 00        nop     
3c0f 00        nop     
3c10 00        nop     
3c11 00        nop     
3c12 00        nop     
3c13 00        nop     
3c14 00        nop     
3c15 00        nop     
3c16 00        nop     
3c17 00        nop     
3c18 00        nop     
3c19 00        nop     
3c1a 00        nop     
3c1b 00        nop     
3c1c 00        nop     
3c1d 80        add     a,b
3c1e 0f        rrca    
3c1f 44        ld      b,h
3c20 7f        ld      a,a
3c21 cc8822    call    z,2288h
3c24 ff        rst     38h
3c25 ee78      xor     78h
3c27 c3ffcc    jp      0ccffh
3c2a f8        ret     m

3c2b c0        ret     nz

3c2c ff        rst     38h
3c2d ff        rst     38h
3c2e ff        rst     38h
3c2f cbff      set     7,a
3c31 8b        adc     a,e
3c32 ff        rst     38h
3c33 ab        xor     e
3c34 ff        rst     38h
3c35 44        ld      b,h
3c36 11cfff    ld      de,0ffcfh
3c39 fc1fb8    call    m,0b81fh
3c3c f1        pop     af
3c3d fb        ei      
3c3e e0        ret     po

3c3f 40        ld      b,b
3c40 00        nop     
3c41 00        nop     
3c42 00        nop     
3c43 00        nop     
3c44 00        nop     
3c45 00        nop     
3c46 00        nop     
3c47 00        nop     
3c48 00        nop     
3c49 00        nop     
3c4a 00        nop     
3c4b 00        nop     
3c4c 00        nop     
3c4d 00        nop     
3c4e 00        nop     
3c4f 00        nop     
3c50 00        nop     
3c51 00        nop     
3c52 00        nop     
3c53 00        nop     
3c54 00        nop     
3c55 00        nop     
3c56 00        nop     
3c57 00        nop     
3c58 00        nop     
3c59 00        nop     
3c5a 00        nop     
3c5b 00        nop     
3c5c 00        nop     
3c5d 00        nop     
3c5e 00        nop     
3c5f 00        nop     
3c60 00        nop     
3c61 00        nop     
3c62 47        ld      b,a
3c63 0f        rrca    
3c64 07        rlca    
3c65 0f        rrca    
3c66 0610      ld      b,10h
3c68 0600      ld      b,00h
3c6a 07        rlca    
3c6b 0f        rrca    
3c6c ff        rst     38h
3c6d ff        rst     38h
3c6e 0f        rrca    
3c6f 0f        rrca    
3c70 0f        rrca    
3c71 0f        rrca    
3c72 0f        rrca    
3c73 0f        rrca    
3c74 f0        ret     p

3c75 f0        ret     p

3c76 f0        ret     p

3c77 f0        ret     p

3c78 f0        ret     p

3c79 f0        ret     p

3c7a f0        ret     p

3c7b f0        ret     p

3c7c f0        ret     p

3c7d f0        ret     p

3c7e f0        ret     p

3c7f f0        ret     p

3c80 00        nop     
3c81 00        nop     
3c82 00        nop     
3c83 00        nop     
3c84 00        nop     
3c85 00        nop     
3c86 00        nop     
3c87 00        nop     
3c88 00        nop     
3c89 00        nop     
3c8a 00        nop     
3c8b 00        nop     
3c8c 00        nop     
3c8d 00        nop     
3c8e 00        nop     
3c8f 00        nop     
3c90 00        nop     
3c91 00        nop     
3c92 00        nop     
3c93 00        nop     
3c94 00        nop     
3c95 00        nop     
3c96 00        nop     
3c97 00        nop     
3c98 00        nop     
3c99 00        nop     
3c9a 00        nop     
3c9b 00        nop     
3c9c 00        nop     
3c9d 00        nop     
3c9e 00        nop     
3c9f 00        nop     
3ca0 00        nop     
3ca1 00        nop     
3ca2 1ee2      ld      e,0e2h
3ca4 ff        rst     38h
3ca5 ecf0e4    call    pe,0e4f0h
3ca8 00        nop     
3ca9 e40f4e    call    po,4e0fh
3cac ff        rst     38h
3cad ff        rst     38h
3cae 0f        rrca    
3caf 0f        rrca    
3cb0 0f        rrca    
3cb1 0f        rrca    
3cb2 0f        rrca    
3cb3 0f        rrca    
3cb4 f0        ret     p

3cb5 f0        ret     p

3cb6 f0        ret     p

3cb7 f0        ret     p

3cb8 f0        ret     p

3cb9 f0        ret     p

3cba f0        ret     p

3cbb f0        ret     p

3cbc f0        ret     p

3cbd f0        ret     p

3cbe f0        ret     p

3cbf f0        ret     p

3cc0 00        nop     
3cc1 00        nop     
3cc2 00        nop     
3cc3 00        nop     
3cc4 00        nop     
3cc5 00        nop     
3cc6 00        nop     
3cc7 00        nop     
3cc8 00        nop     
3cc9 00        nop     
3cca 00        nop     
3ccb 00        nop     
3ccc 00        nop     
3ccd 00        nop     
3cce 00        nop     
3ccf 00        nop     
3cd0 00        nop     
3cd1 00        nop     
3cd2 00        nop     
3cd3 00        nop     
3cd4 00        nop     
3cd5 00        nop     
3cd6 00        nop     
3cd7 00        nop     
3cd8 00        nop     
3cd9 00        nop     
3cda 00        nop     
3cdb 00        nop     
3cdc 00        nop     
3cdd 00        nop     
3cde 00        nop     
3cdf 00        nop     
3ce0 00        nop     
3ce1 00        nop     
3ce2 00        nop     
3ce3 00        nop     
3ce4 00        nop     
3ce5 00        nop     
3ce6 00        nop     
3ce7 00        nop     
3ce8 00        nop     
3ce9 00        nop     
3cea 00        nop     
3ceb 00        nop     
3cec ff        rst     38h
3ced ff        rst     38h
3cee 0f        rrca    
3cef 0f        rrca    
3cf0 0f        rrca    
3cf1 0f        rrca    
3cf2 0f        rrca    
3cf3 0f        rrca    
3cf4 f0        ret     p

3cf5 c0        ret     nz

3cf6 f1        pop     af
3cf7 cf        rst     08h
3cf8 f1        pop     af
3cf9 fcf1b8    call    m,0b8f1h
3cfc f1        pop     af
3cfd fb        ei      
3cfe e0        ret     po

3cff 40        ld      b,b
3d00 f0        ret     p

3d01 f0        ret     p

3d02 f0        ret     p

3d03 f0        ret     p

3d04 f0        ret     p

3d05 f0        ret     p

3d06 f0        ret     p

3d07 f0        ret     p

3d08 f0        ret     p

3d09 f0        ret     p

3d0a f0        ret     p

3d0b f0        ret     p

3d0c f0        ret     p

3d0d f0        ret     p

3d0e f0        ret     p

3d0f f0        ret     p

3d10 f0        ret     p

3d11 f0        ret     p

3d12 f0        ret     p

3d13 f0        ret     p

3d14 f0        ret     p

3d15 f0        ret     p

3d16 0f        rrca    
3d17 0f        rrca    
3d18 0f        rrca    
3d19 0f        rrca    
3d1a f0        ret     p

3d1b f0        ret     p

3d1c f0        ret     p

3d1d f0        ret     p

3d1e f0        ret     p

3d1f f0        ret     p

3d20 f0        ret     p

3d21 f0        ret     p

3d22 f0        ret     p

3d23 f0        ret     p

3d24 f0        ret     p

3d25 f0        ret     p

3d26 f0        ret     p

3d27 f0        ret     p

3d28 f0        ret     p

3d29 f0        ret     p

3d2a f0        ret     p

3d2b f0        ret     p

3d2c f0        ret     p

3d2d f0        ret     p

3d2e f0        ret     p

3d2f f0        ret     p

3d30 f0        ret     p

3d31 f0        ret     p

3d32 f0        ret     p

3d33 f0        ret     p

3d34 f0        ret     p

3d35 f0        ret     p

3d36 f0        ret     p

3d37 f0        ret     p

3d38 f0        ret     p

3d39 f0        ret     p

3d3a f0        ret     p

3d3b f0        ret     p

3d3c f0        ret     p

3d3d f0        ret     p

3d3e 0f        rrca    
3d3f 0f        rrca    
3d40 f0        ret     p

3d41 f0        ret     p

3d42 f0        ret     p

3d43 f0        ret     p

3d44 f0        ret     p

3d45 f0        ret     p

3d46 f0        ret     p

3d47 f0        ret     p

3d48 f0        ret     p

3d49 f0        ret     p

3d4a f0        ret     p

3d4b f0        ret     p

3d4c f0        ret     p

3d4d f0        ret     p

3d4e f0        ret     p

3d4f f0        ret     p

3d50 f0        ret     p

3d51 f0        ret     p

3d52 f0        ret     p

3d53 f0        ret     p

3d54 f0        ret     p

3d55 f0        ret     p

3d56 f0        ret     p

3d57 f0        ret     p

3d58 f0        ret     p

3d59 f0        ret     p

3d5a f0        ret     p

3d5b f0        ret     p

3d5c f0        ret     p

3d5d f0        ret     p

3d5e f0        ret     p

3d5f f0        ret     p

3d60 f0        ret     p

3d61 f0        ret     p

3d62 f0        ret     p

3d63 f0        ret     p

3d64 f0        ret     p

3d65 f0        ret     p

3d66 f0        ret     p

3d67 f0        ret     p

3d68 f0        ret     p

3d69 f0        ret     p

3d6a f0        ret     p

3d6b f0        ret     p

3d6c f0        ret     p

3d6d f0        ret     p

3d6e f0        ret     p

3d6f f0        ret     p

3d70 f0        ret     p

3d71 f0        ret     p

3d72 f0        ret     p

3d73 f0        ret     p

3d74 f0        ret     p

3d75 f0        ret     p

3d76 f0        ret     p

3d77 f0        ret     p

3d78 f0        ret     p

3d79 f0        ret     p

3d7a f0        ret     p

3d7b f0        ret     p

3d7c f0        ret     p

3d7d f0        ret     p

3d7e 0f        rrca    
3d7f 0f        rrca    
3d80 f0        ret     p

3d81 f0        ret     p

3d82 f0        ret     p

3d83 f0        ret     p

3d84 f0        ret     p

3d85 f0        ret     p

3d86 f0        ret     p

3d87 f0        ret     p

3d88 f0        ret     p

3d89 f0        ret     p

3d8a f0        ret     p

3d8b f0        ret     p

3d8c f0        ret     p

3d8d f0        ret     p

3d8e f0        ret     p

3d8f f0        ret     p

3d90 f0        ret     p

3d91 f0        ret     p

3d92 f0        ret     p

3d93 f0        ret     p

3d94 f0        ret     p

3d95 f0        ret     p

3d96 0f        rrca    
3d97 0f        rrca    
3d98 0f        rrca    
3d99 0f        rrca    
3d9a f0        ret     p

3d9b f0        ret     p

3d9c f0        ret     p

3d9d f0        ret     p

3d9e f0        ret     p

3d9f f0        ret     p

3da0 f0        ret     p

3da1 f0        ret     p

3da2 f0        ret     p

3da3 f0        ret     p

3da4 f0        ret     p

3da5 f0        ret     p

3da6 f0        ret     p

3da7 f0        ret     p

3da8 f0        ret     p

3da9 f0        ret     p

3daa f0        ret     p

3dab f0        ret     p

3dac f0        ret     p

3dad f0        ret     p

3dae f0        ret     p

3daf f0        ret     p

3db0 f0        ret     p

3db1 f0        ret     p

3db2 f0        ret     p

3db3 f0        ret     p

3db4 f0        ret     p

3db5 f0        ret     p

3db6 f0        ret     p

3db7 f0        ret     p

3db8 f0        ret     p

3db9 f0        ret     p

3dba f0        ret     p

3dbb f0        ret     p

3dbc f0        ret     p

3dbd f0        ret     p

3dbe 0f        rrca    
3dbf 0f        rrca    
3dc0 f0        ret     p

3dc1 f0        ret     p

3dc2 f0        ret     p

3dc3 f0        ret     p

3dc4 f0        ret     p

3dc5 f0        ret     p

3dc6 f0        ret     p

3dc7 f0        ret     p

3dc8 f0        ret     p

3dc9 f0        ret     p

3dca f0        ret     p

3dcb f0        ret     p

3dcc f0        ret     p

3dcd f0        ret     p

3dce f0        ret     p

3dcf f0        ret     p

3dd0 f0        ret     p

3dd1 f0        ret     p

3dd2 f0        ret     p

3dd3 f0        ret     p

3dd4 f0        ret     p

3dd5 f0        ret     p

3dd6 f0        ret     p

3dd7 f0        ret     p

3dd8 f0        ret     p

3dd9 f0        ret     p

3dda f0        ret     p

3ddb f0        ret     p

3ddc f0        ret     p

3ddd f0        ret     p

3dde f0        ret     p

3ddf f0        ret     p

3de0 f0        ret     p

3de1 f0        ret     p

3de2 f0        ret     p

3de3 f0        ret     p

3de4 f0        ret     p

3de5 f0        ret     p

3de6 f0        ret     p

3de7 f0        ret     p

3de8 f0        ret     p

3de9 f0        ret     p

3dea f0        ret     p

3deb f0        ret     p

3dec f0        ret     p

3ded f0        ret     p

3dee f0        ret     p

3def f0        ret     p

3df0 f0        ret     p

3df1 f0        ret     p

3df2 f0        ret     p

3df3 f0        ret     p

3df4 f0        ret     p

3df5 f0        ret     p

3df6 f0        ret     p

3df7 f0        ret     p

3df8 f0        ret     p

3df9 f0        ret     p

3dfa f0        ret     p

3dfb f0        ret     p

3dfc f0        ret     p

3dfd f0        ret     p

3dfe 0f        rrca    
3dff 0f        rrca    
3e00 f0        ret     p

3e01 f0        ret     p

3e02 0f        rrca    
3e03 0f        rrca    
3e04 0f        rrca    
3e05 0f        rrca    
3e06 0f        rrca    
3e07 0f        rrca    
3e08 ff        rst     38h
3e09 ff        rst     38h
3e0a ff        rst     38h
3e0b ff        rst     38h
3e0c 0f        rrca    
3e0d 0f        rrca    
3e0e f0        ret     p

3e0f f0        ret     p

3e10 00        nop     
3e11 00        nop     
3e12 f0        ret     p

3e13 f0        ret     p

3e14 ff        rst     38h
3e15 ff        rst     38h
3e16 0f        rrca    
3e17 0f        rrca    
3e18 ff        rst     38h
3e19 ff        rst     38h
3e1a ff        rst     38h
3e1b ff        rst     38h
3e1c 2d        dec     l
3e1d ff        rst     38h
3e1e 3d        dec     a
3e1f f0        ret     p

3e20 fd87      add     a,a
3e22 79        ld      a,c
3e23 87        add     a,a
3e24 fdff      rst     38h
3e26 79        ld      a,c
3e27 00        nop     
3e28 df        rst     18h
3e29 ff        rst     38h
3e2a df        rst     18h
3e2b 00        nop     
3e2c ff        rst     38h
3e2d f0        ret     p

3e2e 33        inc     sp
3e2f 00        nop     
3e30 ff        rst     38h
3e31 f0        ret     p

3e32 d1        pop     de
3e33 0f        rrca    
3e34 ddf0      ret     p

3e36 3d        dec     a
3e37 0f        rrca    
3e38 ff        rst     38h
3e39 ff        rst     38h
3e3a f0        ret     p

3e3b f0        ret     p

3e3c ff        rst     38h
3e3d ff        rst     38h
3e3e ff        rst     38h
3e3f ff        rst     38h
3e40 f0        ret     p

3e41 f0        ret     p

3e42 0f        rrca    
3e43 0f        rrca    
3e44 0f        rrca    
3e45 0f        rrca    
3e46 0f        rrca    
3e47 0f        rrca    
3e48 ff        rst     38h
3e49 ff        rst     38h
3e4a ff        rst     38h
3e4b ff        rst     38h
3e4c 0f        rrca    
3e4d 0f        rrca    
3e4e f0        ret     p

3e4f f0        ret     p

3e50 00        nop     
3e51 00        nop     
3e52 f0        ret     p

3e53 f0        ret     p

3e54 ff        rst     38h
3e55 ff        rst     38h
3e56 0f        rrca    
3e57 0f        rrca    
3e58 ff        rst     38h
3e59 ff        rst     38h
3e5a ff        rst     38h
3e5b ff        rst     38h
3e5c ff        rst     38h
3e5d ff        rst     38h
3e5e 0f        rrca    
3e5f 3f        ccf     
3e60 0f        rrca    
3e61 0f        rrca    
3e62 0f        rrca    
3e63 0f        rrca    
3e64 ff        rst     38h
3e65 ff        rst     38h
3e66 00        nop     
3e67 00        nop     
3e68 ff        rst     38h
3e69 ff        rst     38h
3e6a 00        nop     
3e6b 00        nop     
3e6c f0        ret     p

3e6d f0        ret     p

3e6e 00        nop     
3e6f 00        nop     
3e70 f0        ret     p

3e71 f0        ret     p

3e72 0f        rrca    
3e73 0f        rrca    
3e74 f0        ret     p

3e75 f0        ret     p

3e76 0f        rrca    
3e77 0f        rrca    
3e78 ff        rst     38h
3e79 ff        rst     38h
3e7a f0        ret     p

3e7b f0        ret     p

3e7c ff        rst     38h
3e7d ff        rst     38h
3e7e ff        rst     38h
3e7f ff        rst     38h
3e80 f0        ret     p

3e81 f0        ret     p

3e82 0f        rrca    
3e83 0f        rrca    
3e84 0f        rrca    
3e85 0f        rrca    
3e86 0f        rrca    
3e87 0f        rrca    
3e88 ff        rst     38h
3e89 ff        rst     38h
3e8a ff        rst     38h
3e8b ee0f      xor     0fh
3e8d 2ef0      ld      l,0f0h
3e8f e2f0f3    jp      po,0f3f0h
3e92 f0        ret     p

3e93 f3        di      
3e94 ff        rst     38h
3e95 ff        rst     38h
3e96 0f        rrca    
3e97 0f        rrca    
3e98 ff        rst     38h
3e99 bc        cp      h
3e9a ff        rst     38h
3e9b ad        xor     l
3e9c ff        rst     38h
3e9d ad        xor     l
3e9e b8        cp      b
3e9f 2d        dec     l
3ea0 1f        rra     
3ea1 43        ld      b,e
3ea2 ff        rst     38h
3ea3 43        ld      b,e
3ea4 eef3      xor     0f3h
3ea6 304f      jr      nc,3ef7h
3ea8 dc9710    call    c,1097h
3eab f7        rst     30h
3eac c3bf21    jp      21bfh
3eaf 6f        ld      l,a
3eb0 c3ee3f    jp      3feeh
3eb3 ced3      adc     a,0d3h
3eb5 ca3f84    jp      z,843fh
3eb8 fd84      add     a,iyh
3eba f208fe    jp      p,0fe08h
3ebd 08        ex      af,af'
3ebe ed00      db      0edh, 00h        ; Undocumented 8 T-State NOP
3ec0 f0        ret     p

3ec1 f0        ret     p

3ec2 0f        rrca    
3ec3 0f        rrca    
3ec4 0f        rrca    
3ec5 0f        rrca    
3ec6 0f        rrca    
3ec7 0f        rrca    
3ec8 ff        rst     38h
3ec9 ff        rst     38h
3eca ff        rst     38h
3ecb ddff      rst     38h
3ecd dd7f      ld      a,a
3ecf ddff      rst     38h
3ed1 dd7f      ld      a,a
3ed3 ff        rst     38h
3ed4 7f        ld      a,a
3ed5 ff        rst     38h
3ed6 7f        ld      a,a
3ed7 ff        rst     38h
3ed8 7f        ld      a,a
3ed9 ff        rst     38h
3eda 7f        ld      a,a
3edb ff        rst     38h
3edc 7f        ld      a,a
3edd ef        rst     28h
3ede 7f        ld      a,a
3edf ff        rst     38h
3ee0 ff        rst     38h
3ee1 ff        rst     38h
3ee2 fdff      rst     38h
3ee4 deff      sbc     a,0ffh
3ee6 cbf7      set     6,a
3ee8 8d        adc     a,l
3ee9 f7        rst     30h
3eea 85        add     a,l
3eeb f7        rst     30h
3eec 09        add     hl,bc
3eed f7        rst     30h
3eee 00        nop     
3eef 78        ld      a,b
3ef0 00        nop     
3ef1 07        rlca    
3ef2 00        nop     
3ef3 00        nop     
3ef4 00        nop     
3ef5 00        nop     
3ef6 00        nop     
3ef7 00        nop     
3ef8 00        nop     
3ef9 00        nop     
3efa 00        nop     
3efb 00        nop     
3efc 00        nop     
3efd 00        nop     
3efe 00        nop     
3eff 00        nop     
3f00 ff        rst     38h
3f01 ff        rst     38h
3f02 ff        rst     38h
3f03 ff        rst     38h
3f04 ff        rst     38h
3f05 ff        rst     38h
3f06 ff        rst     38h
3f07 ff        rst     38h
3f08 ff        rst     38h
3f09 ff        rst     38h
3f0a f0        ret     p

3f0b f0        ret     p

3f0c 0f        rrca    
3f0d 0f        rrca    
3f0e 00        nop     
3f0f 00        nop     
3f10 00        nop     
3f11 00        nop     
3f12 00        nop     
3f13 00        nop     
3f14 00        nop     
3f15 00        nop     
3f16 00        nop     
3f17 00        nop     
3f18 00        nop     
3f19 00        nop     
3f1a 00        nop     
3f1b 00        nop     
3f1c 00        nop     
3f1d 00        nop     
3f1e 00        nop     
3f1f 00        nop     
3f20 00        nop     
3f21 00        nop     
3f22 00        nop     
3f23 00        nop     
3f24 00        nop     
3f25 00        nop     
3f26 00        nop     
3f27 00        nop     
3f28 00        nop     
3f29 00        nop     
3f2a 00        nop     
3f2b 00        nop     
3f2c 00        nop     
3f2d 00        nop     
3f2e 00        nop     
3f2f 00        nop     
3f30 00        nop     
3f31 00        nop     
3f32 00        nop     
3f33 00        nop     
3f34 00        nop     
3f35 00        nop     
3f36 00        nop     
3f37 00        nop     
3f38 00        nop     
3f39 00        nop     
3f3a 00        nop     
3f3b 00        nop     
3f3c 00        nop     
3f3d 00        nop     
3f3e 00        nop     
3f3f 00        nop     
3f40 ff        rst     38h
3f41 ff        rst     38h
3f42 ff        rst     38h
3f43 ff        rst     38h
3f44 ff        rst     38h
3f45 ff        rst     38h
3f46 ff        rst     38h
3f47 feff      cp      0ffh
3f49 fef0      cp      0f0h
3f4b e1        pop     hl
3f4c 0f        rrca    
3f4d 0e00      ld      c,00h
3f4f 00        nop     
3f50 00        nop     
3f51 00        nop     
3f52 00        nop     
3f53 00        nop     
3f54 00        nop     
3f55 00        nop     
3f56 00        nop     
3f57 00        nop     
3f58 00        nop     
3f59 00        nop     
3f5a 00        nop     
3f5b 00        nop     
3f5c 00        nop     
3f5d 00        nop     
3f5e 00        nop     
3f5f 00        nop     
3f60 00        nop     
3f61 00        nop     
3f62 00        nop     
3f63 00        nop     
3f64 00        nop     
3f65 00        nop     
3f66 00        nop     
3f67 00        nop     
3f68 00        nop     
3f69 00        nop     
3f6a 00        nop     
3f6b 00        nop     
3f6c 00        nop     
3f6d 00        nop     
3f6e 00        nop     
3f6f 00        nop     
3f70 00        nop     
3f71 00        nop     
3f72 00        nop     
3f73 00        nop     
3f74 00        nop     
3f75 00        nop     
3f76 00        nop     
3f77 00        nop     
3f78 00        nop     
3f79 00        nop     
3f7a 00        nop     
3f7b 00        nop     
3f7c 00        nop     
3f7d 00        nop     
3f7e 00        nop     
3f7f 00        nop     
3f80 ed00      db      0edh, 00h        ; Undocumented 8 T-State NOP
3f82 ca0084    jp      z,8400h
3f85 00        nop     
3f86 08        ex      af,af'
3f87 00        nop     
3f88 08        ex      af,af'
3f89 00        nop     
3f8a 00        nop     
3f8b 00        nop     
3f8c 00        nop     
3f8d 00        nop     
3f8e 00        nop     
3f8f 00        nop     
3f90 00        nop     
3f91 00        nop     
3f92 00        nop     
3f93 00        nop     
3f94 00        nop     
3f95 00        nop     
3f96 00        nop     
3f97 00        nop     
3f98 00        nop     
3f99 00        nop     
3f9a 00        nop     
3f9b 00        nop     
3f9c 00        nop     
3f9d 00        nop     
3f9e 00        nop     
3f9f 00        nop     
3fa0 00        nop     
3fa1 00        nop     
3fa2 00        nop     
3fa3 00        nop     
3fa4 00        nop     
3fa5 00        nop     
3fa6 00        nop     
3fa7 00        nop     
3fa8 00        nop     
3fa9 00        nop     
3faa 00        nop     
3fab 00        nop     
3fac 00        nop     
3fad 00        nop     
3fae 00        nop     
3faf 00        nop     
3fb0 00        nop     
3fb1 00        nop     
3fb2 00        nop     
3fb3 00        nop     
3fb4 00        nop     
3fb5 00        nop     
3fb6 00        nop     
3fb7 00        nop     
3fb8 00        nop     
3fb9 00        nop     
3fba 00        nop     
3fbb 00        nop     
3fbc 00        nop     
3fbd 00        nop     
3fbe 00        nop     
3fbf 00        nop     
3fc0 00        nop     
3fc1 00        nop     
3fc2 00        nop     
3fc3 00        nop     
3fc4 00        nop     
3fc5 00        nop     
3fc6 00        nop     
3fc7 00        nop     
3fc8 00        nop     
3fc9 00        nop     
3fca 00        nop     
3fcb 00        nop     
3fcc 00        nop     
3fcd 00        nop     
3fce 00        nop     
3fcf 00        nop     
3fd0 00        nop     
3fd1 00        nop     
3fd2 00        nop     
3fd3 00        nop     
3fd4 00        nop     
3fd5 00        nop     
3fd6 00        nop     
3fd7 00        nop     
3fd8 00        nop     
3fd9 00        nop     
3fda 00        nop     
3fdb 00        nop     
3fdc 00        nop     
3fdd 00        nop     
3fde 00        nop     
3fdf 00        nop     
3fe0 00        nop     
3fe1 00        nop     
3fe2 00        nop     
3fe3 00        nop     
3fe4 00        nop     
3fe5 00        nop     
3fe6 00        nop     
3fe7 00        nop     
3fe8 00        nop     
3fe9 00        nop     
3fea 00        nop     
3feb 00        nop     
3fec 00        nop     
3fed 00        nop     
3fee 00        nop     
3fef 00        nop     
3ff0 00        nop     
3ff1 00        nop     
3ff2 00        nop     
3ff3 00        nop     
3ff4 00        nop     
3ff5 00        nop     
3ff6 00        nop     
3ff7 00        nop     
3ff8 00        nop     
3ff9 00        nop     
3ffa 00        nop     
3ffb 00        nop     
3ffc 00        nop     
3ffd 00        nop     
3ffe 00        nop     
3fff 00        nop     
4000 00        nop     
4001 00        nop     
4002 00        nop     
4003 00        nop     
4004 00        nop     
4005 00        nop     
4006 00        nop     
4007 00        nop     
4008 00        nop     
4009 00        nop     
400a 00        nop     
400b 00        nop     
400c 1f        rra     
400d 00        nop     
400e 0f        rrca    
400f 88        adc     a,b
4010 e1        pop     hl
4011 4c        ld      c,h
4012 f0        ret     p

4013 0c        inc     c
4014 78        ld      a,b
4015 0c        inc     c
4016 f8        ret     m

4017 0c        inc     c
4018 f8        ret     m

4019 0c        inc     c
401a f8        ret     m

401b 0c        inc     c
401c f0        ret     p

401d 4c        ld      c,h
401e 0f        rrca    
401f 80        add     a,b
4020 ff        rst     38h
4021 ff        rst     38h
4022 33        inc     sp
4023 ff        rst     38h
4024 67        ld      h,a
4025 0f        rrca    
4026 8f        adc     a,a
4027 0f        rrca    
4028 8f        adc     a,a
4029 0f        rrca    
402a f0        ret     p

402b f0        ret     p

402c f0        ret     p

402d d5        push    de
402e ee77      xor     77h
4030 ff        rst     38h
4031 ddcf      rst     08h
4033 66        ld      h,(hl)
4034 ccdfef    call    z,0efdfh
4037 df        rst     18h
4038 ff        rst     38h
4039 ff        rst     38h
403a 67        ld      h,a
403b ec597c    call    pe,7c59h
403e 1e30      ld      e,30h
4040 00        nop     
4041 00        nop     
4042 00        nop     
4043 00        nop     
4044 00        nop     
4045 00        nop     
4046 00        nop     
4047 00        nop     
4048 00        nop     
4049 00        nop     
404a 00        nop     
404b 00        nop     
404c 00        nop     
404d 00        nop     
404e 00        nop     
404f 00        nop     
4050 00        nop     
4051 00        nop     
4052 00        nop     
4053 00        nop     
4054 00        nop     
4055 00        nop     
4056 00        nop     
4057 00        nop     
4058 00        nop     
4059 00        nop     
405a 00        nop     
405b 00        nop     
405c 00        nop     
405d 00        nop     
405e 00        nop     
405f 00        nop     
4060 ff        rst     38h
4061 ff        rst     38h
4062 ff        rst     38h
4063 ff        rst     38h
4064 0f        rrca    
4065 0f        rrca    
4066 0f        rrca    
4067 0f        rrca    
4068 0f        rrca    
4069 0f        rrca    
406a f3        di      
406b ff        rst     38h
406c f7        rst     30h
406d ff        rst     38h
406e 5d        ld      e,l
406f ff        rst     38h
4070 ad        xor     l
4071 8f        adc     a,a
4072 edbc      db      0edh, 0bch       ; Undocumented 8 T-State NOP
4074 fc69fc    call    m,0fc69h
4077 69        ld      l,c
4078 f43ff2    call    p,0f23fh
407b 7f        ld      a,a
407c f2eef7    jp      p,0f7eeh
407f 95        sub     l
4080 00        nop     
4081 00        nop     
4082 00        nop     
4083 00        nop     
4084 00        nop     
4085 00        nop     
4086 00        nop     
4087 00        nop     
4088 00        nop     
4089 00        nop     
408a 00        nop     
408b 00        nop     
408c 00        nop     
408d 00        nop     
408e 00        nop     
408f 00        nop     
4090 00        nop     
4091 00        nop     
4092 00        nop     
4093 00        nop     
4094 00        nop     
4095 00        nop     
4096 33        inc     sp
4097 ff        rst     38h
4098 77        ld      (hl),a
4099 ff        rst     38h
409a 76        halt    
409b fd773f    ld      (iy+3fh),a
409e 22bfff    ld      (0ffbfh),hl
40a1 edff      db      0edh, 0ffh       ; Undocumented 8 T-State NOP
40a3 fe0f      cp      0fh
40a5 3f        ccf     
40a6 0f        rrca    
40a7 1f        rra     
40a8 0f        rrca    
40a9 0f        rrca    
40aa 8f        adc     a,a
40ab 87        add     a,a
40ac de0f      sbc     a,0fh
40ae 3d        dec     a
40af bd        cp      l
40b0 2e0e      ld      l,0eh
40b2 5d        ld      e,l
40b3 e48f57    call    po,578fh
40b6 db7a      in      a,(7ah)
40b8 ad        xor     l
40b9 7f        ld      a,a
40ba deea      sbc     a,0eah
40bc fb        ei      
40bd eadef7    jp      pe,0f7deh
40c0 00        nop     
40c1 00        nop     
40c2 00        nop     
40c3 00        nop     
40c4 00        nop     
40c5 00        nop     
40c6 00        nop     
40c7 00        nop     
40c8 00        nop     
40c9 00        nop     
40ca 00        nop     
40cb 00        nop     
40cc 00        nop     
40cd 00        nop     
40ce 00        nop     
40cf 00        nop     
40d0 00        nop     
40d1 00        nop     
40d2 00        nop     
40d3 00        nop     
40d4 00        nop     
40d5 00        nop     
40d6 00        nop     
40d7 00        nop     
40d8 88        adc     a,b
40d9 00        nop     
40da 88        adc     a,b
40db 00        nop     
40dc 88        adc     a,b
40dd 10ff      djnz    40deh
40df aa        xor     d
40e0 ff        rst     38h
40e1 cc0f7e    call    z,7e0fh
40e4 78        ld      a,b
40e5 7f        ld      a,a
40e6 bc        cp      h
40e7 6f        ld      l,a
40e8 de7f      sbc     a,7fh
40ea 7f        ld      a,a
40eb ff        rst     38h
40ec 3f        ccf     
40ed ff        rst     38h
40ee 3f        ccf     
40ef 0f        rrca    
40f0 ce1f      adc     a,1fh
40f2 9f        sbc     a,a
40f3 0eaf      ld      c,0afh
40f5 e0        ret     po

40f6 df        rst     18h
40f7 f0        ret     p

40f8 ccf0ab    call    z,0abf0h
40fb f0        ret     p

40fc 67        ld      h,a
40fd f0        ret     p

40fe eef0      xor     0f0h
4100 ff        rst     38h
4101 eeff      xor     0ffh
4103 ff        rst     38h
4104 ff        rst     38h
4105 ff        rst     38h
4106 ff        rst     38h
4107 ff        rst     38h
4108 ff        rst     38h
4109 ff        rst     38h
410a ff        rst     38h
410b ff        rst     38h
410c ff        rst     38h
410d ff        rst     38h
410e ff        rst     38h
410f ff        rst     38h
4110 ff        rst     38h
4111 ff        rst     38h
4112 ff        rst     38h
4113 ff        rst     38h
4114 8f        adc     a,a
4115 0f        rrca    
4116 08        ex      af,af'
4117 00        nop     
4118 07        rlca    
4119 0f        rrca    
411a f0        ret     p

411b f0        ret     p

411c f0        ret     p

411d f0        ret     p

411e f0        ret     p

411f f0        ret     p

4120 f0        ret     p

4121 f0        ret     p

4122 f0        ret     p

4123 f0        ret     p

4124 f0        ret     p

4125 f0        ret     p

4126 f0        ret     p

4127 f0        ret     p

4128 f0        ret     p

4129 f0        ret     p

412a f0        ret     p

412b f0        ret     p

412c f0        ret     p

412d f0        ret     p

412e f0        ret     p

412f f0        ret     p

4130 f0        ret     p

4131 f0        ret     p

4132 f0        ret     p

4133 f0        ret     p

4134 f0        ret     p

4135 f0        ret     p

4136 f0        ret     p

4137 f0        ret     p

4138 f0        ret     p

4139 f0        ret     p

413a f0        ret     p

413b f0        ret     p

413c f0        ret     p

413d f0        ret     p

413e 0f        rrca    
413f 0f        rrca    
4140 77        ld      (hl),a
4141 df        rst     18h
4142 ee57      xor     57h
4144 ef        rst     28h
4145 7f        ld      a,a
4146 ff        rst     38h
4147 ff        rst     38h
4148 ff        rst     38h
4149 ff        rst     38h
414a ff        rst     38h
414b ff        rst     38h
414c ff        rst     38h
414d ff        rst     38h
414e ff        rst     38h
414f eeff      xor     0ffh
4151 ddff      rst     38h
4153 ba        cp      d
4154 0f        rrca    
4155 74        ld      (hl),h
4156 00        nop     
4157 f8        ret     m

4158 f0        ret     p

4159 f0        ret     p

415a f0        ret     p

415b f0        ret     p

415c f0        ret     p

415d f0        ret     p

415e f0        ret     p

415f f0        ret     p

4160 f0        ret     p

4161 f0        ret     p

4162 f0        ret     p

4163 f0        ret     p

4164 f0        ret     p

4165 f0        ret     p

4166 f0        ret     p

4167 f0        ret     p

4168 f0        ret     p

4169 f0        ret     p

416a f0        ret     p

416b f0        ret     p

416c f0        ret     p

416d f0        ret     p

416e f0        ret     p

416f f0        ret     p

4170 f0        ret     p

4171 f0        ret     p

4172 f0        ret     p

4173 f0        ret     p

4174 f0        ret     p

4175 f0        ret     p

4176 f0        ret     p

4177 f0        ret     p

4178 f0        ret     p

4179 f0        ret     p

417a f0        ret     p

417b f0        ret     p

417c f0        ret     p

417d f0        ret     p

417e 0f        rrca    
417f 0f        rrca    
4180 25        dec     h
4181 d7        rst     10h
4182 34        inc     (hl)
4183 23        inc     hl
4184 df        rst     18h
4185 ef        rst     28h
4186 ff        rst     38h
4187 ff        rst     38h
4188 cc11bb    call    z,0bb11h
418b ef        rst     28h
418c 74        ld      (hl),h
418d f0        ret     p

418e f8        ret     m

418f f0        ret     p

4190 f0        ret     p

4191 f0        ret     p

4192 f0        ret     p

4193 f0        ret     p

4194 f0        ret     p

4195 f0        ret     p

4196 0f        rrca    
4197 0f        rrca    
4198 0f        rrca    
4199 0f        rrca    
419a f0        ret     p

419b f0        ret     p

419c f0        ret     p

419d f0        ret     p

419e f0        ret     p

419f f0        ret     p

41a0 f0        ret     p

41a1 f0        ret     p

41a2 f0        ret     p

41a3 f0        ret     p

41a4 f0        ret     p

41a5 f0        ret     p

41a6 f0        ret     p

41a7 f0        ret     p

41a8 f0        ret     p

41a9 f0        ret     p

41aa f0        ret     p

41ab f0        ret     p

41ac f0        ret     p

41ad f0        ret     p

41ae f0        ret     p

41af f0        ret     p

41b0 f0        ret     p

41b1 f0        ret     p

41b2 f0        ret     p

41b3 f0        ret     p

41b4 f0        ret     p

41b5 f0        ret     p

41b6 f0        ret     p

41b7 f0        ret     p

41b8 f0        ret     p

41b9 f0        ret     p

41ba f0        ret     p

41bb f0        ret     p

41bc f0        ret     p

41bd f0        ret     p

41be 0f        rrca    
41bf 0f        rrca    
41c0 df        rst     18h
41c1 f0        ret     p

41c2 3ef0      ld      a,0f0h
41c4 fcf078    call    m,78f0h
41c7 f0        ret     p

41c8 f0        ret     p

41c9 f0        ret     p

41ca f0        ret     p

41cb f0        ret     p

41cc f0        ret     p

41cd f0        ret     p

41ce f0        ret     p

41cf f0        ret     p

41d0 f0        ret     p

41d1 f0        ret     p

41d2 f0        ret     p

41d3 f0        ret     p

41d4 f0        ret     p

41d5 f0        ret     p

41d6 f0        ret     p

41d7 f0        ret     p

41d8 f0        ret     p

41d9 f0        ret     p

41da f0        ret     p

41db f0        ret     p

41dc f0        ret     p

41dd f0        ret     p

41de f0        ret     p

41df f0        ret     p

41e0 f0        ret     p

41e1 f0        ret     p

41e2 f0        ret     p

41e3 f0        ret     p

41e4 f0        ret     p

41e5 f0        ret     p

41e6 f0        ret     p

41e7 f0        ret     p

41e8 f0        ret     p

41e9 f0        ret     p

41ea f0        ret     p

41eb f0        ret     p

41ec f0        ret     p

41ed f0        ret     p

41ee f0        ret     p

41ef f0        ret     p

41f0 f0        ret     p

41f1 f0        ret     p

41f2 f0        ret     p

41f3 f0        ret     p

41f4 f0        ret     p

41f5 f0        ret     p

41f6 f0        ret     p

41f7 f0        ret     p

41f8 f0        ret     p

41f9 f0        ret     p

41fa f0        ret     p

41fb f0        ret     p

41fc f0        ret     p

41fd f0        ret     p

41fe 0f        rrca    
41ff 0f        rrca    
4200 0f        rrca    
4201 0f        rrca    
4202 0f        rrca    
4203 0f        rrca    
4204 ff        rst     38h
4205 ff        rst     38h
4206 de77      sbc     a,77h
4208 48        ld      c,b
4209 deb3      sbc     a,0b3h
420b af        xor     a
420c 77        ld      (hl),a
420d bd        cp      l
420e ff        rst     38h
420f df        rst     18h
4210 ff        rst     38h
4211 ef        rst     28h
4212 eeff      xor     0ffh
4214 ccff6e    call    z,6effh
4217 33        inc     sp
4218 bb        cp      e
4219 df        rst     18h
421a 57        ld      d,a
421b dcf3ed    call    c,0edf3h
421e 86        add     a,(hl)
421f 47        ld      b,a
4220 cf        rst     08h
4221 f3        di      
4222 ef        rst     28h
4223 ff        rst     38h
4224 ff        rst     38h
4225 ff        rst     38h
4226 ff        rst     38h
4227 ff        rst     38h
4228 ff        rst     38h
4229 f0        ret     p

422a ff        rst     38h
422b 87        add     a,a
422c fe08      cp      08h
422e fe08      cp      08h
4230 e1        pop     hl
4231 00        nop     
4232 0e00      ld      c,00h
4234 00        nop     
4235 00        nop     
4236 00        nop     
4237 00        nop     
4238 00        nop     
4239 00        nop     
423a 00        nop     
423b 00        nop     
423c 00        nop     
423d 00        nop     
423e 00        nop     
423f 00        nop     
4240 0f        rrca    
4241 1e0f      ld      e,0fh
4243 0f        rrca    
4244 ff        rst     38h
4245 cf        rst     08h
4246 ff        rst     38h
4247 ef        rst     28h
4248 ff        rst     38h
4249 ff        rst     38h
424a f7        rst     30h
424b ff        rst     38h
424c 7b        ld      a,e
424d df        rst     18h
424e 7b        ld      a,e
424f df        rst     18h
4250 7f        ld      a,a
4251 df        rst     18h
4252 bf        cp      a
4253 df        rst     18h
4254 bf        cp      a
4255 df        rst     18h
4256 ff        rst     38h
4257 cf        rst     08h
4258 77        ld      (hl),a
4259 ff        rst     38h
425a c30f7f    jp      7f0fh
425d ff        rst     38h
425e ff        rst     38h
425f ff        rst     38h
4260 ff        rst     38h
4261 df        rst     18h
4262 ff        rst     38h
4263 8e        adc     a,(hl)
4264 ff        rst     38h
4265 ac        xor     h
4266 ff        rst     38h
4267 2c        inc     l
4268 f7        rst     30h
4269 2c        inc     l
426a 7b        ld      a,e
426b 68        ld      l,b
426c 35        dec     (hl)
426d 68        ld      l,b
426e 35        dec     (hl)
426f 68        ld      l,b
4270 35        dec     (hl)
4271 68        ld      l,b
4272 35        dec     (hl)
4273 68        ld      l,b
4274 35        dec     (hl)
4275 78        ld      a,b
4276 35        dec     (hl)
4277 0f        rrca    
4278 35        dec     (hl)
4279 78        ld      a,b
427a 35        dec     (hl)
427b ff        rst     38h
427c 35        dec     (hl)
427d ff        rst     38h
427e 35        dec     (hl)
427f ff        rst     38h
4280 f0        ret     p

4281 f0        ret     p

4282 0f        rrca    
4283 0f        rrca    
4284 0f        rrca    
4285 0f        rrca    
4286 0f        rrca    
4287 0f        rrca    
4288 ff        rst     38h
4289 ff        rst     38h
428a ff        rst     38h
428b ff        rst     38h
428c f0        ret     p

428d f0        ret     p

428e 00        nop     
428f 00        nop     
4290 00        nop     
4291 00        nop     
4292 f0        ret     p

4293 f0        ret     p

4294 ff        rst     38h
4295 ff        rst     38h
4296 0f        rrca    
4297 0f        rrca    
4298 ff        rst     38h
4299 ff        rst     38h
429a ff        rst     38h
429b ff        rst     38h
429c ff        rst     38h
429d ff        rst     38h
429e ff        rst     38h
429f ff        rst     38h
42a0 8f        adc     a,a
42a1 0f        rrca    
42a2 8f        adc     a,a
42a3 0f        rrca    
42a4 8f        adc     a,a
42a5 0f        rrca    
42a6 8f        adc     a,a
42a7 0f        rrca    
42a8 ad        xor     l
42a9 1e8f      ld      e,8fh
42ab 0f        rrca    
42ac 8f        adc     a,a
42ad 0f        rrca    
42ae ff        rst     38h
42af ff        rst     38h
42b0 f0        ret     p

42b1 f0        ret     p

42b2 f0        ret     p

42b3 f0        ret     p

42b4 f0        ret     p

42b5 f0        ret     p

42b6 0f        rrca    
42b7 0f        rrca    
42b8 f0        ret     p

42b9 f0        ret     p

42ba ff        rst     38h
42bb ff        rst     38h
42bc ff        rst     38h
42bd ff        rst     38h
42be ff        rst     38h
42bf ff        rst     38h
42c0 f0        ret     p

42c1 f0        ret     p

42c2 f0        ret     p

42c3 f0        ret     p

42c4 0f        rrca    
42c5 0f        rrca    
42c6 0f        rrca    
42c7 0f        rrca    
42c8 ff        rst     38h
42c9 ff        rst     38h
42ca ff        rst     38h
42cb ff        rst     38h
42cc f0        ret     p

42cd f0        ret     p

42ce 00        nop     
42cf 00        nop     
42d0 00        nop     
42d1 00        nop     
42d2 f0        ret     p

42d3 f0        ret     p

42d4 ff        rst     38h
42d5 ff        rst     38h
42d6 0f        rrca    
42d7 0f        rrca    
42d8 ff        rst     38h
42d9 ff        rst     38h
42da ff        rst     38h
42db fcffed    call    m,0edffh
42de ff        rst     38h
42df fc795f    call    m,5f79h
42e2 6b        ld      l,e
42e3 6d        ld      l,l
42e4 7b        ld      a,e
42e5 fd7b      ld      a,e
42e7 ed7bdf48  ld      sp,(48dfh)
42eb 57        ld      d,a
42ec 48        ld      c,b
42ed 77        ld      (hl),a
42ee c8        ret     z

42ef 66        ld      h,(hl)
42f0 f0        ret     p

42f1 f7        rst     30h
42f2 f0        ret     p

42f3 d4f0d5    call    nc,0d5f0h
42f6 0f        rrca    
42f7 2d        dec     l
42f8 f0        ret     p

42f9 95        sub     l
42fa ff        rst     38h
42fb ff        rst     38h
42fc ff        rst     38h
42fd ff        rst     38h
42fe ff        rst     38h
42ff ff        rst     38h
4300 00        nop     
4301 00        nop     
4302 00        nop     
4303 00        nop     
4304 00        nop     
4305 00        nop     
4306 00        nop     
4307 00        nop     
4308 00        nop     
4309 00        nop     
430a 00        nop     
430b 00        nop     
430c 00        nop     
430d 00        nop     
430e 00        nop     
430f 00        nop     
4310 00        nop     
4311 00        nop     
4312 00        nop     
4313 00        nop     
4314 00        nop     
4315 00        nop     
4316 00        nop     
4317 00        nop     
4318 00        nop     
4319 00        nop     
431a 00        nop     
431b 00        nop     
431c 00        nop     
431d 00        nop     
431e 00        nop     
431f 00        nop     
4320 00        nop     
4321 00        nop     
4322 00        nop     
4323 00        nop     
4324 00        nop     
4325 00        nop     
4326 00        nop     
4327 00        nop     
4328 00        nop     
4329 00        nop     
432a 00        nop     
432b 00        nop     
432c 00        nop     
432d 00        nop     
432e 00        nop     
432f 00        nop     
4330 00        nop     
4331 00        nop     
4332 00        nop     
4333 00        nop     
4334 00        nop     
4335 00        nop     
4336 00        nop     
4337 00        nop     
4338 00        nop     
4339 00        nop     
433a 00        nop     
433b 00        nop     
433c 00        nop     
433d 00        nop     
433e 00        nop     
433f 00        nop     
4340 35        dec     (hl)
4341 ff        rst     38h
4342 35        dec     (hl)
4343 ff        rst     38h
4344 35        dec     (hl)
4345 ff        rst     38h
4346 35        dec     (hl)
4347 ff        rst     38h
4348 34        inc     (hl)
4349 f0        ret     p

434a 07        rlca    
434b 0f        rrca    
434c 00        nop     
434d 00        nop     
434e 00        nop     
434f 00        nop     
4350 00        nop     
4351 00        nop     
4352 00        nop     
4353 00        nop     
4354 00        nop     
4355 00        nop     
4356 00        nop     
4357 00        nop     
4358 00        nop     
4359 00        nop     
435a 00        nop     
435b 00        nop     
435c 00        nop     
435d 00        nop     
435e 00        nop     
435f 00        nop     
4360 00        nop     
4361 00        nop     
4362 00        nop     
4363 00        nop     
4364 00        nop     
4365 00        nop     
4366 00        nop     
4367 00        nop     
4368 00        nop     
4369 00        nop     
436a 00        nop     
436b 00        nop     
436c 00        nop     
436d 00        nop     
436e 00        nop     
436f 00        nop     
4370 00        nop     
4371 00        nop     
4372 00        nop     
4373 00        nop     
4374 00        nop     
4375 00        nop     
4376 00        nop     
4377 00        nop     
4378 00        nop     
4379 00        nop     
437a 00        nop     
437b 00        nop     
437c 00        nop     
437d 00        nop     
437e 00        nop     
437f 00        nop     
4380 ff        rst     38h
4381 ff        rst     38h
4382 ff        rst     38h
4383 ff        rst     38h
4384 ff        rst     38h
4385 ff        rst     38h
4386 ff        rst     38h
4387 ff        rst     38h
4388 f0        ret     p

4389 f0        ret     p

438a 0f        rrca    
438b 0f        rrca    
438c 00        nop     
438d 00        nop     
438e 00        nop     
438f 00        nop     
4390 00        nop     
4391 00        nop     
4392 00        nop     
4393 00        nop     
4394 00        nop     
4395 00        nop     
4396 00        nop     
4397 00        nop     
4398 00        nop     
4399 00        nop     
439a 00        nop     
439b 00        nop     
439c 00        nop     
439d 00        nop     
439e 00        nop     
439f 00        nop     
43a0 00        nop     
43a1 00        nop     
43a2 00        nop     
43a3 00        nop     
43a4 00        nop     
43a5 00        nop     
43a6 00        nop     
43a7 00        nop     
43a8 00        nop     
43a9 00        nop     
43aa 00        nop     
43ab 00        nop     
43ac 00        nop     
43ad 00        nop     
43ae 00        nop     
43af 00        nop     
43b0 00        nop     
43b1 00        nop     
43b2 00        nop     
43b3 00        nop     
43b4 00        nop     
43b5 00        nop     
43b6 00        nop     
43b7 00        nop     
43b8 00        nop     
43b9 00        nop     
43ba 00        nop     
43bb 00        nop     
43bc 00        nop     
43bd 00        nop     
43be 00        nop     
43bf 00        nop     
43c0 ff        rst     38h
43c1 ff        rst     38h
43c2 ff        rst     38h
43c3 ff        rst     38h
43c4 ff        rst     38h
43c5 ff        rst     38h
43c6 ff        rst     38h
43c7 ff        rst     38h
43c8 f0        ret     p

43c9 f0        ret     p

43ca 0f        rrca    
43cb 0f        rrca    
43cc 00        nop     
43cd 00        nop     
43ce 00        nop     
43cf 00        nop     
43d0 00        nop     
43d1 00        nop     
43d2 00        nop     
43d3 00        nop     
43d4 00        nop     
43d5 00        nop     
43d6 00        nop     
43d7 00        nop     
43d8 00        nop     
43d9 00        nop     
43da 00        nop     
43db 00        nop     
43dc 00        nop     
43dd 00        nop     
43de 00        nop     
43df 00        nop     
43e0 00        nop     
43e1 00        nop     
43e2 00        nop     
43e3 00        nop     
43e4 00        nop     
43e5 00        nop     
43e6 00        nop     
43e7 00        nop     
43e8 00        nop     
43e9 00        nop     
43ea 00        nop     
43eb 00        nop     
43ec 00        nop     
43ed 00        nop     
43ee 00        nop     
43ef 00        nop     
43f0 00        nop     
43f1 00        nop     
43f2 00        nop     
43f3 00        nop     
43f4 00        nop     
43f5 00        nop     
43f6 00        nop     
43f7 00        nop     
43f8 00        nop     
43f9 00        nop     
43fa 00        nop     
43fb 00        nop     
43fc 00        nop     
43fd 00        nop     
43fe 00        nop     
43ff 00        nop     
4400 00        nop     
4401 00        nop     
4402 00        nop     
4403 00        nop     
4404 00        nop     
4405 00        nop     
4406 00        nop     
4407 00        nop     
4408 00        nop     
4409 00        nop     
440a 00        nop     
440b 00        nop     
440c 0f        rrca    
440d 0f        rrca    
440e 0f        rrca    
440f 0f        rrca    
4410 f0        ret     p

4411 f0        ret     p

4412 f0        ret     p

4413 f0        ret     p

4414 f0        ret     p

4415 f0        ret     p

4416 f0        ret     p

4417 f0        ret     p

4418 f0        ret     p

4419 f0        ret     p

441a e2f8e6    jp      po,0e6f8h
441d 70        ld      (hl),b
441e 33        inc     sp
441f 70        ld      (hl),b
4420 11f854    ld      de,54f8h
4423 87        add     a,a
4424 de3f      sbc     a,3fh
4426 8f        adc     a,a
4427 6f        ld      l,a
4428 ff        rst     38h
4429 8e        adc     a,(hl)
442a ff        rst     38h
442b ff        rst     38h
442c 0f        rrca    
442d 0f        rrca    
442e 0f        rrca    
442f 0f        rrca    
4430 0f        rrca    
4431 0f        rrca    
4432 f0        ret     p

4433 f0        ret     p

4434 f0        ret     p

4435 f0        ret     p

4436 f0        ret     p

4437 f0        ret     p

4438 f2f0f7    jp      p,0f7f0h
443b f0        ret     p

443c f6f0      or      0f0h
443e f0        ret     p

443f f0        ret     p

4440 00        nop     
4441 00        nop     
4442 00        nop     
4443 00        nop     
4444 00        nop     
4445 00        nop     
4446 00        nop     
4447 00        nop     
4448 00        nop     
4449 00        nop     
444a 00        nop     
444b 00        nop     
444c 00        nop     
444d 00        nop     
444e 08        ex      af,af'
444f 00        nop     
4450 0c        inc     c
4451 00        nop     
4452 86        add     a,(hl)
4453 00        nop     
4454 86        add     a,(hl)
4455 00        nop     
4456 86        add     a,(hl)
4457 00        nop     
4458 86        add     a,(hl)
4459 00        nop     
445a 86        add     a,(hl)
445b 00        nop     
445c 87        add     a,a
445d 0f        rrca    
445e 77        ld      (hl),a
445f ff        rst     38h
4460 f0        ret     p

4461 f0        ret     p

4462 0f        rrca    
4463 0f        rrca    
4464 ff        rst     38h
4465 ff        rst     38h
4466 77        ld      (hl),a
4467 ff        rst     38h
4468 8f        adc     a,a
4469 0f        rrca    
446a 0f        rrca    
446b 0f        rrca    
446c 0f        rrca    
446d 0f        rrca    
446e 78        ld      a,b
446f f0        ret     p

4470 f1        pop     af
4471 f8        ret     m

4472 f1        pop     af
4473 78        ld      a,b
4474 f2f0f0    jp      p,0f0f0h
4477 f0        ret     p

4478 f4f0f4    call    p,0f4f0h
447b f0        ret     p

447c 78        ld      a,b
447d f8        ret     m

447e 79        ld      a,c
447f c1        pop     bc
4480 00        nop     
4481 00        nop     
4482 00        nop     
4483 00        nop     
4484 00        nop     
4485 00        nop     
4486 00        nop     
4487 00        nop     
4488 00        nop     
4489 00        nop     
448a 00        nop     
448b 00        nop     
448c 00        nop     
448d 00        nop     
448e 00        nop     
448f 00        nop     
4490 00        nop     
4491 00        nop     
4492 00        nop     
4493 00        nop     
4494 00        nop     
4495 00        nop     
4496 00        nop     
4497 00        nop     
4498 00        nop     
4499 00        nop     
449a 00        nop     
449b 00        nop     
449c 0f        rrca    
449d 08        ex      af,af'
449e ff        rst     38h
449f 8c        adc     a,h
44a0 e1        pop     hl
44a1 8c        adc     a,h
44a2 0f        rrca    
44a3 ef        rst     28h
44a4 ff        rst     38h
44a5 feff      cp      0ffh
44a7 ee0f      xor     0fh
44a9 ff        rst     38h
44aa 0f        rrca    
44ab 7f        ld      a,a
44ac 0f        rrca    
44ad 0f        rrca    
44ae f0        ret     p

44af 0f        rrca    
44b0 f0        ret     p

44b1 87        add     a,a
44b2 f0        ret     p

44b3 f0        ret     p

44b4 f0        ret     p

44b5 f0        ret     p

44b6 c3dcf0    jp      0f0dch
44b9 7e        ld      a,(hl)
44ba d3f9      out     (0f9h),a
44bc 7e        ld      a,(hl)
44bd e2bcc5    jp      po,0c5bch
44c0 00        nop     
44c1 00        nop     
44c2 00        nop     
44c3 00        nop     
44c4 00        nop     
44c5 00        nop     
44c6 00        nop     
44c7 00        nop     
44c8 00        nop     
44c9 00        nop     
44ca 00        nop     
44cb 00        nop     
44cc 010f12    ld      bc,120fh
44cf c334f0    jp      0f034h
44d2 78        ld      a,b
44d3 f0        ret     p

44d4 78        ld      a,b
44d5 c0        ret     nz

44d6 78        ld      a,b
44d7 f7        rst     30h
44d8 78        ld      a,b
44d9 ee5b      xor     5bh
44db 44        ld      b,h
44dc 6a        ld      l,d
44dd 23        inc     hl
44de 7b        ld      a,e
44df 67        ld      h,a
44e0 d2fff1    jp      nc,0f1ffh
44e3 7f        ld      a,a
44e4 c3ee1f    jp      1feeh
44e7 ccffff    call    z,0ffffh
44ea ff        rst     38h
44eb 8f        adc     a,a
44ec 0f        rrca    
44ed 1e0f      ld      e,0fh
44ef 3c        inc     a
44f0 0f        rrca    
44f1 bb        cp      e
44f2 f1        pop     af
44f3 77        ld      (hl),a
44f4 e2ffd5    jp      po,0d5ffh
44f7 ff        rst     38h
44f8 bb        cp      e
44f9 ff        rst     38h
44fa 77        ld      (hl),a
44fb ff        rst     38h
44fc ff        rst     38h
44fd ff        rst     38h
44fe ff        rst     38h
44ff ff        rst     38h
4500 e7        rst     20h
4501 90        sub     b
4502 e7        rst     20h
4503 b2        or      d
4504 e7        rst     20h
4505 c4e7d4    call    nz,0d4e7h
4508 e7        rst     20h
4509 80        add     a,b
450a f7        rst     30h
450b ba        cp      d
450c f7        rst     30h
450d 74        ld      (hl),h
450e f7        rst     30h
450f f0        ret     p

4510 e7        rst     20h
4511 f0        ret     p

4512 e7        rst     20h
4513 f0        ret     p

4514 e7        rst     20h
4515 f0        ret     p

4516 6f        ld      l,a
4517 8f        adc     a,a
4518 6f        ld      l,a
4519 8f        adc     a,a
451a e7        rst     20h
451b f0        ret     p

451c e7        rst     20h
451d f0        ret     p

451e e7        rst     20h
451f f0        ret     p

4520 e7        rst     20h
4521 f0        ret     p

4522 e7        rst     20h
4523 f0        ret     p

4524 e7        rst     20h
4525 f0        ret     p

4526 e7        rst     20h
4527 c3e7b7    jp      0b7e7h
452a e7        rst     20h
452b 7c        ld      a,h
452c e7        rst     20h
452d fb        ei      
452e e7        rst     20h
452f c7        rst     00h
4530 e7        rst     20h
4531 c7        rst     00h
4532 e7        rst     20h
4533 c7        rst     00h
4534 e7        rst     20h
4535 c7        rst     00h
4536 e7        rst     20h
4537 c3e787    jp      87e7h
453a e7        rst     20h
453b 87        add     a,a
453c e7        rst     20h
453d 87        add     a,a
453e 6f        ld      l,a
453f 8f        adc     a,a
4540 f29aa4    jp      p,0a49ah
4543 90        sub     b
4544 80        add     a,b
4545 f8        ret     m

4546 74        ld      (hl),h
4547 f0        ret     p

4548 70        ld      (hl),b
4549 f0        ret     p

454a f0        ret     p

454b f0        ret     p

454c f0        ret     p

454d f0        ret     p

454e f0        ret     p

454f f0        ret     p

4550 f0        ret     p

4551 f0        ret     p

4552 f0        ret     p

4553 f0        ret     p

4554 f0        ret     p

4555 f0        ret     p

4556 f0        ret     p

4557 f0        ret     p

4558 f0        ret     p

4559 f0        ret     p

455a f0        ret     p

455b f0        ret     p

455c f0        ret     p

455d f0        ret     p

455e f0        ret     p

455f f0        ret     p

4560 f0        ret     p

4561 f0        ret     p

4562 f0        ret     p

4563 e1        pop     hl
4564 f0        ret     p

4565 0f        rrca    
4566 0f        rrca    
4567 0f        rrca    
4568 ff        rst     38h
4569 ff        rst     38h
456a fef0      cp      0f0h
456c 0f        rrca    
456d 0f        rrca    
456e 0f        rrca    
456f cf        rst     08h
4570 0f        rrca    
4571 0f        rrca    
4572 e7        rst     20h
4573 0f        rrca    
4574 0f        rrca    
4575 0f        rrca    
4576 0f        rrca    
4577 0f        rrca    
4578 0f        rrca    
4579 0f        rrca    
457a af        xor     a
457b 0f        rrca    
457c 0f        rrca    
457d 7f        ld      a,a
457e 0f        rrca    
457f 0f        rrca    
4580 70        ld      (hl),b
4581 c5        push    bc
4582 f0        ret     p

4583 c5        push    bc
4584 f0        ret     p

4585 c5        push    bc
4586 f0        ret     p

4587 c5        push    bc
4588 f0        ret     p

4589 c5        push    bc
458a f0        ret     p

458b c5        push    bc
458c f0        ret     p

458d c5        push    bc
458e f0        ret     p

458f c5        push    bc
4590 f0        ret     p

4591 c0        ret     nz

4592 f0        ret     p

4593 f0        ret     p

4594 0f        rrca    
4595 0f        rrca    
4596 0f        rrca    
4597 0f        rrca    
4598 f0        ret     p

4599 f0        ret     p

459a f0        ret     p

459b e0        ret     po

459c f0        ret     p

459d c2f0e1    jp      nz,0e1f0h
45a0 f0        ret     p

45a1 f0        ret     p

45a2 0f        rrca    
45a3 78        ld      a,b
45a4 0f        rrca    
45a5 0f        rrca    
45a6 e1        pop     hl
45a7 0f        rrca    
45a8 ff        rst     38h
45a9 ff        rst     38h
45aa f0        ret     p

45ab f0        ret     p

45ac 0f        rrca    
45ad 0f        rrca    
45ae 0f        rrca    
45af 6f        ld      l,a
45b0 0f        rrca    
45b1 0f        rrca    
45b2 0f        rrca    
45b3 0f        rrca    
45b4 0f        rrca    
45b5 0f        rrca    
45b6 0f        rrca    
45b7 0f        rrca    
45b8 0f        rrca    
45b9 0f        rrca    
45ba 0f        rrca    
45bb ff        rst     38h
45bc 0f        rrca    
45bd 0f        rrca    
45be 0f        rrca    
45bf 0f        rrca    
45c0 ff        rst     38h
45c1 ff        rst     38h
45c2 ff        rst     38h
45c3 ff        rst     38h
45c4 ff        rst     38h
45c5 ff        rst     38h
45c6 ff        rst     38h
45c7 ff        rst     38h
45c8 ff        rst     38h
45c9 ff        rst     38h
45ca ff        rst     38h
45cb ff        rst     38h
45cc ff        rst     38h
45cd ff        rst     38h
45ce 0f        rrca    
45cf ff        rst     38h
45d0 01ffc1    ld      bc,0c1ffh
45d3 ff        rst     38h
45d4 c1        pop     bc
45d5 8d        adc     a,l
45d6 93        sub     e
45d7 1b        dec     de
45d8 27        daa     
45d9 27        daa     
45da ce4e      adc     a,4eh
45dc 8d        adc     a,l
45dd 9c        sbc     a,h
45de 33        inc     sp
45df 1a        ld      a,(de)
45e0 83        add     a,e
45e1 34        inc     (hl)
45e2 84        add     a,h
45e3 78        ld      a,b
45e4 c3f078    jp      78f0h
45e7 f0        ret     p

45e8 ff        rst     38h
45e9 defe      sbc     a,0feh
45eb e3        ex      (sp),hl
45ec 0f        rrca    
45ed fd0f      rrca    
45ef 3e0f      ld      a,0fh
45f1 3e0f      ld      a,0fh
45f3 3e7f      ld      a,7fh
45f5 3e0f      ld      a,0fh
45f7 b4        or      h
45f8 0f        rrca    
45f9 1e8f      ld      e,8fh
45fb 9e        sbc     a,(hl)
45fc 0f        rrca    
45fd 1e0f      ld      e,0fh
45ff 1f        rra     
4600 6f        ld      l,a
4601 8f        adc     a,a
4602 e7        rst     20h
4603 87        add     a,a
4604 e7        rst     20h
4605 87        add     a,a
4606 e7        rst     20h
4607 87        add     a,a
4608 e7        rst     20h
4609 c3e7c7    jp      0c7e7h
460c e7        rst     20h
460d c7        rst     00h
460e e7        rst     20h
460f c7        rst     00h
4610 e7        rst     20h
4611 c7        rst     00h
4612 e7        rst     20h
4613 fb        ei      
4614 e7        rst     20h
4615 7c        ld      a,h
4616 e7        rst     20h
4617 b7        or      a
4618 e7        rst     20h
4619 c3e7f0    jp      0f0e7h
461c e7        rst     20h
461d f0        ret     p

461e e7        rst     20h
461f f0        ret     p

4620 e7        rst     20h
4621 f0        ret     p

4622 e7        rst     20h
4623 f0        ret     p

4624 e7        rst     20h
4625 f0        ret     p

4626 6f        ld      l,a
4627 0f        rrca    
4628 6f        ld      l,a
4629 0f        rrca    
462a e7        rst     20h
462b f0        ret     p

462c e7        rst     20h
462d f0        ret     p

462e e7        rst     20h
462f f0        ret     p

4630 e7        rst     20h
4631 f0        ret     p

4632 e7        rst     20h
4633 f0        ret     p

4634 e7        rst     20h
4635 f0        ret     p

4636 e7        rst     20h
4637 f0        ret     p

4638 e7        rst     20h
4639 b0        or      b
463a e7        rst     20h
463b 90        sub     b
463c f0        ret     p

463d f0        ret     p

463e f0        ret     p

463f f0        ret     p

4640 0f        rrca    
4641 0f        rrca    
4642 0f        rrca    
4643 7f        ld      a,a
4644 af        xor     a
4645 0f        rrca    
4646 0f        rrca    
4647 0f        rrca    
4648 0f        rrca    
4649 0f        rrca    
464a 0f        rrca    
464b 0f        rrca    
464c e7        rst     20h
464d 0f        rrca    
464e 0f        rrca    
464f 0f        rrca    
4650 0f        rrca    
4651 cf        rst     08h
4652 0f        rrca    
4653 0f        rrca    
4654 fef0      cp      0f0h
4656 ff        rst     38h
4657 ff        rst     38h
4658 0f        rrca    
4659 0f        rrca    
465a f0        ret     p

465b 0f        rrca    
465c f0        ret     p

465d e1        pop     hl
465e f0        ret     p

465f f0        ret     p

4660 f0        ret     p

4661 f0        ret     p

4662 f0        ret     p

4663 f0        ret     p

4664 f0        ret     p

4665 f0        ret     p

4666 f0        ret     p

4667 f0        ret     p

4668 f0        ret     p

4669 f0        ret     p

466a f0        ret     p

466b f0        ret     p

466c f0        ret     p

466d f0        ret     p

466e f0        ret     p

466f f0        ret     p

4670 f0        ret     p

4671 f0        ret     p

4672 f0        ret     p

4673 f0        ret     p

4674 f0        ret     p

4675 f0        ret     p

4676 f0        ret     p

4677 f0        ret     p

4678 f0        ret     p

4679 f0        ret     p

467a f0        ret     p

467b f0        ret     p

467c f0        ret     p

467d f0        ret     p

467e 0f        rrca    
467f 3c        inc     a
4680 0f        rrca    
4681 0f        rrca    
4682 0f        rrca    
4683 0f        rrca    
4684 0f        rrca    
4685 ff        rst     38h
4686 0f        rrca    
4687 0f        rrca    
4688 0f        rrca    
4689 0f        rrca    
468a 0f        rrca    
468b 0f        rrca    
468c 0f        rrca    
468d 0f        rrca    
468e 0f        rrca    
468f 0f        rrca    
4690 0f        rrca    
4691 6f        ld      l,a
4692 0f        rrca    
4693 0f        rrca    
4694 f0        ret     p

4695 f0        ret     p

4696 ff        rst     38h
4697 ff        rst     38h
4698 e1        pop     hl
4699 0f        rrca    
469a 0f        rrca    
469b 0f        rrca    
469c 0f        rrca    
469d 78        ld      a,b
469e f0        ret     p

469f f0        ret     p

46a0 f0        ret     p

46a1 f0        ret     p

46a2 f0        ret     p

46a3 f0        ret     p

46a4 f0        ret     p

46a5 f0        ret     p

46a6 f0        ret     p

46a7 f0        ret     p

46a8 0f        rrca    
46a9 0f        rrca    
46aa f0        ret     p

46ab f0        ret     p

46ac f0        ret     p

46ad f0        ret     p

46ae f0        ret     p

46af f0        ret     p

46b0 f0        ret     p

46b1 f0        ret     p

46b2 f0        ret     p

46b3 f0        ret     p

46b4 f0        ret     p

46b5 f0        ret     p

46b6 f0        ret     p

46b7 f0        ret     p

46b8 f0        ret     p

46b9 f0        ret     p

46ba f0        ret     p

46bb f0        ret     p

46bc f0        ret     p

46bd f0        ret     p

46be f0        ret     p

46bf f0        ret     p

46c0 0f        rrca    
46c1 1f        rra     
46c2 0f        rrca    
46c3 1e8f      ld      e,8fh
46c5 9e        sbc     a,(hl)
46c6 0f        rrca    
46c7 1e0f      ld      e,0fh
46c9 b4        or      h
46ca 7f        ld      a,a
46cb 3e0f      ld      a,0fh
46cd 3e0f      ld      a,0fh
46cf 3e0f      ld      a,0fh
46d1 3e0f      ld      a,0fh
46d3 fdfee3    cp      0e3h
46d6 ff        rst     38h
46d7 de78      sbc     a,78h
46d9 f0        ret     p

46da f0        ret     p

46db f0        ret     p

46dc f0        ret     p

46dd f0        ret     p

46de f0        ret     p

46df f0        ret     p

46e0 f0        ret     p

46e1 f0        ret     p

46e2 f0        ret     p

46e3 f0        ret     p

46e4 f0        ret     p

46e5 f0        ret     p

46e6 f0        ret     p

46e7 f0        ret     p

46e8 f0        ret     p

46e9 f0        ret     p

46ea f0        ret     p

46eb f0        ret     p

46ec f0        ret     p

46ed f0        ret     p

46ee f0        ret     p

46ef f0        ret     p

46f0 f0        ret     p

46f1 f0        ret     p

46f2 f0        ret     p

46f3 f0        ret     p

46f4 f0        ret     p

46f5 f0        ret     p

46f6 f0        ret     p

46f7 f0        ret     p

46f8 f0        ret     p

46f9 f0        ret     p

46fa f0        ret     p

46fb f0        ret     p

46fc f0        ret     p

46fd f0        ret     p

46fe f0        ret     p

46ff f0        ret     p

4700 0f        rrca    
4701 0f        rrca    
4702 0f        rrca    
4703 0f        rrca    
4704 ff        rst     38h
4705 ff        rst     38h
4706 0f        rrca    
4707 ff        rst     38h
4708 0e73      ld      c,73h
470a ef        rst     28h
470b 31ff3f    ld      sp,3fffh
470e ff        rst     38h
470f 7f        ld      a,a
4710 99        sbc     a,c
4711 de01      sbc     a,01h
4713 3eff      ld      a,0ffh
4715 5c        ld      e,h
4716 f7        rst     30h
4717 a9        xor     c
4718 ff        rst     38h
4719 a9        xor     c
471a df        rst     18h
471b df        rst     18h
471c bf        cp      a
471d 57        ld      d,a
471e 6d        ld      l,l
471f 3f        ccf     
4720 c3ffff    jp      0ffffh
4723 ff        rst     38h
4724 ff        rst     38h
4725 ff        rst     38h
4726 ff        rst     38h
4727 f0        ret     p

4728 fe0f      cp      0fh
472a ed00      db      0edh, 00h        ; Undocumented 8 T-State NOP
472c ed00      db      0edh, 00h        ; Undocumented 8 T-State NOP
472e c2000c    jp      nz,0c00h
4731 00        nop     
4732 00        nop     
4733 00        nop     
4734 00        nop     
4735 00        nop     
4736 00        nop     
4737 00        nop     
4738 00        nop     
4739 00        nop     
473a 00        nop     
473b 00        nop     
473c 00        nop     
473d 00        nop     
473e 00        nop     
473f 00        nop     
4740 0f        rrca    
4741 f0        ret     p

4742 0f        rrca    
4743 0f        rrca    
4744 ef        rst     28h
4745 0f        rrca    
4746 ff        rst     38h
4747 0f        rrca    
4748 ff        rst     38h
4749 ff        rst     38h
474a ff        rst     38h
474b bb        cp      e
474c 7f        ld      a,a
474d bb        cp      e
474e bf        cp      a
474f cdbfef    call    0efbfh
4752 9f        sbc     a,a
4753 ff        rst     38h
4754 cf        rst     08h
4755 ff        rst     38h
4756 cf        rst     08h
4757 7f        ld      a,a
4758 ff        rst     38h
4759 8f        adc     a,a
475a ff        rst     38h
475b ff        rst     38h
475c ff        rst     38h
475d ff        rst     38h
475e ff        rst     38h
475f ff        rst     38h
4760 ff        rst     38h
4761 ff        rst     38h
4762 ff        rst     38h
4763 ff        rst     38h
4764 ff        rst     38h
4765 ff        rst     38h
4766 f3        di      
4767 ff        rst     38h
4768 3c        inc     a
4769 f0        ret     p

476a 03        inc     bc
476b 0f        rrca    
476c 00        nop     
476d 00        nop     
476e 00        nop     
476f 00        nop     
4770 00        nop     
4771 00        nop     
4772 00        nop     
4773 00        nop     
4774 00        nop     
4775 00        nop     
4776 00        nop     
4777 00        nop     
4778 00        nop     
4779 00        nop     
477a 00        nop     
477b 00        nop     
477c 00        nop     
477d 00        nop     
477e 00        nop     
477f 00        nop     
4780 f0        ret     p

4781 f0        ret     p

4782 0f        rrca    
4783 0f        rrca    
4784 0f        rrca    
4785 0f        rrca    
4786 0f        rrca    
4787 0f        rrca    
4788 ff        rst     38h
4789 ff        rst     38h
478a ff        rst     38h
478b ff        rst     38h
478c ff        rst     38h
478d ff        rst     38h
478e 0f        rrca    
478f 0f        rrca    
4790 0f        rrca    
4791 0f        rrca    
4792 ff        rst     38h
4793 ff        rst     38h
4794 ff        rst     38h
4795 ff        rst     38h
4796 ff        rst     38h
4797 ff        rst     38h
4798 0f        rrca    
4799 0f        rrca    
479a ff        rst     38h
479b ff        rst     38h
479c ff        rst     38h
479d ff        rst     38h
479e ff        rst     38h
479f ff        rst     38h
47a0 ff        rst     38h
47a1 ff        rst     38h
47a2 ff        rst     38h
47a3 ff        rst     38h
47a4 ff        rst     38h
47a5 ff        rst     38h
47a6 ff        rst     38h
47a7 ff        rst     38h
47a8 f0        ret     p

47a9 f0        ret     p

47aa 0f        rrca    
47ab 0f        rrca    
47ac 00        nop     
47ad 00        nop     
47ae 00        nop     
47af 00        nop     
47b0 00        nop     
47b1 00        nop     
47b2 00        nop     
47b3 00        nop     
47b4 00        nop     
47b5 00        nop     
47b6 00        nop     
47b7 00        nop     
47b8 00        nop     
47b9 00        nop     
47ba 00        nop     
47bb 00        nop     
47bc 00        nop     
47bd 00        nop     
47be 00        nop     
47bf 00        nop     
47c0 f0        ret     p

47c1 c30f0f    jp      0f0fh
47c4 0f        rrca    
47c5 1f        rra     
47c6 0f        rrca    
47c7 3f        ccf     
47c8 ff        rst     38h
47c9 ff        rst     38h
47ca ff        rst     38h
47cb 67        ld      h,a
47cc ff        rst     38h
47cd 67        ld      h,a
47ce 2ec6      ld      l,0c6h
47d0 3f        ccf     
47d1 df        rst     18h
47d2 ff        rst     38h
47d3 ff        rst     38h
47d4 ff        rst     38h
47d5 ff        rst     38h
47d6 ff        rst     38h
47d7 fdff      rst     38h
47d9 ecffde    call    pe,0deffh
47dc ff        rst     38h
47dd deff      sbc     a,0ffh
47df ef        rst     28h
47e0 ff        rst     38h
47e1 ff        rst     38h
47e2 ff        rst     38h
47e3 ff        rst     38h
47e4 ff        rst     38h
47e5 ff        rst     38h
47e6 ff        rst     38h
47e7 ff        rst     38h
47e8 f1        pop     af
47e9 ff        rst     38h
47ea 1eff      ld      e,0ffh
47ec 01f701    ld      bc,01f7h
47ef f7        rst     30h
47f0 00        nop     
47f1 78        ld      a,b
47f2 00        nop     
47f3 07        rlca    
47f4 00        nop     
47f5 00        nop     
47f6 00        nop     
47f7 00        nop     
47f8 00        nop     
47f9 00        nop     
47fa 00        nop     
47fb 00        nop     
47fc 00        nop     
47fd 00        nop     
47fe 00        nop     
47ff 00        nop     
4800 00        nop     
4801 00        nop     
4802 00        nop     
4803 00        nop     
4804 00        nop     
4805 00        nop     
4806 00        nop     
4807 00        nop     
4808 00        nop     
4809 00        nop     
480a 00        nop     
480b 00        nop     
480c 00        nop     
480d 00        nop     
480e 00        nop     
480f 00        nop     
4810 00        nop     
4811 00        nop     
4812 00        nop     
4813 010003    ld      bc,0300h
4816 00        nop     
4817 12        ld      (de),a
4818 00        nop     
4819 12        ld      (de),a
481a 00        nop     
481b 02        ld      (bc),a
481c 00        nop     
481d 02        ld      (bc),a
481e 00        nop     
481f 02        ld      (bc),a
4820 00        nop     
4821 02        ld      (bc),a
4822 00        nop     
4823 02        ld      (bc),a
4824 00        nop     
4825 02        ld      (bc),a
4826 cc032e    call    z,2e03h
4829 33        inc     sp
482a 1f        rra     
482b ff        rst     38h
482c 0f        rrca    
482d 0f        rrca    
482e c30fe1    jp      0e10fh
4831 0f        rrca    
4832 f0        ret     p

4833 f0        ret     p

4834 f0        ret     p

4835 f0        ret     p

4836 f0        ret     p

4837 f0        ret     p

4838 f0        ret     p

4839 f0        ret     p

483a f0        ret     p

483b f0        ret     p

483c f0        ret     p

483d f0        ret     p

483e f0        ret     p

483f f0        ret     p

4840 00        nop     
4841 00        nop     
4842 00        nop     
4843 00        nop     
4844 00        nop     
4845 00        nop     
4846 00        nop     
4847 00        nop     
4848 00        nop     
4849 00        nop     
484a 00        nop     
484b 00        nop     
484c 00        nop     
484d 00        nop     
484e 07        rlca    
484f 0f        rrca    
4850 78        ld      a,b
4851 3f        ccf     
4852 f0        ret     p

4853 f0        ret     p

4854 80        add     a,b
4855 00        nop     
4856 00        nop     
4857 00        nop     
4858 010c05    ld      bc,050ch
485b 04        inc     b
485c ee44      xor     44h
485e ff        rst     38h
485f 88        adc     a,b
4860 cc10cc    call    z,0cc10h
4863 2176c3    ld      hl,0c376h
4866 0f        rrca    
4867 0f        rrca    
4868 ff        rst     38h
4869 ff        rst     38h
486a ff        rst     38h
486b ff        rst     38h
486c 0f        rrca    
486d 0f        rrca    
486e 0f        rrca    
486f 0f        rrca    
4870 0f        rrca    
4871 0f        rrca    
4872 f0        ret     p

4873 f0        ret     p

4874 f0        ret     p

4875 f0        ret     p

4876 f0        ret     p

4877 f0        ret     p

4878 f0        ret     p

4879 f0        ret     p

487a f4f0fe    call    p,0fef0h
487d f0        ret     p

487e fcf000    call    m,00f0h
4881 00        nop     
4882 00        nop     
4883 00        nop     
4884 00        nop     
4885 00        nop     
4886 00        nop     
4887 00        nop     
4888 00        nop     
4889 00        nop     
488a 00        nop     
488b 00        nop     
488c 00        nop     
488d 00        nop     
488e 08        ex      af,af'
488f 00        nop     
4890 8c        adc     a,h
4891 00        nop     
4892 4e        ld      c,(hl)
4893 00        nop     
4894 a7        and     a
4895 00        nop     
4896 a7        and     a
4897 00        nop     
4898 a7        and     a
4899 00        nop     
489a a7        and     a
489b 00        nop     
489c a7        and     a
489d 0f        rrca    
489e a7        and     a
489f 0f        rrca    
48a0 f1        pop     af
48a1 08        ex      af,af'
48a2 f0        ret     p

48a3 7f        ld      a,a
48a4 7f        ld      a,a
48a5 ff        rst     38h
48a6 ff        rst     38h
48a7 ff        rst     38h
48a8 8f        adc     a,a
48a9 0f        rrca    
48aa 0f        rrca    
48ab 0f        rrca    
48ac 0f        rrca    
48ad 0f        rrca    
48ae 78        ld      a,b
48af f0        ret     p

48b0 f0        ret     p

48b1 f0        ret     p

48b2 f0        ret     p

48b3 f0        ret     p

48b4 f0        ret     p

48b5 f0        ret     p

48b6 f0        ret     p

48b7 f0        ret     p

48b8 f0        ret     p

48b9 f0        ret     p

48ba f0        ret     p

48bb f8        ret     m

48bc f1        pop     af
48bd fcf1f8    call    m,0f8f1h
48c0 00        nop     
48c1 00        nop     
48c2 00        nop     
48c3 00        nop     
48c4 00        nop     
48c5 00        nop     
48c6 00        nop     
48c7 00        nop     
48c8 00        nop     
48c9 00        nop     
48ca 00        nop     
48cb 00        nop     
48cc 00        nop     
48cd 00        nop     
48ce 00        nop     
48cf 010003    ld      bc,0300h
48d2 00        nop     
48d3 1600      ld      d,00h
48d5 3c        inc     a
48d6 00        nop     
48d7 3c        inc     a
48d8 00        nop     
48d9 3c        inc     a
48da 00        nop     
48db 3c        inc     a
48dc 0f        rrca    
48dd 3c        inc     a
48de ff        rst     38h
48df 3c        inc     a
48e0 113fff    ld      de,0ff3fh
48e3 3f        ccf     
48e4 ff        rst     38h
48e5 bf        cp      a
48e6 ff        rst     38h
48e7 8f        adc     a,a
48e8 0e77      ld      c,77h
48ea 1ef1      ld      e,0f1h
48ec 0f        rrca    
48ed 88        adc     a,b
48ee e1        pop     hl
48ef 0f        rrca    
48f0 f0        ret     p

48f1 0f        rrca    
48f2 f0        ret     p

48f3 f0        ret     p

48f4 f0        ret     p

48f5 f0        ret     p

48f6 f0        ret     p

48f7 f0        ret     p

48f8 f0        ret     p

48f9 f0        ret     p

48fa f0        ret     p

48fb f0        ret     p

48fc f0        ret     p

48fd f0        ret     p

48fe f0        ret     p

48ff f0        ret     p

4900 f0        ret     p

4901 f0        ret     p

4902 f0        ret     p

4903 f0        ret     p

4904 f0        ret     p

4905 f0        ret     p

4906 f0        ret     p

4907 f0        ret     p

4908 f0        ret     p

4909 f0        ret     p

490a f0        ret     p

490b f0        ret     p

490c f0        ret     p

490d f0        ret     p

490e f0        ret     p

490f f0        ret     p

4910 f0        ret     p

4911 f0        ret     p

4912 f0        ret     p

4913 f0        ret     p

4914 f0        ret     p

4915 f0        ret     p

4916 0f        rrca    
4917 0f        rrca    
4918 0f        rrca    
4919 0f        rrca    
491a f0        ret     p

491b f0        ret     p

491c f0        ret     p

491d f0        ret     p

491e f0        ret     p

491f f0        ret     p

4920 f0        ret     p

4921 f0        ret     p

4922 f0        ret     p

4923 f0        ret     p

4924 f0        ret     p

4925 f0        ret     p

4926 f0        ret     p

4927 f0        ret     p

4928 f0        ret     p

4929 f0        ret     p

492a f0        ret     p

492b f0        ret     p

492c f0        ret     p

492d f0        ret     p

492e f0        ret     p

492f f0        ret     p

4930 f0        ret     p

4931 f0        ret     p

4932 f0        ret     p

4933 f0        ret     p

4934 f0        ret     p

4935 f0        ret     p

4936 f0        ret     p

4937 f0        ret     p

4938 f0        ret     p

4939 f0        ret     p

493a f0        ret     p

493b f0        ret     p

493c f0        ret     p

493d f0        ret     p

493e 0f        rrca    
493f 0f        rrca    
4940 f0        ret     p

4941 f0        ret     p

4942 f0        ret     p

4943 f0        ret     p

4944 f0        ret     p

4945 f0        ret     p

4946 f0        ret     p

4947 f0        ret     p

4948 f0        ret     p

4949 f0        ret     p

494a f0        ret     p

494b f0        ret     p

494c f0        ret     p

494d f0        ret     p

494e f0        ret     p

494f f0        ret     p

4950 f0        ret     p

4951 f0        ret     p

4952 f0        ret     p

4953 f0        ret     p

4954 f0        ret     p

4955 f0        ret     p

4956 f0        ret     p

4957 f0        ret     p

4958 f0        ret     p

4959 f0        ret     p

495a f0        ret     p

495b f0        ret     p

495c f0        ret     p

495d f0        ret     p

495e f0        ret     p

495f f0        ret     p

4960 f0        ret     p

4961 f0        ret     p

4962 f0        ret     p

4963 f0        ret     p

4964 f0        ret     p

4965 f0        ret     p

4966 f0        ret     p

4967 f0        ret     p

4968 f0        ret     p

4969 f0        ret     p

496a e1        pop     hl
496b 78        ld      a,b
496c f0        ret     p

496d 96        sub     (hl)
496e f0        ret     p

496f e1        pop     hl
4970 f0        ret     p

4971 f0        ret     p

4972 f0        ret     p

4973 f0        ret     p

4974 87        add     a,a
4975 78        ld      a,b
4976 f0        ret     p

4977 87        add     a,a
4978 f0        ret     p

4979 f0        ret     p

497a f0        ret     p

497b f0        ret     p

497c f0        ret     p

497d f0        ret     p

497e 0f        rrca    
497f 0f        rrca    
4980 f0        ret     p

4981 f0        ret     p

4982 f0        ret     p

4983 f0        ret     p

4984 f0        ret     p

4985 f0        ret     p

4986 f0        ret     p

4987 f0        ret     p

4988 f0        ret     p

4989 f0        ret     p

498a f0        ret     p

498b f0        ret     p

498c f0        ret     p

498d f0        ret     p

498e f0        ret     p

498f f0        ret     p

4990 f0        ret     p

4991 f0        ret     p

4992 f0        ret     p

4993 f0        ret     p

4994 f0        ret     p

4995 f0        ret     p

4996 0f        rrca    
4997 0f        rrca    
4998 0f        rrca    
4999 0f        rrca    
499a f0        ret     p

499b f0        ret     p

499c f0        ret     p

499d f0        ret     p

499e f0        ret     p

499f f0        ret     p

49a0 f0        ret     p

49a1 f0        ret     p

49a2 f0        ret     p

49a3 f0        ret     p

49a4 f0        ret     p

49a5 f0        ret     p

49a6 f0        ret     p

49a7 f0        ret     p

49a8 f0        ret     p

49a9 f0        ret     p

49aa f0        ret     p

49ab f0        ret     p

49ac f0        ret     p

49ad f0        ret     p

49ae 78        ld      a,b
49af f0        ret     p

49b0 96        sub     (hl)
49b1 f0        ret     p

49b2 e1        pop     hl
49b3 78        ld      a,b
49b4 f0        ret     p

49b5 96        sub     (hl)
49b6 78        ld      a,b
49b7 e1        pop     hl
49b8 87        add     a,a
49b9 78        ld      a,b
49ba f0        ret     p

49bb 87        add     a,a
49bc f0        ret     p

49bd f0        ret     p

49be 0f        rrca    
49bf 0f        rrca    
49c0 f0        ret     p

49c1 f0        ret     p

49c2 f0        ret     p

49c3 f0        ret     p

49c4 f0        ret     p

49c5 f0        ret     p

49c6 f0        ret     p

49c7 f0        ret     p

49c8 f0        ret     p

49c9 f0        ret     p

49ca f0        ret     p

49cb f0        ret     p

49cc f0        ret     p

49cd f0        ret     p

49ce f0        ret     p

49cf f0        ret     p

49d0 f0        ret     p

49d1 f0        ret     p

49d2 f0        ret     p

49d3 f0        ret     p

49d4 f0        ret     p

49d5 f0        ret     p

49d6 f0        ret     p

49d7 f0        ret     p

49d8 f0        ret     p

49d9 f0        ret     p

49da f0        ret     p

49db f0        ret     p

49dc f0        ret     p

49dd f0        ret     p

49de f0        ret     p

49df f0        ret     p

49e0 f0        ret     p

49e1 f0        ret     p

49e2 f0        ret     p

49e3 f0        ret     p

49e4 f0        ret     p

49e5 f0        ret     p

49e6 f0        ret     p

49e7 f0        ret     p

49e8 f0        ret     p

49e9 f0        ret     p

49ea f0        ret     p

49eb f0        ret     p

49ec f0        ret     p

49ed f0        ret     p

49ee f0        ret     p

49ef f0        ret     p

49f0 f0        ret     p

49f1 f0        ret     p

49f2 f0        ret     p

49f3 f0        ret     p

49f4 f0        ret     p

49f5 f0        ret     p

49f6 78        ld      a,b
49f7 f0        ret     p

49f8 96        sub     (hl)
49f9 f0        ret     p

49fa 69        ld      l,c
49fb 78        ld      a,b
49fc 87        add     a,a
49fd 1e0f      ld      e,0fh
49ff 0f        rrca    
4a00 f0        ret     p

4a01 f0        ret     p

4a02 0f        rrca    
4a03 0f        rrca    
4a04 0f        rrca    
4a05 0f        rrca    
4a06 0f        rrca    
4a07 0f        rrca    
4a08 ff        rst     38h
4a09 ff        rst     38h
4a0a ff        rst     38h
4a0b ff        rst     38h
4a0c ff        rst     38h
4a0d ff        rst     38h
4a0e ff        rst     38h
4a0f ff        rst     38h
4a10 ff        rst     38h
4a11 ff        rst     38h
4a12 ef        rst     28h
4a13 bf        cp      a
4a14 ce99      adc     a,99h
4a16 ce11      adc     a,11h
4a18 ff        rst     38h
4a19 33        inc     sp
4a1a ff        rst     38h
4a1b ff        rst     38h
4a1c ff        rst     38h
4a1d cddd2f    call    2fddh
4a20 ecaffe    call    pe,0feafh
4a23 ff        rst     38h
4a24 ff        rst     38h
4a25 bb        cp      e
4a26 ff        rst     38h
4a27 ff        rst     38h
4a28 ff        rst     38h
4a29 ff        rst     38h
4a2a ff        rst     38h
4a2b ff        rst     38h
4a2c f3        di      
4a2d ff        rst     38h
4a2e 3d        dec     a
4a2f ff        rst     38h
4a30 12        ld      (de),a
4a31 f0        ret     p

4a32 010f00    ld      bc,000fh
4a35 07        rlca    
4a36 00        nop     
4a37 00        nop     
4a38 00        nop     
4a39 00        nop     
4a3a 00        nop     
4a3b 00        nop     
4a3c 00        nop     
4a3d 00        nop     
4a3e 00        nop     
4a3f 00        nop     
4a40 f0        ret     p

4a41 f0        ret     p

4a42 0f        rrca    
4a43 0f        rrca    
4a44 0f        rrca    
4a45 0f        rrca    
4a46 0f        rrca    
4a47 0f        rrca    
4a48 ff        rst     38h
4a49 ff        rst     38h
4a4a ff        rst     38h
4a4b df        rst     18h
4a4c ff        rst     38h
4a4d deef      sbc     a,0efh
4a4f 8e        adc     a,(hl)
4a50 edcf      db      0edh, 0cfh       ; Undocumented 8 T-State NOP
4a52 2e7f      ld      l,7fh
4a54 aa        xor     d
4a55 7f        ld      a,a
4a56 cc7faa    call    z,0aa7fh
4a59 7f        ld      a,a
4a5a f7        rst     30h
4a5b ff        rst     38h
4a5c f3        di      
4a5d ff        rst     38h
4a5e d1        pop     de
4a5f 7f        ld      a,a
4a60 81        add     a,c
4a61 f63b      or      3bh
4a63 ed99      db      0edh, 99h        ; Undocumented 8 T-State NOP
4a65 caffca    jp      z,0caffh
4a68 ff        rst     38h
4a69 caffca    jp      z,0caffh
4a6c ff        rst     38h
4a6d 84        add     a,h
4a6e ff        rst     38h
4a6f 84        add     a,h
4a70 f0        ret     p

4a71 08        ex      af,af'
4a72 0f        rrca    
4a73 00        nop     
4a74 0c        inc     c
4a75 00        nop     
4a76 00        nop     
4a77 00        nop     
4a78 00        nop     
4a79 00        nop     
4a7a 00        nop     
4a7b 00        nop     
4a7c 00        nop     
4a7d 00        nop     
4a7e 00        nop     
4a7f 00        nop     
4a80 f0        ret     p

4a81 f0        ret     p

4a82 0f        rrca    
4a83 0f        rrca    
4a84 0f        rrca    
4a85 0f        rrca    
4a86 0f        rrca    
4a87 0f        rrca    
4a88 ff        rst     38h
4a89 ff        rst     38h
4a8a ff        rst     38h
4a8b ddff      rst     38h
4a8d dd0f      rrca    
4a8f 0d        dec     c
4a90 ff        rst     38h
4a91 cf        rst     08h
4a92 ff        rst     38h
4a93 cf        rst     08h
4a94 ff        rst     38h
4a95 ff        rst     38h
4a96 ff        rst     38h
4a97 ff        rst     38h
4a98 ff        rst     38h
4a99 ff        rst     38h
4a9a ff        rst     38h
4a9b ff        rst     38h
4a9c ff        rst     38h
4a9d ff        rst     38h
4a9e ff        rst     38h
4a9f ff        rst     38h
4aa0 f1        pop     af
4aa1 ff        rst     38h
4aa2 1ef0      ld      e,0f0h
4aa4 010f00    ld      bc,000fh
4aa7 00        nop     
4aa8 00        nop     
4aa9 00        nop     
4aaa 00        nop     
4aab 00        nop     
4aac 00        nop     
4aad 00        nop     
4aae 00        nop     
4aaf 00        nop     
4ab0 00        nop     
4ab1 00        nop     
4ab2 00        nop     
4ab3 00        nop     
4ab4 00        nop     
4ab5 00        nop     
4ab6 00        nop     
4ab7 00        nop     
4ab8 00        nop     
4ab9 00        nop     
4aba 00        nop     
4abb 00        nop     
4abc 00        nop     
4abd 00        nop     
4abe 00        nop     
4abf 00        nop     
4ac0 f0        ret     p

4ac1 c30f0f    jp      0f0fh
4ac4 0f        rrca    
4ac5 0f        rrca    
4ac6 0f        rrca    
4ac7 3f        ccf     
4ac8 ff        rst     38h
4ac9 cf        rst     08h
4aca ff        rst     38h
4acb ff        rst     38h
4acc ff        rst     38h
4acd ff        rst     38h
4ace 7f        ld      a,a
4acf ff        rst     38h
4ad0 7f        ld      a,a
4ad1 ff        rst     38h
4ad2 7f        ld      a,a
4ad3 ff        rst     38h
4ad4 ff        rst     38h
4ad5 ef        rst     28h
4ad6 ff        rst     38h
4ad7 ef        rst     28h
4ad8 ff        rst     38h
4ad9 9b        sbc     a,e
4ada ff        rst     38h
4adb eaffbd    jp      pe,0bdffh
4ade ff        rst     38h
4adf deff      sbc     a,0ffh
4ae1 ff        rst     38h
4ae2 f7        rst     30h
4ae3 ff        rst     38h
4ae4 7b        ld      a,e
4ae5 ff        rst     38h
4ae6 35        dec     (hl)
4ae7 ff        rst     38h
4ae8 35        dec     (hl)
4ae9 ff        rst     38h
4aea 12        ld      (de),a
4aeb ff        rst     38h
4aec 12        ld      (de),a
4aed ff        rst     38h
4aee 01f000    ld      bc,00f0h
4af1 0f        rrca    
4af2 00        nop     
4af3 00        nop     
4af4 00        nop     
4af5 00        nop     
4af6 00        nop     
4af7 00        nop     
4af8 00        nop     
4af9 00        nop     
4afa 00        nop     
4afb 00        nop     
4afc 00        nop     
4afd 00        nop     
4afe 00        nop     
4aff 00        nop     
4b00 f0        ret     p

4b01 f0        ret     p

4b02 0f        rrca    
4b03 1e0f      ld      e,0fh
4b05 0f        rrca    
4b06 ff        rst     38h
4b07 ef        rst     28h
4b08 ff        rst     38h
4b09 ccffff    call    z,0ffffh
4b0c ff        rst     38h
4b0d ff        rst     38h
4b0e ff        rst     38h
4b0f ff        rst     38h
4b10 ff        rst     38h
4b11 ff        rst     38h
4b12 ff        rst     38h
4b13 ff        rst     38h
4b14 ff        rst     38h
4b15 ff        rst     38h
4b16 f1        pop     af
4b17 ff        rst     38h
4b18 1ef0      ld      e,0f0h
4b1a 010f00    ld      bc,000fh
4b1d 00        nop     
4b1e 00        nop     
4b1f 00        nop     
4b20 00        nop     
4b21 00        nop     
4b22 00        nop     
4b23 00        nop     
4b24 00        nop     
4b25 00        nop     
4b26 00        nop     
4b27 00        nop     
4b28 00        nop     
4b29 00        nop     
4b2a 00        nop     
4b2b 00        nop     
4b2c 00        nop     
4b2d 00        nop     
4b2e 00        nop     
4b2f 00        nop     
4b30 00        nop     
4b31 00        nop     
4b32 00        nop     
4b33 00        nop     
4b34 00        nop     
4b35 00        nop     
4b36 00        nop     
4b37 00        nop     
4b38 00        nop     
4b39 00        nop     
4b3a 00        nop     
4b3b 00        nop     
4b3c 00        nop     
4b3d 00        nop     
4b3e 00        nop     
4b3f 00        nop     
4b40 f0        ret     p

4b41 f0        ret     p

4b42 f0        ret     p

4b43 f0        ret     p

4b44 0f        rrca    
4b45 0f        rrca    
4b46 0f        rrca    
4b47 0f        rrca    
4b48 ff        rst     38h
4b49 ff        rst     38h
4b4a ff        rst     38h
4b4b fb        ei      
4b4c ff        rst     38h
4b4d bb        cp      e
4b4e ff        rst     38h
4b4f cf        rst     08h
4b50 ff        rst     38h
4b51 fcfffc    call    m,0fcffh
4b54 ff        rst     38h
4b55 bb        cp      e
4b56 ff        rst     38h
4b57 ff        rst     38h
4b58 f3        di      
4b59 ff        rst     38h
4b5a 3d        dec     a
4b5b ff        rst     38h
4b5c 12        ld      (de),a
4b5d f0        ret     p

4b5e 03        inc     bc
4b5f 0f        rrca    
4b60 00        nop     
4b61 00        nop     
4b62 00        nop     
4b63 00        nop     
4b64 00        nop     
4b65 00        nop     
4b66 00        nop     
4b67 00        nop     
4b68 00        nop     
4b69 00        nop     
4b6a 00        nop     
4b6b 00        nop     
4b6c 00        nop     
4b6d 00        nop     
4b6e 00        nop     
4b6f 00        nop     
4b70 00        nop     
4b71 00        nop     
4b72 00        nop     
4b73 00        nop     
4b74 00        nop     
4b75 00        nop     
4b76 00        nop     
4b77 00        nop     
4b78 00        nop     
4b79 00        nop     
4b7a 00        nop     
4b7b 00        nop     
4b7c 00        nop     
4b7d 00        nop     
4b7e 00        nop     
4b7f 00        nop     
4b80 f0        ret     p

4b81 c3f0c3    jp      0c3f0h
4b84 0f        rrca    
4b85 0f        rrca    
4b86 0f        rrca    
4b87 3f        ccf     
4b88 ff        rst     38h
4b89 ff        rst     38h
4b8a ff        rst     38h
4b8b eaffbb    jp      pe,0bbffh
4b8e 0f        rrca    
4b8f ef        rst     28h
4b90 e1        pop     hl
4b91 ff        rst     38h
4b92 e1        pop     hl
4b93 bf        cp      a
4b94 ef        rst     28h
4b95 3b        dec     sp
4b96 ff        rst     38h
4b97 ff        rst     38h
4b98 ff        rst     38h
4b99 ff        rst     38h
4b9a ff        rst     38h
4b9b feff      cp      0ffh
4b9d f2f659    jp      p,59f6h
4ba0 00        nop     
4ba1 7a        ld      a,d
4ba2 00        nop     
4ba3 7a        ld      a,d
4ba4 00        nop     
4ba5 7a        ld      a,d
4ba6 00        nop     
4ba7 25        dec     h
4ba8 00        nop     
4ba9 02        ld      (bc),a
4baa 00        nop     
4bab 02        ld      (bc),a
4bac 00        nop     
4bad 02        ld      (bc),a
4bae 00        nop     
4baf 02        ld      (bc),a
4bb0 00        nop     
4bb1 47        ld      b,a
4bb2 00        nop     
4bb3 00        nop     
4bb4 00        nop     
4bb5 00        nop     
4bb6 00        nop     
4bb7 00        nop     
4bb8 00        nop     
4bb9 00        nop     
4bba 00        nop     
4bbb 00        nop     
4bbc 00        nop     
4bbd 00        nop     
4bbe 00        nop     
4bbf 00        nop     
4bc0 f0        ret     p

4bc1 78        ld      a,b
4bc2 f0        ret     p

4bc3 f0        ret     p

4bc4 0f        rrca    
4bc5 0f        rrca    
4bc6 0f        rrca    
4bc7 0f        rrca    
4bc8 ff        rst     38h
4bc9 ff        rst     38h
4bca 0a        ld      a,(bc)
4bcb dd0edd    ld      c,0ddh
4bce 0edd      ld      c,0ddh
4bd0 1f        rra     
4bd1 dd1f      rra     
4bd3 df        rst     18h
4bd4 1f        rra     
4bd5 df        rst     18h
4bd6 bf        cp      a
4bd7 df        rst     18h
4bd8 b7        or      a
4bd9 ee3c      xor     3ch
4bdb ee0f      xor     0fh
4bdd ff        rst     38h
4bde 1f        rra     
4bdf 23        inc     hl
4be0 3f        ccf     
4be1 ff        rst     38h
4be2 3d        dec     a
4be3 ff        rst     38h
4be4 1eff      ld      e,0ffh
4be6 05        dec     b
4be7 f7        rst     30h
4be8 05        dec     b
4be9 f7        rst     30h
4bea 05        dec     b
4beb f7        rst     30h
4bec 05        dec     b
4bed f7        rst     30h
4bee 04        inc     b
4bef 78        ld      a,b
4bf0 3c        inc     a
4bf1 80        add     a,b
4bf2 04        inc     b
4bf3 00        nop     
4bf4 04        inc     b
4bf5 00        nop     
4bf6 04        inc     b
4bf7 00        nop     
4bf8 04        inc     b
4bf9 00        nop     
4bfa 00        nop     
4bfb 00        nop     
4bfc 00        nop     
4bfd 00        nop     
4bfe 00        nop     
4bff 00        nop     
4c00 00        nop     
4c01 00        nop     
4c02 00        nop     
4c03 00        nop     
4c04 00        nop     
4c05 00        nop     
4c06 00        nop     
4c07 00        nop     
4c08 00        nop     
4c09 00        nop     
4c0a 010f12    ld      bc,120fh
4c0d 1f        rra     
4c0e 24        inc     h
4c0f 1048      djnz    4c59h
4c11 00        nop     
4c12 58        ld      e,b
4c13 6e        ld      l,(hl)
4c14 48        ld      c,b
4c15 88        adc     a,b
4c16 68        ld      l,b
4c17 eeca      xor     0cah
4c19 46        ld      b,(hl)
4c1a 2d        dec     l
4c1b c8        ret     z

4c1c f0        ret     p

4c1d 90        sub     b
4c1e f0        ret     p

4c1f f0        ret     p

4c20 f0        ret     p

4c21 f0        ret     p

4c22 0f        rrca    
4c23 0f        rrca    
4c24 ff        rst     38h
4c25 ff        rst     38h
4c26 ff        rst     38h
4c27 ff        rst     38h
4c28 0f        rrca    
4c29 0f        rrca    
4c2a 0f        rrca    
4c2b 0f        rrca    
4c2c 0f        rrca    
4c2d 0f        rrca    
4c2e f0        ret     p

4c2f f0        ret     p

4c30 f0        ret     p

4c31 f0        ret     p

4c32 f0        ret     p

4c33 f0        ret     p

4c34 f0        ret     p

4c35 f0        ret     p

4c36 f0        ret     p

4c37 f0        ret     p

4c38 f0        ret     p

4c39 f0        ret     p

4c3a f0        ret     p

4c3b f0        ret     p

4c3c f0        ret     p

4c3d f0        ret     p

4c3e f0        ret     p

4c3f f0        ret     p

4c40 00        nop     
4c41 00        nop     
4c42 00        nop     
4c43 00        nop     
4c44 00        nop     
4c45 00        nop     
4c46 00        nop     
4c47 00        nop     
4c48 00        nop     
4c49 00        nop     
4c4a 00        nop     
4c4b 010812    ld      bc,1208h
4c4e 8c        adc     a,h
4c4f 34        inc     (hl)
4c50 c648      add     a,48h
4c52 c648      add     a,48h
4c54 c659      add     a,59h
4c56 c67b      add     a,7bh
4c58 c617      add     a,17h
4c5a c7        rst     00h
4c5b ae        xor     (hl)
4c5c f3        di      
4c5d 69        ld      l,c
4c5e f0        ret     p

4c5f f0        ret     p

4c60 f0        ret     p

4c61 f0        ret     p

4c62 0f        rrca    
4c63 0f        rrca    
4c64 ff        rst     38h
4c65 ff        rst     38h
4c66 ff        rst     38h
4c67 ff        rst     38h
4c68 0f        rrca    
4c69 0f        rrca    
4c6a 0f        rrca    
4c6b 0f        rrca    
4c6c 0f        rrca    
4c6d 0f        rrca    
4c6e f0        ret     p

4c6f f0        ret     p

4c70 f0        ret     p

4c71 f0        ret     p

4c72 f0        ret     p

4c73 f0        ret     p

4c74 f0        ret     p

4c75 f0        ret     p

4c76 f0        ret     p

4c77 f0        ret     p

4c78 f0        ret     p

4c79 f0        ret     p

4c7a f0        ret     p

4c7b f0        ret     p

4c7c f0        ret     p

4c7d f0        ret     p

4c7e f0        ret     p

4c7f f0        ret     p

4c80 00        nop     
4c81 00        nop     
4c82 00        nop     
4c83 00        nop     
4c84 00        nop     
4c85 00        nop     
4c86 00        nop     
4c87 00        nop     
4c88 00        nop     
4c89 00        nop     
4c8a 0f        rrca    
4c8b 00        nop     
4c8c 0f        rrca    
4c8d 08        ex      af,af'
4c8e e1        pop     hl
4c8f 8c        adc     a,h
4c90 104e      djnz    4ce0h
4c92 5e        ld      e,(hl)
4c93 4e        ld      c,(hl)
4c94 76        halt    
4c95 4e        ld      c,(hl)
4c96 324ede    ld      (0de4eh),a
4c99 c7        rst     00h
4c9a d8        ret     c

4c9b a7        and     a
4c9c 18a7      jr      4c45h
4c9e f0        ret     p

4c9f a7        and     a
4ca0 f0        ret     p

4ca1 a7        and     a
4ca2 0f        rrca    
4ca3 2f        cpl     
4ca4 ff        rst     38h
4ca5 ff        rst     38h
4ca6 ff        rst     38h
4ca7 ff        rst     38h
4ca8 0f        rrca    
4ca9 0f        rrca    
4caa 0f        rrca    
4cab 0f        rrca    
4cac 0f        rrca    
4cad 0f        rrca    
4cae f0        ret     p

4caf f0        ret     p

4cb0 f0        ret     p

4cb1 f0        ret     p

4cb2 f0        ret     p

4cb3 f0        ret     p

4cb4 f0        ret     p

4cb5 f0        ret     p

4cb6 f0        ret     p

4cb7 f0        ret     p

4cb8 f0        ret     p

4cb9 f0        ret     p

4cba f0        ret     p

4cbb f0        ret     p

4cbc f0        ret     p

4cbd f0        ret     p

4cbe f0        ret     p

4cbf f0        ret     p

4cc0 00        nop     
4cc1 00        nop     
4cc2 00        nop     
4cc3 00        nop     
4cc4 00        nop     
4cc5 00        nop     
4cc6 00        nop     
4cc7 00        nop     
4cc8 00        nop     
4cc9 00        nop     
4cca 00        nop     
4ccb 00        nop     
4ccc 00        nop     
4ccd 00        nop     
4cce 00        nop     
4ccf 00        nop     
4cd0 00        nop     
4cd1 00        nop     
4cd2 00        nop     
4cd3 00        nop     
4cd4 00        nop     
4cd5 00        nop     
4cd6 00        nop     
4cd7 00        nop     
4cd8 00        nop     
4cd9 00        nop     
4cda 00        nop     
4cdb 00        nop     
4cdc 00        nop     
4cdd 00        nop     
4cde 00        nop     
4cdf 00        nop     
4ce0 00        nop     
4ce1 00        nop     
4ce2 00        nop     
4ce3 00        nop     
4ce4 ff        rst     38h
4ce5 ff        rst     38h
4ce6 ff        rst     38h
4ce7 ff        rst     38h
4ce8 0f        rrca    
4ce9 0f        rrca    
4cea 0f        rrca    
4ceb 0f        rrca    
4cec 0f        rrca    
4ced 0f        rrca    
4cee f0        ret     p

4cef f0        ret     p

4cf0 f0        ret     p

4cf1 f0        ret     p

4cf2 f0        ret     p

4cf3 f0        ret     p

4cf4 f0        ret     p

4cf5 f0        ret     p

4cf6 f0        ret     p

4cf7 f0        ret     p

4cf8 f0        ret     p

4cf9 f0        ret     p

4cfa f0        ret     p

4cfb f0        ret     p

4cfc f0        ret     p

4cfd f0        ret     p

4cfe f0        ret     p

4cff f0        ret     p

4d00 f0        ret     p

4d01 f0        ret     p

4d02 f0        ret     p

4d03 f0        ret     p

4d04 f0        ret     p

4d05 f0        ret     p

4d06 f0        ret     p

4d07 f0        ret     p

4d08 f0        ret     p

4d09 f0        ret     p

4d0a f0        ret     p

4d0b f0        ret     p

4d0c f0        ret     p

4d0d f0        ret     p

4d0e f0        ret     p

4d0f f0        ret     p

4d10 f0        ret     p

4d11 f0        ret     p

4d12 f0        ret     p

4d13 f0        ret     p

4d14 0f        rrca    
4d15 0f        rrca    
4d16 0f        rrca    
4d17 0f        rrca    
4d18 f0        ret     p

4d19 f0        ret     p

4d1a f0        ret     p

4d1b 87        add     a,a
4d1c f0        ret     p

4d1d 3f        ccf     
4d1e f0        ret     p

4d1f 7f        ld      a,a
4d20 f0        ret     p

4d21 68        ld      l,b
4d22 f0        ret     p

4d23 48        ld      c,b
4d24 f0        ret     p

4d25 7b        ld      a,e
4d26 f0        ret     p

4d27 5b        ld      e,e
4d28 f0        ret     p

4d29 6b        ld      l,e
4d2a f0        ret     p

4d2b 48        ld      c,b
4d2c f0        ret     p

4d2d 48        ld      c,b
4d2e f0        ret     p

4d2f 48        ld      c,b
4d30 f0        ret     p

4d31 48        ld      c,b
4d32 f0        ret     p

4d33 48        ld      c,b
4d34 f0        ret     p

4d35 48        ld      c,b
4d36 f0        ret     p

4d37 48        ld      c,b
4d38 f0        ret     p

4d39 48        ld      c,b
4d3a f0        ret     p

4d3b 48        ld      c,b
4d3c f0        ret     p

4d3d 6a        ld      l,d
4d3e f0        ret     p

4d3f 59        ld      e,c
4d40 f0        ret     p

4d41 f0        ret     p

4d42 f0        ret     p

4d43 f0        ret     p

4d44 f0        ret     p

4d45 f0        ret     p

4d46 f0        ret     p

4d47 f0        ret     p

4d48 f0        ret     p

4d49 f0        ret     p

4d4a f0        ret     p

4d4b f0        ret     p

4d4c f0        ret     p

4d4d f0        ret     p

4d4e f0        ret     p

4d4f f0        ret     p

4d50 f0        ret     p

4d51 f0        ret     p

4d52 f0        ret     p

4d53 f0        ret     p

4d54 0f        rrca    
4d55 0f        rrca    
4d56 0f        rrca    
4d57 0f        rrca    
4d58 f0        ret     p

4d59 f0        ret     p

4d5a 0f        rrca    
4d5b 0f        rrca    
4d5c ff        rst     38h
4d5d ff        rst     38h
4d5e ff        rst     38h
4d5f ff        rst     38h
4d60 21ff00    ld      hl,00ffh
4d63 53        ld      d,e
4d64 88        adc     a,b
4d65 1088      djnz    4cefh
4d67 1088      djnz    4cf1h
4d69 117700    ld      de,0077h
4d6c 37        scf     
4d6d 00        nop     
4d6e 57        ld      d,a
4d6f 77        ld      (hl),a
4d70 00        nop     
4d71 37        scf     
4d72 00        nop     
4d73 57        ld      d,a
4d74 00        nop     
4d75 00        nop     
4d76 00        nop     
4d77 010313    ld      bc,1303h
4d7a 27        daa     
4d7b 5f        ld      e,a
4d7c ff        rst     38h
4d7d 7f        ld      a,a
4d7e 77        ld      (hl),a
4d7f ff        rst     38h
4d80 f0        ret     p

4d81 f0        ret     p

4d82 f0        ret     p

4d83 f0        ret     p

4d84 f0        ret     p

4d85 f0        ret     p

4d86 f0        ret     p

4d87 f0        ret     p

4d88 f0        ret     p

4d89 f0        ret     p

4d8a f0        ret     p

4d8b f0        ret     p

4d8c f0        ret     p

4d8d f0        ret     p

4d8e f0        ret     p

4d8f f0        ret     p

4d90 f0        ret     p

4d91 f0        ret     p

4d92 f0        ret     p

4d93 f0        ret     p

4d94 0f        rrca    
4d95 0f        rrca    
4d96 0f        rrca    
4d97 0f        rrca    
4d98 f0        ret     p

4d99 f0        ret     p

4d9a 0f        rrca    
4d9b 0f        rrca    
4d9c ff        rst     38h
4d9d ff        rst     38h
4d9e ff        rst     38h
4d9f ff        rst     38h
4da0 ff        rst     38h
4da1 ff        rst     38h
4da2 ff        rst     38h
4da3 dea1      sbc     a,0a1h
4da5 6c        ld      l,h
4da6 53        ld      d,e
4da7 a6        and     (hl)
4da8 fb        ei      
4da9 d5        push    de
4daa 9e        sbc     a,(hl)
4dab ff        rst     38h
4dac 3b        dec     sp
4dad 1166aa    ld      de,0aa66h
4db0 17        rla     
4db1 ff        rst     38h
4db2 013f32    ld      bc,323fh
4db5 5f        ld      e,a
4db6 ad        xor     l
4db7 6f        ld      l,a
4db8 5f        ld      e,a
4db9 ef        rst     28h
4dba 7f        ld      a,a
4dbb fe7f      cp      7fh
4dbd 1e6f      ld      e,6fh
4dbf 2d        dec     l
4dc0 f0        ret     p

4dc1 e1        pop     hl
4dc2 f0        ret     p

4dc3 f0        ret     p

4dc4 f0        ret     p

4dc5 f0        ret     p

4dc6 f0        ret     p

4dc7 e0        ret     po

4dc8 f0        ret     p

4dc9 e0        ret     po

4dca f0        ret     p

4dcb e0        ret     po

4dcc f0        ret     p

4dcd e0        ret     po

4dce f0        ret     p

4dcf e0        ret     po

4dd0 f0        ret     p

4dd1 e0        ret     po

4dd2 f0        ret     p

4dd3 e0        ret     po

4dd4 0f        rrca    
4dd5 0e0f      ld      c,0fh
4dd7 0ef0      ld      c,0f0h
4dd9 e0        ret     po

4dda 0f        rrca    
4ddb 2c        inc     l
4ddc ff        rst     38h
4ddd ceff      adc     a,0ffh
4ddf ee48      xor     48h
4de1 62        ld      h,d
4de2 44        ld      b,h
4de3 62        ld      h,d
4de4 88        adc     a,b
4de5 62        ld      h,d
4de6 69        ld      l,c
4de7 62        ld      h,d
4de8 1e62      ld      e,62h
4dea ad        xor     l
4deb 62        ld      h,d
4dec ce62      adc     a,62h
4dee fe62      cp      62h
4df0 ff        rst     38h
4df1 e299ea    jp      po,0ea99h
4df4 99        sbc     a,c
4df5 e2feea    jp      po,0eafeh
4df8 a2        and     d
4df9 62        ld      h,d
4dfa f7        rst     30h
4dfb 62        ld      h,d
4dfc e662      and     62h
4dfe dc73f0    call    c,0f073h
4e01 f0        ret     p

4e02 0f        rrca    
4e03 0f        rrca    
4e04 0f        rrca    
4e05 0f        rrca    
4e06 0f        rrca    
4e07 0f        rrca    
4e08 ff        rst     38h
4e09 ff        rst     38h
4e0a ff        rst     38h
4e0b ff        rst     38h
4e0c ff        rst     38h
4e0d ff        rst     38h
4e0e 0f        rrca    
4e0f 0f        rrca    
4e10 3c        inc     a
4e11 87        add     a,a
4e12 4b        ld      c,e
4e13 d34b      out     (4bh),a
4e15 d3cc      out     (0cch),a
4e17 d3dd      out     (0ddh),a
4e19 d3dc      out     (0dch),a
4e1b d3be      out     (0beh),a
4e1d 97        sub     a
4e1e 8f        adc     a,a
4e1f 2f        cpl     
4e20 7f        ld      a,a
4e21 cf        rst     08h
4e22 8f        adc     a,a
4e23 0eff      ld      c,0ffh
4e25 c1        pop     bc
4e26 ff        rst     38h
4e27 83        add     a,e
4e28 ff        rst     38h
4e29 b3        or      e
4e2a ff        rst     38h
4e2b c4fff7    call    nz,0f7ffh
4e2e f0        ret     p

4e2f f7        rst     30h
4e30 12        ld      (de),a
4e31 ff        rst     38h
4e32 12        ld      (de),a
4e33 fe12      cp      12h
4e35 e9        jp      (hl)
4e36 12        ld      (de),a
4e37 86        add     a,(hl)
4e38 010800    ld      bc,0008h
4e3b 00        nop     
4e3c 00        nop     
4e3d 00        nop     
4e3e 00        nop     
4e3f 00        nop     
4e40 f0        ret     p

4e41 f0        ret     p

4e42 0f        rrca    
4e43 0f        rrca    
4e44 0f        rrca    
4e45 0f        rrca    
4e46 0f        rrca    
4e47 0f        rrca    
4e48 ff        rst     38h
4e49 ff        rst     38h
4e4a ff        rst     38h
4e4b ff        rst     38h
4e4c ff        rst     38h
4e4d ff        rst     38h
4e4e 0f        rrca    
4e4f 0f        rrca    
4e50 ff        rst     38h
4e51 ff        rst     38h
4e52 ff        rst     38h
4e53 ff        rst     38h
4e54 ff        rst     38h
4e55 feff      cp      0ffh
4e57 fe4c      cp      4ch
4e59 323f5e    ld      (5e3fh),a
4e5c 4c        ld      c,h
4e5d 227fec    ld      (0ec7fh),hl
4e60 6f        ld      l,a
4e61 c0        ret     nz

4e62 9e        sbc     a,(hl)
4e63 33        inc     sp
4e64 c8        ret     z

4e65 79        ld      a,c
4e66 ba        cp      d
4e67 1ef6      ld      e,0f6h
4e69 09        add     hl,bc
4e6a fe09      cp      09h
4e6c fe09      cp      09h
4e6e fe08      cp      08h
4e70 e9        jp      (hl)
4e71 08        ex      af,af'
4e72 86        add     a,(hl)
4e73 00        nop     
4e74 08        ex      af,af'
4e75 00        nop     
4e76 00        nop     
4e77 00        nop     
4e78 00        nop     
4e79 00        nop     
4e7a 00        nop     
4e7b 00        nop     
4e7c 00        nop     
4e7d 00        nop     
4e7e 00        nop     
4e7f 00        nop     
4e80 f0        ret     p

4e81 f0        ret     p

4e82 0f        rrca    
4e83 0f        rrca    
4e84 0f        rrca    
4e85 0f        rrca    
4e86 0f        rrca    
4e87 0f        rrca    
4e88 ff        rst     38h
4e89 ff        rst     38h
4e8a ff        rst     38h
4e8b ff        rst     38h
4e8c ff        rst     38h
4e8d ff        rst     38h
4e8e ff        rst     38h
4e8f 8f        adc     a,a
4e90 ff        rst     38h
4e91 0e95      ld      c,95h
4e93 91        sub     c
4e94 ceff      adc     a,0ffh
4e96 ce77      adc     a,77h
4e98 ce6e      adc     a,6eh
4e9a deee      sbc     a,0eeh
4e9c def0      sbc     a,0f0h
4e9e ef        rst     28h
4e9f f0        ret     p

4ea0 ff        rst     38h
4ea1 38ff      jr      c,4ea2h
4ea3 8f        adc     a,a
4ea4 ff        rst     38h
4ea5 ff        rst     38h
4ea6 f7        rst     30h
4ea7 ff        rst     38h
4ea8 f7        rst     30h
4ea9 ff        rst     38h
4eaa f7        rst     30h
4eab ff        rst     38h
4eac f7        rst     30h
4ead ff        rst     38h
4eae 78        ld      a,b
4eaf f0        ret     p

4eb0 07        rlca    
4eb1 0f        rrca    
4eb2 03        inc     bc
4eb3 0e00      ld      c,00h
4eb5 00        nop     
4eb6 00        nop     
4eb7 00        nop     
4eb8 00        nop     
4eb9 00        nop     
4eba 00        nop     
4ebb 00        nop     
4ebc 00        nop     
4ebd 00        nop     
4ebe 00        nop     
4ebf 00        nop     
4ec0 f0        ret     p

4ec1 f0        ret     p

4ec2 0f        rrca    
4ec3 0f        rrca    
4ec4 0f        rrca    
4ec5 0f        rrca    
4ec6 0f        rrca    
4ec7 0f        rrca    
4ec8 ff        rst     38h
4ec9 ff        rst     38h
4eca ff        rst     38h
4ecb ff        rst     38h
4ecc ff        rst     38h
4ecd ff        rst     38h
4ece 1f        rra     
4ecf ff        rst     38h
4ed0 07        rlca    
4ed1 ff        rst     38h
4ed2 99        sbc     a,c
4ed3 ff        rst     38h
4ed4 ccff26    call    z,26ffh
4ed7 7f        ld      a,a
4ed8 76        halt    
4ed9 1f        rra     
4eda 34        inc     (hl)
4edb 1f        rra     
4edc f0        ret     p

4edd 79        ld      a,c
4ede e1        pop     hl
4edf bd        cp      l
4ee0 d3ff      out     (0ffh),a
4ee2 3f        ccf     
4ee3 ff        rst     38h
4ee4 f7        rst     30h
4ee5 ff        rst     38h
4ee6 f7        rst     30h
4ee7 ff        rst     38h
4ee8 f7        rst     30h
4ee9 ff        rst     38h
4eea f3        di      
4eeb ff        rst     38h
4eec b4        or      h
4eed f0        ret     p

4eee 0b        dec     bc
4eef 0f        rrca    
4ef0 00        nop     
4ef1 00        nop     
4ef2 00        nop     
4ef3 00        nop     
4ef4 00        nop     
4ef5 00        nop     
4ef6 00        nop     
4ef7 00        nop     
4ef8 00        nop     
4ef9 00        nop     
4efa 00        nop     
4efb 00        nop     
4efc 00        nop     
4efd 00        nop     
4efe 00        nop     
4eff 00        nop     
4f00 a0        and     b
4f01 f5        push    af
4f02 80        add     a,b
4f03 00        nop     
4f04 ff        rst     38h
4f05 ff        rst     38h
4f06 ff        rst     38h
4f07 ff        rst     38h
4f08 ff        rst     38h
4f09 ff        rst     38h
4f0a ff        rst     38h
4f0b ff        rst     38h
4f0c ff        rst     38h
4f0d ff        rst     38h
4f0e ff        rst     38h
4f0f ff        rst     38h
4f10 ff        rst     38h
4f11 ff        rst     38h
4f12 f0        ret     p

4f13 f0        ret     p

4f14 0f        rrca    
4f15 0f        rrca    
4f16 00        nop     
4f17 00        nop     
4f18 00        nop     
4f19 00        nop     
4f1a 00        nop     
4f1b 00        nop     
4f1c 00        nop     
4f1d 00        nop     
4f1e 00        nop     
4f1f 00        nop     
4f20 00        nop     
4f21 00        nop     
4f22 00        nop     
4f23 00        nop     
4f24 00        nop     
4f25 00        nop     
4f26 00        nop     
4f27 00        nop     
4f28 00        nop     
4f29 00        nop     
4f2a 00        nop     
4f2b 00        nop     
4f2c 00        nop     
4f2d 00        nop     
4f2e 00        nop     
4f2f 00        nop     
4f30 00        nop     
4f31 00        nop     
4f32 00        nop     
4f33 00        nop     
4f34 00        nop     
4f35 00        nop     
4f36 00        nop     
4f37 00        nop     
4f38 00        nop     
4f39 00        nop     
4f3a 00        nop     
4f3b 00        nop     
4f3c 00        nop     
4f3d 00        nop     
4f3e 00        nop     
4f3f 00        nop     
4f40 e5        push    hl
4f41 a5        and     l
4f42 00        nop     
4f43 00        nop     
4f44 ff        rst     38h
4f45 ff        rst     38h
4f46 ff        rst     38h
4f47 ff        rst     38h
4f48 ff        rst     38h
4f49 ff        rst     38h
4f4a ff        rst     38h
4f4b ff        rst     38h
4f4c ff        rst     38h
4f4d ff        rst     38h
4f4e ff        rst     38h
4f4f ff        rst     38h
4f50 ff        rst     38h
4f51 ff        rst     38h
4f52 f0        ret     p

4f53 f0        ret     p

4f54 0f        rrca    
4f55 0f        rrca    
4f56 00        nop     
4f57 00        nop     
4f58 00        nop     
4f59 00        nop     
4f5a 00        nop     
4f5b 00        nop     
4f5c 00        nop     
4f5d 00        nop     
4f5e 00        nop     
4f5f 00        nop     
4f60 00        nop     
4f61 00        nop     
4f62 00        nop     
4f63 00        nop     
4f64 00        nop     
4f65 00        nop     
4f66 00        nop     
4f67 00        nop     
4f68 00        nop     
4f69 00        nop     
4f6a 00        nop     
4f6b 00        nop     
4f6c 00        nop     
4f6d 00        nop     
4f6e 00        nop     
4f6f 00        nop     
4f70 00        nop     
4f71 00        nop     
4f72 00        nop     
4f73 00        nop     
4f74 00        nop     
4f75 00        nop     
4f76 00        nop     
4f77 00        nop     
4f78 00        nop     
4f79 00        nop     
4f7a 00        nop     
4f7b 00        nop     
4f7c 00        nop     
4f7d 00        nop     
4f7e 00        nop     
4f7f 00        nop     
4f80 07        rlca    
4f81 0f        rrca    
4f82 77        ld      (hl),a
4f83 8f        adc     a,a
4f84 ff        rst     38h
4f85 33        inc     sp
4f86 ff        rst     38h
4f87 ff        rst     38h
4f88 ff        rst     38h
4f89 ff        rst     38h
4f8a ff        rst     38h
4f8b ff        rst     38h
4f8c ff        rst     38h
4f8d ff        rst     38h
4f8e ff        rst     38h
4f8f ff        rst     38h
4f90 ff        rst     38h
4f91 ff        rst     38h
4f92 f7        rst     30h
4f93 ff        rst     38h
4f94 78        ld      a,b
4f95 f0        ret     p

4f96 07        rlca    
4f97 0f        rrca    
4f98 00        nop     
4f99 00        nop     
4f9a 00        nop     
4f9b 00        nop     
4f9c 00        nop     
4f9d 00        nop     
4f9e 00        nop     
4f9f 00        nop     
4fa0 00        nop     
4fa1 00        nop     
4fa2 00        nop     
4fa3 00        nop     
4fa4 00        nop     
4fa5 00        nop     
4fa6 00        nop     
4fa7 00        nop     
4fa8 00        nop     
4fa9 00        nop     
4faa 00        nop     
4fab 00        nop     
4fac 00        nop     
4fad 00        nop     
4fae 00        nop     
4faf 00        nop     
4fb0 00        nop     
4fb1 00        nop     
4fb2 00        nop     
4fb3 00        nop     
4fb4 00        nop     
4fb5 00        nop     
4fb6 00        nop     
4fb7 00        nop     
4fb8 00        nop     
4fb9 00        nop     
4fba 00        nop     
4fbb 00        nop     
4fbc 00        nop     
4fbd 00        nop     
4fbe 00        nop     
4fbf 00        nop     
4fc0 0f        rrca    
4fc1 0f        rrca    
4fc2 0f        rrca    
4fc3 0f        rrca    
4fc4 ff        rst     38h
4fc5 0f        rrca    
4fc6 ee77      xor     77h
4fc8 ff        rst     38h
4fc9 ff        rst     38h
4fca ff        rst     38h
4fcb ff        rst     38h
4fcc ff        rst     38h
4fcd ff        rst     38h
4fce ff        rst     38h
4fcf ff        rst     38h
4fd0 ff        rst     38h
4fd1 ff        rst     38h
4fd2 ff        rst     38h
4fd3 ff        rst     38h
4fd4 ff        rst     38h
4fd5 ff        rst     38h
4fd6 f0        ret     p

4fd7 f0        ret     p

4fd8 0f        rrca    
4fd9 0f        rrca    
4fda 00        nop     
4fdb 00        nop     
4fdc 00        nop     
4fdd 00        nop     
4fde 00        nop     
4fdf 00        nop     
4fe0 00        nop     
4fe1 00        nop     
4fe2 00        nop     
4fe3 00        nop     
4fe4 00        nop     
4fe5 00        nop     
4fe6 00        nop     
4fe7 00        nop     
4fe8 00        nop     
4fe9 00        nop     
4fea 00        nop     
4feb 00        nop     
4fec 00        nop     
4fed 00        nop     
4fee 00        nop     
4fef 00        nop     
4ff0 00        nop     
4ff1 00        nop     
4ff2 00        nop     
4ff3 00        nop     
4ff4 00        nop     
4ff5 00        nop     
4ff6 00        nop     
4ff7 00        nop     
4ff8 00        nop     
4ff9 00        nop     
4ffa 00        nop     
4ffb 00        nop     
4ffc 00        nop     
4ffd 00        nop     
4ffe 00        nop     
4fff 00        nop     
5000 00        nop     
5001 00        nop     
5002 00        nop     
5003 00        nop     
5004 00        nop     
5005 00        nop     
5006 00        nop     
5007 00        nop     
5008 00        nop     
5009 00        nop     
500a 00        nop     
500b 00        nop     
500c 00        nop     
500d 00        nop     
500e 00        nop     
500f 00        nop     
5010 00        nop     
5011 00        nop     
5012 00        nop     
5013 00        nop     
5014 00        nop     
5015 00        nop     
5016 00        nop     
5017 00        nop     
5018 00        nop     
5019 00        nop     
501a 00        nop     
501b 00        nop     
501c 00        nop     
501d 00        nop     
501e 00        nop     
501f 00        nop     
5020 00        nop     
5021 00        nop     
5022 00        nop     
5023 00        nop     
5024 00        nop     
5025 00        nop     
5026 33        inc     sp
5027 ff        rst     38h
5028 ccffcf    call    z,0cfffh
502b 0f        rrca    
502c 0f        rrca    
502d 0f        rrca    
502e 3c        inc     a
502f f0        ret     p

5030 f0        ret     p

5031 f0        ret     p

5032 f0        ret     p

5033 f0        ret     p

5034 f0        ret     p

5035 f0        ret     p

5036 f0        ret     p

5037 f0        ret     p

5038 f0        ret     p

5039 f0        ret     p

503a f0        ret     p

503b f0        ret     p

503c f0        ret     p

503d f0        ret     p

503e f0        ret     p

503f f0        ret     p

5040 00        nop     
5041 00        nop     
5042 00        nop     
5043 00        nop     
5044 00        nop     
5045 00        nop     
5046 00        nop     
5047 00        nop     
5048 00        nop     
5049 00        nop     
504a 00        nop     
504b 00        nop     
504c 00        nop     
504d 00        nop     
504e 00        nop     
504f 00        nop     
5050 00        nop     
5051 00        nop     
5052 00        nop     
5053 00        nop     
5054 00        nop     
5055 00        nop     
5056 00        nop     
5057 00        nop     
5058 00        nop     
5059 00        nop     
505a 00        nop     
505b 00        nop     
505c 87        add     a,a
505d 0f        rrca    
505e 0f        rrca    
505f 0f        rrca    
5060 08        ex      af,af'
5061 00        nop     
5062 f8        ret     m

5063 f0        ret     p

5064 77        ld      (hl),a
5065 ff        rst     38h
5066 99        sbc     a,c
5067 ff        rst     38h
5068 cf        rst     08h
5069 0f        rrca    
506a 0f        rrca    
506b 0f        rrca    
506c 78        ld      a,b
506d f0        ret     p

506e f0        ret     p

506f f0        ret     p

5070 f0        ret     p

5071 f0        ret     p

5072 f0        ret     p

5073 f0        ret     p

5074 f0        ret     p

5075 f0        ret     p

5076 f0        ret     p

5077 f0        ret     p

5078 f0        ret     p

5079 f0        ret     p

507a f0        ret     p

507b f0        ret     p

507c f0        ret     p

507d f0        ret     p

507e f0        ret     p

507f f0        ret     p

5080 00        nop     
5081 00        nop     
5082 00        nop     
5083 00        nop     
5084 00        nop     
5085 00        nop     
5086 00        nop     
5087 00        nop     
5088 00        nop     
5089 00        nop     
508a 00        nop     
508b 00        nop     
508c 00        nop     
508d 00        nop     
508e 00        nop     
508f 00        nop     
5090 00        nop     
5091 00        nop     
5092 00        nop     
5093 00        nop     
5094 00        nop     
5095 00        nop     
5096 00        nop     
5097 00        nop     
5098 00        nop     
5099 00        nop     
509a 00        nop     
509b 00        nop     
509c 0f        rrca    
509d 2c        inc     l
509e 0f        rrca    
509f 0e00      ld      c,00h
50a1 66        ld      h,(hl)
50a2 f0        ret     p

50a3 c4ffff    call    nz,0ffffh
50a6 ff        rst     38h
50a7 ff        rst     38h
50a8 0f        rrca    
50a9 3f        ccf     
50aa 0f        rrca    
50ab 0f        rrca    
50ac f0        ret     p

50ad c3f0c3    jp      0c3f0h
50b0 f0        ret     p

50b1 c3f0c3    jp      0c3f0h
50b4 f0        ret     p

50b5 c3f0c3    jp      0c3f0h
50b8 f0        ret     p

50b9 c3f0c3    jp      0c3f0h
50bc f0        ret     p

50bd c3f0c3    jp      0c3f0h
50c0 00        nop     
50c1 00        nop     
50c2 00        nop     
50c3 00        nop     
50c4 00        nop     
50c5 00        nop     
50c6 00        nop     
50c7 00        nop     
50c8 00        nop     
50c9 00        nop     
50ca 1000      djnz    50cch
50cc 1000      djnz    50ceh
50ce f0        ret     p

50cf a6        and     (hl)
50d0 1000      djnz    50d2h
50d2 1000      djnz    50d4h
50d4 010001    ld      bc,0100h
50d7 00        nop     
50d8 318073    ld      sp,7380h
50db c8        ret     z

50dc 268c      ld      h,8ch
50de 268c      ld      h,8ch
50e0 368c      ld      (hl),8ch
50e2 76        halt    
50e3 ccffff    call    z,0ffffh
50e6 ff        rst     38h
50e7 ff        rst     38h
50e8 0f        rrca    
50e9 0f        rrca    
50ea 0f        rrca    
50eb 0f        rrca    
50ec f0        ret     p

50ed f0        ret     p

50ee f0        ret     p

50ef f0        ret     p

50f0 f0        ret     p

50f1 70        ld      (hl),b
50f2 f0        ret     p

50f3 70        ld      (hl),b
50f4 f0        ret     p

50f5 70        ld      (hl),b
50f6 f0        ret     p

50f7 70        ld      (hl),b
50f8 f0        ret     p

50f9 70        ld      (hl),b
50fa f0        ret     p

50fb 70        ld      (hl),b
50fc f0        ret     p

50fd 70        ld      (hl),b
50fe f0        ret     p

50ff 70        ld      (hl),b
5100 f0        ret     p

5101 f0        ret     p

5102 f0        ret     p

5103 f0        ret     p

5104 f0        ret     p

5105 f0        ret     p

5106 f0        ret     p

5107 f0        ret     p

5108 f0        ret     p

5109 f0        ret     p

510a f0        ret     p

510b f0        ret     p

510c f0        ret     p

510d f0        ret     p

510e f0        ret     p

510f f0        ret     p

5110 f0        ret     p

5111 f0        ret     p

5112 f0        ret     p

5113 f0        ret     p

5114 b4        or      h
5115 f0        ret     p

5116 96        sub     (hl)
5117 f0        ret     p

5118 87        add     a,a
5119 f0        ret     p

511a 87        add     a,a
511b 78        ld      a,b
511c c33ce1    jp      0e13ch
511f 0f        rrca    
5120 f0        ret     p

5121 0f        rrca    
5122 f0        ret     p

5123 87        add     a,a
5124 f0        ret     p

5125 c3f0f0    jp      0f0f0h
5128 f0        ret     p

5129 f0        ret     p

512a f0        ret     p

512b fc303c    call    m,3c30h
512e fdf0      ret     p

5130 ff        rst     38h
5131 f0        ret     p

5132 fe30      cp      30h
5134 fcf0fc    call    m,0fcf0h
5137 f0        ret     p

5138 30f0      jr      nc,512ah
513a f0        ret     p

513b f0        ret     p

513c f0        ret     p

513d f0        ret     p

513e 0f        rrca    
513f 0f        rrca    
5140 f0        ret     p

5141 f0        ret     p

5142 f0        ret     p

5143 f0        ret     p

5144 f0        ret     p

5145 f0        ret     p

5146 f0        ret     p

5147 f0        ret     p

5148 f0        ret     p

5149 f0        ret     p

514a f0        ret     p

514b f0        ret     p

514c f0        ret     p

514d f0        ret     p

514e f0        ret     p

514f f0        ret     p

5150 f0        ret     p

5151 f0        ret     p

5152 f0        ret     p

5153 f0        ret     p

5154 f0        ret     p

5155 f0        ret     p

5156 f0        ret     p

5157 f0        ret     p

5158 f0        ret     p

5159 f0        ret     p

515a f0        ret     p

515b f0        ret     p

515c f0        ret     p

515d f0        ret     p

515e 0f        rrca    
515f 1e0f      ld      e,0fh
5161 1e0f      ld      e,0fh
5163 1e0f      ld      e,0fh
5165 1ef0      ld      e,0f0h
5167 f0        ret     p

5168 d2f0d2    jp      nc,0d2f0h
516b f0        ret     p

516c c3f0c3    jp      0c3f0h
516f 78        ld      a,b
5170 c30fe1    jp      0e10fh
5173 0f        rrca    
5174 f0        ret     p

5175 0f        rrca    
5176 f0        ret     p

5177 87        add     a,a
5178 f0        ret     p

5179 f0        ret     p

517a f0        ret     p

517b f0        ret     p

517c f0        ret     p

517d f0        ret     p

517e 0f        rrca    
517f 0f        rrca    
5180 f0        ret     p

5181 c3f0c3    jp      0c3f0h
5184 f0        ret     p

5185 c3f0c3    jp      0c3f0h
5188 f0        ret     p

5189 c31ec3    jp      0c31eh
518c 1ec3      ld      e,0c3h
518e 1ec3      ld      e,0c3h
5190 1ec3      ld      e,0c3h
5192 1ec3      ld      e,0c3h
5194 1ec3      ld      e,0c3h
5196 1ec3      ld      e,0c3h
5198 1ec3      ld      e,0c3h
519a 1ec3      ld      e,0c3h
519c 1ec3      ld      e,0c3h
519e 1ec3      ld      e,0c3h
51a0 1ec3      ld      e,0c3h
51a2 1ec3      ld      e,0c3h
51a4 1ec3      ld      e,0c3h
51a6 1ec3      ld      e,0c3h
51a8 1ec3      ld      e,0c3h
51aa 1ec3      ld      e,0c3h
51ac 1ec3      ld      e,0c3h
51ae 1ec3      ld      e,0c3h
51b0 1ec3      ld      e,0c3h
51b2 1ec3      ld      e,0c3h
51b4 1ec3      ld      e,0c3h
51b6 1ec3      ld      e,0c3h
51b8 f0        ret     p

51b9 c3f0c3    jp      0c3f0h
51bc f0        ret     p

51bd c30f0f    jp      0f0fh
51c0 f0        ret     p

51c1 70        ld      (hl),b
51c2 f0        ret     p

51c3 70        ld      (hl),b
51c4 f0        ret     p

51c5 70        ld      (hl),b
51c6 f0        ret     p

51c7 70        ld      (hl),b
51c8 f0        ret     p

51c9 70        ld      (hl),b
51ca f0        ret     p

51cb 70        ld      (hl),b
51cc f0        ret     p

51cd 70        ld      (hl),b
51ce f0        ret     p

51cf 70        ld      (hl),b
51d0 f0        ret     p

51d1 70        ld      (hl),b
51d2 0f        rrca    
51d3 07        rlca    
51d4 0f        rrca    
51d5 07        rlca    
51d6 f0        ret     p

51d7 70        ld      (hl),b
51d8 f0        ret     p

51d9 70        ld      (hl),b
51da f0        ret     p

51db 70        ld      (hl),b
51dc f0        ret     p

51dd 70        ld      (hl),b
51de f0        ret     p

51df 70        ld      (hl),b
51e0 f0        ret     p

51e1 70        ld      (hl),b
51e2 f0        ret     p

51e3 70        ld      (hl),b
51e4 f0        ret     p

51e5 70        ld      (hl),b
51e6 f0        ret     p

51e7 70        ld      (hl),b
51e8 f0        ret     p

51e9 70        ld      (hl),b
51ea f0        ret     p

51eb 70        ld      (hl),b
51ec f0        ret     p

51ed 70        ld      (hl),b
51ee f0        ret     p

51ef 70        ld      (hl),b
51f0 f0        ret     p

51f1 70        ld      (hl),b
51f2 f0        ret     p

51f3 70        ld      (hl),b
51f4 f0        ret     p

51f5 70        ld      (hl),b
51f6 f0        ret     p

51f7 70        ld      (hl),b
51f8 f0        ret     p

51f9 70        ld      (hl),b
51fa f0        ret     p

51fb 70        ld      (hl),b
51fc f0        ret     p

51fd 70        ld      (hl),b
51fe 0f        rrca    
51ff 07        rlca    
5200 00        nop     
5201 00        nop     
5202 00        nop     
5203 00        nop     
5204 00        nop     
5205 00        nop     
5206 00        nop     
5207 00        nop     
5208 00        nop     
5209 00        nop     
520a 00        nop     
520b 00        nop     
520c 00        nop     
520d 00        nop     
520e 00        nop     
520f 00        nop     
5210 00        nop     
5211 00        nop     
5212 00        nop     
5213 00        nop     
5214 00        nop     
5215 00        nop     
5216 00        nop     
5217 00        nop     
5218 00        nop     
5219 00        nop     
521a 00        nop     
521b 00        nop     
521c 00        nop     
521d 00        nop     
521e 00        nop     
521f 00        nop     
5220 00        nop     
5221 00        nop     
5222 00        nop     
5223 00        nop     
5224 00        nop     
5225 00        nop     
5226 00        nop     
5227 00        nop     
5228 0f        rrca    
5229 08        ex      af,af'
522a d308      out     (08h),a
522c ff        rst     38h
522d 88        adc     a,b
522e f0        ret     p

522f cc47f0    call    z,0f047h
5232 fafaf5    jp      m,0f5fah
5235 f5        push    af
5236 fafa75    jp      m,75fah
5239 f5        push    af
523a b8        cp      b
523b f0        ret     p

523c ff        rst     38h
523d ff        rst     38h
523e ff        rst     38h
523f ff        rst     38h
5240 00        nop     
5241 00        nop     
5242 00        nop     
5243 00        nop     
5244 00        nop     
5245 00        nop     
5246 00        nop     
5247 00        nop     
5248 00        nop     
5249 00        nop     
524a 00        nop     
524b 00        nop     
524c 00        nop     
524d 00        nop     
524e 00        nop     
524f 00        nop     
5250 00        nop     
5251 00        nop     
5252 00        nop     
5253 00        nop     
5254 00        nop     
5255 00        nop     
5256 00        nop     
5257 00        nop     
5258 00        nop     
5259 00        nop     
525a 00        nop     
525b 00        nop     
525c 00        nop     
525d 00        nop     
525e 00        nop     
525f 00        nop     
5260 00        nop     
5261 00        nop     
5262 00        nop     
5263 00        nop     
5264 00        nop     
5265 00        nop     
5266 00        nop     
5267 00        nop     
5268 00        nop     
5269 00        nop     
526a 00        nop     
526b 00        nop     
526c 00        nop     
526d 00        nop     
526e 00        nop     
526f 00        nop     
5270 e1        pop     hl
5271 4c        ld      c,h
5272 fac4f5    jp      m,0f5c4h
5275 0c        inc     c
5276 fac4f5    jp      m,0f5c4h
5279 0c        inc     c
527a f2e4f9    jp      p,0f9e4h
527d 2c        inc     l
527e fac600    jp      m,00c6h
5281 00        nop     
5282 00        nop     
5283 00        nop     
5284 00        nop     
5285 00        nop     
5286 00        nop     
5287 00        nop     
5288 00        nop     
5289 00        nop     
528a 00        nop     
528b 00        nop     
528c 00        nop     
528d 00        nop     
528e 00        nop     
528f 00        nop     
5290 00        nop     
5291 00        nop     
5292 00        nop     
5293 00        nop     
5294 00        nop     
5295 00        nop     
5296 00        nop     
5297 00        nop     
5298 00        nop     
5299 00        nop     
529a 00        nop     
529b 00        nop     
529c 00        nop     
529d 00        nop     
529e 00        nop     
529f 00        nop     
52a0 00        nop     
52a1 00        nop     
52a2 00        nop     
52a3 00        nop     
52a4 00        nop     
52a5 00        nop     
52a6 00        nop     
52a7 00        nop     
52a8 00        nop     
52a9 00        nop     
52aa 00        nop     
52ab 00        nop     
52ac 00        nop     
52ad 00        nop     
52ae 00        nop     
52af 00        nop     
52b0 00        nop     
52b1 00        nop     
52b2 00        nop     
52b3 00        nop     
52b4 00        nop     
52b5 00        nop     
52b6 00        nop     
52b7 00        nop     
52b8 00        nop     
52b9 00        nop     
52ba 00        nop     
52bb 00        nop     
52bc 00        nop     
52bd 00        nop     
52be 00        nop     
52bf 00        nop     
52c0 00        nop     
52c1 00        nop     
52c2 00        nop     
52c3 00        nop     
52c4 00        nop     
52c5 00        nop     
52c6 00        nop     
52c7 00        nop     
52c8 00        nop     
52c9 00        nop     
52ca 00        nop     
52cb 00        nop     
52cc 00        nop     
52cd 00        nop     
52ce 00        nop     
52cf 00        nop     
52d0 00        nop     
52d1 00        nop     
52d2 00        nop     
52d3 00        nop     
52d4 00        nop     
52d5 00        nop     
52d6 00        nop     
52d7 00        nop     
52d8 00        nop     
52d9 00        nop     
52da 00        nop     
52db 00        nop     
52dc 00        nop     
52dd 00        nop     
52de 00        nop     
52df 00        nop     
52e0 00        nop     
52e1 00        nop     
52e2 00        nop     
52e3 00        nop     
52e4 00        nop     
52e5 00        nop     
52e6 00        nop     
52e7 00        nop     
52e8 00        nop     
52e9 00        nop     
52ea 00        nop     
52eb 00        nop     
52ec 00        nop     
52ed 00        nop     
52ee 00        nop     
52ef 00        nop     
52f0 00        nop     
52f1 00        nop     
52f2 00        nop     
52f3 00        nop     
52f4 00        nop     
52f5 00        nop     
52f6 00        nop     
52f7 00        nop     
52f8 00        nop     
52f9 00        nop     
52fa 00        nop     
52fb 00        nop     
52fc 00        nop     
52fd 00        nop     
52fe 00        nop     
52ff 00        nop     
5300 0f        rrca    
5301 0f        rrca    
5302 0f        rrca    
5303 0f        rrca    
5304 ff        rst     38h
5305 ff        rst     38h
5306 ff        rst     38h
5307 ff        rst     38h
5308 ff        rst     38h
5309 ff        rst     38h
530a ff        rst     38h
530b ff        rst     38h
530c ff        rst     38h
530d ff        rst     38h
530e ff        rst     38h
530f ff        rst     38h
5310 ff        rst     38h
5311 ff        rst     38h
5312 ff        rst     38h
5313 ff        rst     38h
5314 ff        rst     38h
5315 ff        rst     38h
5316 ff        rst     38h
5317 ff        rst     38h
5318 ff        rst     38h
5319 ff        rst     38h
531a ff        rst     38h
531b ff        rst     38h
531c ff        rst     38h
531d ff        rst     38h
531e 0f        rrca    
531f 0f        rrca    
5320 0f        rrca    
5321 0f        rrca    
5322 0f        rrca    
5323 0f        rrca    
5324 ff        rst     38h
5325 ff        rst     38h
5326 ff        rst     38h
5327 ff        rst     38h
5328 ff        rst     38h
5329 ff        rst     38h
532a ff        rst     38h
532b ff        rst     38h
532c ff        rst     38h
532d ff        rst     38h
532e ff        rst     38h
532f ff        rst     38h
5330 ff        rst     38h
5331 ff        rst     38h
5332 ff        rst     38h
5333 ff        rst     38h
5334 ff        rst     38h
5335 ff        rst     38h
5336 ff        rst     38h
5337 ff        rst     38h
5338 ff        rst     38h
5339 ff        rst     38h
533a ff        rst     38h
533b ff        rst     38h
533c 0f        rrca    
533d 0f        rrca    
533e 0f        rrca    
533f 0f        rrca    
5340 f9        ld      sp,hl
5341 0efa      ld      c,0fah
5343 d6f9      sub     0f9h
5345 1f        rra     
5346 fad7f9    jp      m,0f9d7h
5349 1f        rra     
534a fad7f9    jp      m,0f9d7h
534d 1d        dec     e
534e fae6f9    jp      m,0f9e6h
5351 2efa      ld      l,0fah
5353 f7        rst     30h
5354 f9        ld      sp,hl
5355 1f        rra     
5356 fad7f9    jp      m,0f9d7h
5359 1f        rra     
535a fad7f9    jp      m,0f9d7h
535d 1f        rra     
535e 7e        ld      a,(hl)
535f d7        rst     10h
5360 7d        ld      a,l
5361 1f        rra     
5362 7e        ld      a,(hl)
5363 d7        rst     10h
5364 f9        ld      sp,hl
5365 1f        rra     
5366 fad7f9    jp      m,0f9d7h
5369 1f        rra     
536a fad7f9    jp      m,0f9d7h
536d 1efa      ld      e,0fah
536f d7        rst     10h
5370 f9        ld      sp,hl
5371 1f        rra     
5372 fad7f9    jp      m,0f9d7h
5375 3f        ccf     
5376 fad5f9    jp      m,0f9d5h
5379 1d        dec     e
537a faf7f9    jp      m,0f9f7h
537d 0efa      ld      c,0fah
537f d600      sub     00h
5381 00        nop     
5382 e0        ret     po

5383 00        nop     
5384 fe00      cp      00h
5386 ff        rst     38h
5387 80        add     a,b
5388 ff        rst     38h
5389 80        add     a,b
538a 33        inc     sp
538b 80        add     a,b
538c 77        ld      (hl),a
538d 80        add     a,b
538e 33        inc     sp
538f 80        add     a,b
5390 67        ld      h,a
5391 08        ex      af,af'
5392 9f        sbc     a,a
5393 7e        ld      a,(hl)
5394 ff        rst     38h
5395 7f        ld      a,a
5396 1f        rra     
5397 0f        rrca    
5398 5b        ld      e,e
5399 3f        ccf     
539a 5b        ld      e,e
539b 4f        ld      c,a
539c 5b        ld      e,e
539d 1f        rra     
539e 4b        ld      c,e
539f 69        ld      l,c
53a0 6b        ld      l,e
53a1 69        ld      l,c
53a2 7b        ld      a,e
53a3 9f        sbc     a,a
53a4 5b        ld      e,e
53a5 cf        rst     08h
53a6 5b        ld      e,e
53a7 ff        rst     38h
53a8 5b        ld      e,e
53a9 7f        ld      a,a
53aa 5b        ld      e,e
53ab 7f        ld      a,a
53ac f1        pop     af
53ad 6f        ld      l,a
53ae fe78      cp      78h
53b0 ff        rst     38h
53b1 f7        rst     30h
53b2 11f733    ld      de,33f7h
53b5 f7        rst     30h
53b6 bb        cp      e
53b7 f0        ret     p

53b8 ff        rst     38h
53b9 87        add     a,a
53ba ef        rst     28h
53bb 08        ex      af,af'
53bc 0f        rrca    
53bd 00        nop     
53be e1        pop     hl
53bf 00        nop     
53c0 00        nop     
53c1 00        nop     
53c2 00        nop     
53c3 00        nop     
53c4 00        nop     
53c5 00        nop     
53c6 00        nop     
53c7 00        nop     
53c8 00        nop     
53c9 00        nop     
53ca 00        nop     
53cb 00        nop     
53cc 00        nop     
53cd 00        nop     
53ce 00        nop     
53cf 00        nop     
53d0 80        add     a,b
53d1 00        nop     
53d2 1000      djnz    53d4h
53d4 ce88      adc     a,88h
53d6 7f        ld      a,a
53d7 cc9faa    call    z,0aa9fh
53da 4f        ld      c,a
53db cc6b5d    call    z,5d6bh
53de 6b        ld      l,e
53df 4c        ld      c,h
53e0 6b        ld      l,e
53e1 4c        ld      c,h
53e2 6b        ld      l,e
53e3 4c        ld      c,h
53e4 4f        ld      c,a
53e5 4d        ld      c,l
53e6 cf        rst     08h
53e7 88        adc     a,b
53e8 ff        rst     38h
53e9 8a        adc     a,d
53ea ce04      adc     a,04h
53ec e1        pop     hl
53ed 08        ex      af,af'
53ee 7e        ld      a,(hl)
53ef 08        ex      af,af'
53f0 fe08      cp      08h
53f2 fe08      cp      08h
53f4 e9        jp      (hl)
53f5 00        nop     
53f6 86        add     a,(hl)
53f7 00        nop     
53f8 08        ex      af,af'
53f9 00        nop     
53fa 00        nop     
53fb 00        nop     
53fc 00        nop     
53fd 00        nop     
53fe 00        nop     
53ff 00        nop     
5400 00        nop     
5401 00        nop     
5402 00        nop     
5403 00        nop     
5404 00        nop     
5405 00        nop     
5406 00        nop     
5407 00        nop     
5408 00        nop     
5409 00        nop     
540a 00        nop     
540b 00        nop     
540c 00        nop     
540d 00        nop     
540e 00        nop     
540f 00        nop     
5410 00        nop     
5411 00        nop     
5412 00        nop     
5413 00        nop     
5414 00        nop     
5415 00        nop     
5416 00        nop     
5417 00        nop     
5418 00        nop     
5419 00        nop     
541a 00        nop     
541b 00        nop     
541c 00        nop     
541d 00        nop     
541e 00        nop     
541f 00        nop     
5420 00        nop     
5421 00        nop     
5422 00        nop     
5423 00        nop     
5424 00        nop     
5425 00        nop     
5426 00        nop     
5427 00        nop     
5428 00        nop     
5429 00        nop     
542a 00        nop     
542b 00        nop     
542c ff        rst     38h
542d ff        rst     38h
542e 80        add     a,b
542f 00        nop     
5430 a0        and     b
5431 f5        push    af
5432 a0        and     b
5433 f5        push    af
5434 a0        and     b
5435 f5        push    af
5436 a0        and     b
5437 f5        push    af
5438 a0        and     b
5439 f5        push    af
543a a0        and     b
543b f5        push    af
543c a0        and     b
543d f5        push    af
543e a0        and     b
543f f5        push    af
5440 00        nop     
5441 00        nop     
5442 00        nop     
5443 00        nop     
5444 00        nop     
5445 00        nop     
5446 00        nop     
5447 00        nop     
5448 00        nop     
5449 00        nop     
544a 00        nop     
544b 00        nop     
544c 00        nop     
544d 00        nop     
544e 00        nop     
544f 00        nop     
5450 00        nop     
5451 00        nop     
5452 00        nop     
5453 00        nop     
5454 00        nop     
5455 00        nop     
5456 00        nop     
5457 00        nop     
5458 00        nop     
5459 00        nop     
545a 00        nop     
545b 00        nop     
545c 00        nop     
545d 00        nop     
545e 00        nop     
545f 00        nop     
5460 00        nop     
5461 00        nop     
5462 00        nop     
5463 00        nop     
5464 00        nop     
5465 00        nop     
5466 00        nop     
5467 00        nop     
5468 00        nop     
5469 00        nop     
546a 00        nop     
546b 00        nop     
546c ff        rst     38h
546d ff        rst     38h
546e 00        nop     
546f 00        nop     
5470 e5        push    hl
5471 a5        and     l
5472 e5        push    hl
5473 a5        and     l
5474 e5        push    hl
5475 a5        and     l
5476 e5        push    hl
5477 a5        and     l
5478 e5        push    hl
5479 a5        and     l
547a e5        push    hl
547b a5        and     l
547c e5        push    hl
547d a5        and     l
547e e5        push    hl
547f a5        and     l
5480 00        nop     
5481 00        nop     
5482 00        nop     
5483 00        nop     
5484 00        nop     
5485 00        nop     
5486 00        nop     
5487 00        nop     
5488 00        nop     
5489 00        nop     
548a 00        nop     
548b 00        nop     
548c 00        nop     
548d 00        nop     
548e 00        nop     
548f 00        nop     
5490 00        nop     
5491 00        nop     
5492 00        nop     
5493 00        nop     
5494 00        nop     
5495 00        nop     
5496 00        nop     
5497 00        nop     
5498 00        nop     
5499 00        nop     
549a 00        nop     
549b 00        nop     
549c 00        nop     
549d 00        nop     
549e 00        nop     
549f 00        nop     
54a0 00        nop     
54a1 00        nop     
54a2 00        nop     
54a3 00        nop     
54a4 00        nop     
54a5 00        nop     
54a6 00        nop     
54a7 00        nop     
54a8 00        nop     
54a9 00        nop     
54aa 00        nop     
54ab 33        inc     sp
54ac ff        rst     38h
54ad ccffef    call    z,0efffh
54b0 8f        adc     a,a
54b1 0f        rrca    
54b2 8f        adc     a,a
54b3 1ef8      ld      e,0f8h
54b5 f0        ret     p

54b6 f8        ret     m

54b7 f0        ret     p

54b8 f8        ret     m

54b9 f0        ret     p

54ba f8        ret     m

54bb f0        ret     p

54bc f8        ret     m

54bd f0        ret     p

54be f8        ret     m

54bf f0        ret     p

54c0 00        nop     
54c1 00        nop     
54c2 00        nop     
54c3 00        nop     
54c4 00        nop     
54c5 00        nop     
54c6 00        nop     
54c7 00        nop     
54c8 00        nop     
54c9 00        nop     
54ca 00        nop     
54cb 00        nop     
54cc 00        nop     
54cd 00        nop     
54ce 00        nop     
54cf 00        nop     
54d0 00        nop     
54d1 00        nop     
54d2 00        nop     
54d3 00        nop     
54d4 00        nop     
54d5 00        nop     
54d6 00        nop     
54d7 00        nop     
54d8 00        nop     
54d9 00        nop     
54da 00        nop     
54db 00        nop     
54dc 00        nop     
54dd 00        nop     
54de 00        nop     
54df 00        nop     
54e0 00        nop     
54e1 00        nop     
54e2 00        nop     
54e3 00        nop     
54e4 00        nop     
54e5 00        nop     
54e6 00        nop     
54e7 00        nop     
54e8 00        nop     
54e9 00        nop     
54ea ff        rst     38h
54eb ccffef    call    z,0efffh
54ee 0f        rrca    
54ef 0f        rrca    
54f0 0f        rrca    
54f1 1ef0      ld      e,0f0h
54f3 f0        ret     p

54f4 f0        ret     p

54f5 f0        ret     p

54f6 f0        ret     p

54f7 f0        ret     p

54f8 f0        ret     p

54f9 f0        ret     p

54fa f0        ret     p

54fb f0        ret     p

54fc f0        ret     p

54fd f0        ret     p

54fe f0        ret     p

54ff f0        ret     p

5500 a0        and     b
5501 f5        push    af
5502 a0        and     b
5503 f5        push    af
5504 a0        and     b
5505 f5        push    af
5506 a0        and     b
5507 f5        push    af
5508 a0        and     b
5509 f5        push    af
550a a0        and     b
550b f5        push    af
550c a0        and     b
550d f5        push    af
550e a0        and     b
550f f5        push    af
5510 a0        and     b
5511 f5        push    af
5512 a0        and     b
5513 f5        push    af
5514 a0        and     b
5515 f5        push    af
5516 a0        and     b
5517 f5        push    af
5518 a0        and     b
5519 f5        push    af
551a a0        and     b
551b f5        push    af
551c a0        and     b
551d f5        push    af
551e a0        and     b
551f f5        push    af
5520 a0        and     b
5521 f5        push    af
5522 a0        and     b
5523 f5        push    af
5524 a0        and     b
5525 f5        push    af
5526 a0        and     b
5527 f5        push    af
5528 a0        and     b
5529 f5        push    af
552a a0        and     b
552b f5        push    af
552c a0        and     b
552d f5        push    af
552e a0        and     b
552f f5        push    af
5530 a0        and     b
5531 f5        push    af
5532 a0        and     b
5533 f5        push    af
5534 a0        and     b
5535 f5        push    af
5536 a0        and     b
5537 f5        push    af
5538 a0        and     b
5539 f5        push    af
553a a0        and     b
553b f5        push    af
553c a0        and     b
553d f5        push    af
553e a0        and     b
553f f5        push    af
5540 e5        push    hl
5541 a5        and     l
5542 e5        push    hl
5543 a5        and     l
5544 e5        push    hl
5545 a5        and     l
5546 e5        push    hl
5547 a5        and     l
5548 e5        push    hl
5549 a5        and     l
554a e5        push    hl
554b a5        and     l
554c e5        push    hl
554d a5        and     l
554e e5        push    hl
554f a5        and     l
5550 e5        push    hl
5551 a5        and     l
5552 e5        push    hl
5553 a5        and     l
5554 e5        push    hl
5555 a5        and     l
5556 e5        push    hl
5557 a5        and     l
5558 e5        push    hl
5559 a5        and     l
555a e5        push    hl
555b a5        and     l
555c e5        push    hl
555d a5        and     l
555e e5        push    hl
555f a5        and     l
5560 e5        push    hl
5561 a5        and     l
5562 e5        push    hl
5563 a5        and     l
5564 e5        push    hl
5565 a5        and     l
5566 e5        push    hl
5567 a5        and     l
5568 e5        push    hl
5569 a5        and     l
556a e5        push    hl
556b a5        and     l
556c e5        push    hl
556d a5        and     l
556e e5        push    hl
556f a5        and     l
5570 e5        push    hl
5571 a5        and     l
5572 e5        push    hl
5573 a5        and     l
5574 e5        push    hl
5575 a5        and     l
5576 e5        push    hl
5577 a5        and     l
5578 e5        push    hl
5579 a5        and     l
557a e5        push    hl
557b a5        and     l
557c e5        push    hl
557d a5        and     l
557e e5        push    hl
557f a5        and     l
5580 f8        ret     m

5581 f0        ret     p

5582 f8        ret     m

5583 f0        ret     p

5584 f8        ret     m

5585 f0        ret     p

5586 f8        ret     m

5587 f0        ret     p

5588 f8        ret     m

5589 f0        ret     p

558a f8        ret     m

558b f0        ret     p

558c f8        ret     m

558d f0        ret     p

558e f8        ret     m

558f f0        ret     p

5590 f8        ret     m

5591 f0        ret     p

5592 f8        ret     m

5593 f0        ret     p

5594 f8        ret     m

5595 f0        ret     p

5596 f8        ret     m

5597 f0        ret     p

5598 f8        ret     m

5599 f0        ret     p

559a f8        ret     m

559b f0        ret     p

559c f8        ret     m

559d f0        ret     p

559e f8        ret     m

559f f0        ret     p

55a0 f8        ret     m

55a1 f0        ret     p

55a2 f8        ret     m

55a3 f0        ret     p

55a4 f8        ret     m

55a5 f0        ret     p

55a6 f8        ret     m

55a7 f0        ret     p

55a8 f8        ret     m

55a9 f0        ret     p

55aa f8        ret     m

55ab f0        ret     p

55ac f8        ret     m

55ad f0        ret     p

55ae f8        ret     m

55af f0        ret     p

55b0 f8        ret     m

55b1 f0        ret     p

55b2 f8        ret     m

55b3 f0        ret     p

55b4 f8        ret     m

55b5 f0        ret     p

55b6 f8        ret     m

55b7 f0        ret     p

55b8 f8        ret     m

55b9 f0        ret     p

55ba f8        ret     m

55bb f0        ret     p

55bc f8        ret     m

55bd f0        ret     p

55be 8f        adc     a,a
55bf 0f        rrca    
55c0 f0        ret     p

55c1 f0        ret     p

55c2 f0        ret     p

55c3 f0        ret     p

55c4 f0        ret     p

55c5 f0        ret     p

55c6 f0        ret     p

55c7 f0        ret     p

55c8 f0        ret     p

55c9 f0        ret     p

55ca f0        ret     p

55cb f0        ret     p

55cc f0        ret     p

55cd f0        ret     p

55ce f0        ret     p

55cf f0        ret     p

55d0 f0        ret     p

55d1 f0        ret     p

55d2 f0        ret     p

55d3 f0        ret     p

55d4 f0        ret     p

55d5 f0        ret     p

55d6 f0        ret     p

55d7 f0        ret     p

55d8 f0        ret     p

55d9 f0        ret     p

55da f0        ret     p

55db f0        ret     p

55dc f0        ret     p

55dd f0        ret     p

55de f0        ret     p

55df f0        ret     p

55e0 f0        ret     p

55e1 f0        ret     p

55e2 f0        ret     p

55e3 f0        ret     p

55e4 f0        ret     p

55e5 f0        ret     p

55e6 f0        ret     p

55e7 f0        ret     p

55e8 f0        ret     p

55e9 f0        ret     p

55ea f0        ret     p

55eb f0        ret     p

55ec f0        ret     p

55ed f0        ret     p

55ee f0        ret     p

55ef f0        ret     p

55f0 f0        ret     p

55f1 f0        ret     p

55f2 f0        ret     p

55f3 f0        ret     p

55f4 f0        ret     p

55f5 f0        ret     p

55f6 f0        ret     p

55f7 f0        ret     p

55f8 f0        ret     p

55f9 f0        ret     p

55fa f0        ret     p

55fb f0        ret     p

55fc f0        ret     p

55fd f0        ret     p

55fe 0f        rrca    
55ff 0f        rrca    
5600 00        nop     
5601 00        nop     
5602 00        nop     
5603 00        nop     
5604 00        nop     
5605 00        nop     
5606 00        nop     
5607 00        nop     
5608 00        nop     
5609 00        nop     
560a 00        nop     
560b 00        nop     
560c 00        nop     
560d 00        nop     
560e 00        nop     
560f 00        nop     
5610 00        nop     
5611 00        nop     
5612 00        nop     
5613 00        nop     
5614 00        nop     
5615 00        nop     
5616 00        nop     
5617 00        nop     
5618 00        nop     
5619 00        nop     
561a 00        nop     
561b 00        nop     
561c 00        nop     
561d 00        nop     
561e 00        nop     
561f 00        nop     
5620 00        nop     
5621 00        nop     
5622 00        nop     
5623 00        nop     
5624 00        nop     
5625 00        nop     
5626 00        nop     
5627 00        nop     
5628 5c        ld      e,h
5629 00        nop     
562a f0        ret     p

562b f0        ret     p

562c f5        push    af
562d e4fafa    call    po,0fafah
5630 f5        push    af
5631 f5        push    af
5632 fafaf0    jp      m,0f0fah
5635 f0        ret     p

5636 ff        rst     38h
5637 ff        rst     38h
5638 ff        rst     38h
5639 ff        rst     38h
563a ff        rst     38h
563b ff        rst     38h
563c ff        rst     38h
563d ff        rst     38h
563e ff        rst     38h
563f ff        rst     38h
5640 00        nop     
5641 00        nop     
5642 00        nop     
5643 00        nop     
5644 00        nop     
5645 00        nop     
5646 00        nop     
5647 00        nop     
5648 00        nop     
5649 00        nop     
564a 00        nop     
564b 00        nop     
564c 00        nop     
564d 00        nop     
564e 00        nop     
564f 00        nop     
5650 00        nop     
5651 00        nop     
5652 00        nop     
5653 00        nop     
5654 00        nop     
5655 00        nop     
5656 00        nop     
5657 00        nop     
5658 00        nop     
5659 00        nop     
565a 00        nop     
565b 00        nop     
565c 00        nop     
565d 00        nop     
565e 00        nop     
565f 00        nop     
5660 00        nop     
5661 00        nop     
5662 00        nop     
5663 00        nop     
5664 00        nop     
5665 00        nop     
5666 00        nop     
5667 00        nop     
5668 00        nop     
5669 00        nop     
566a f0        ret     p

566b 4c        ld      c,h
566c 47        ld      b,a
566d f0        ret     p

566e fafaf5    jp      m,0f5fah
5671 f5        push    af
5672 fafa75    jp      m,75fah
5675 f5        push    af
5676 b8        cp      b
5677 f0        ret     p

5678 ff        rst     38h
5679 ff        rst     38h
567a ff        rst     38h
567b ff        rst     38h
567c ff        rst     38h
567d ff        rst     38h
567e ff        rst     38h
567f ff        rst     38h
5680 00        nop     
5681 00        nop     
5682 00        nop     
5683 00        nop     
5684 00        nop     
5685 00        nop     
5686 00        nop     
5687 00        nop     
5688 00        nop     
5689 00        nop     
568a 00        nop     
568b 00        nop     
568c 00        nop     
568d 00        nop     
568e 00        nop     
568f 00        nop     
5690 00        nop     
5691 00        nop     
5692 00        nop     
5693 00        nop     
5694 00        nop     
5695 00        nop     
5696 00        nop     
5697 00        nop     
5698 00        nop     
5699 00        nop     
569a 00        nop     
569b 00        nop     
569c 00        nop     
569d 00        nop     
569e 00        nop     
569f 00        nop     
56a0 00        nop     
56a1 00        nop     
56a2 00        nop     
56a3 00        nop     
56a4 00        nop     
56a5 00        nop     
56a6 00        nop     
56a7 62        ld      h,d
56a8 00        nop     
56a9 91        sub     c
56aa 00        nop     
56ab 91        sub     c
56ac f0        ret     p

56ad f0        ret     p

56ae fa47f5    jp      m,0f547h
56b1 f5        push    af
56b2 fafaf5    jp      m,0f5fah
56b5 f5        push    af
56b6 f0        ret     p

56b7 72        ld      (hl),d
56b8 ff        rst     38h
56b9 b8        cp      b
56ba ff        rst     38h
56bb ff        rst     38h
56bc ff        rst     38h
56bd ff        rst     38h
56be ff        rst     38h
56bf ff        rst     38h
56c0 00        nop     
56c1 00        nop     
56c2 00        nop     
56c3 00        nop     
56c4 00        nop     
56c5 00        nop     
56c6 00        nop     
56c7 00        nop     
56c8 00        nop     
56c9 00        nop     
56ca 00        nop     
56cb 00        nop     
56cc 00        nop     
56cd 00        nop     
56ce 00        nop     
56cf 00        nop     
56d0 00        nop     
56d1 00        nop     
56d2 00        nop     
56d3 00        nop     
56d4 00        nop     
56d5 00        nop     
56d6 00        nop     
56d7 00        nop     
56d8 00        nop     
56d9 00        nop     
56da 00        nop     
56db 00        nop     
56dc 00        nop     
56dd 00        nop     
56de 00        nop     
56df 00        nop     
56e0 00        nop     
56e1 00        nop     
56e2 00        nop     
56e3 00        nop     
56e4 00        nop     
56e5 00        nop     
56e6 00        nop     
56e7 00        nop     
56e8 010f01    ld      bc,010fh
56eb f0        ret     p

56ec 5d        ld      e,l
56ed ff        rst     38h
56ee f0        ret     p

56ef f0        ret     p

56f0 f5        push    af
56f1 f5        push    af
56f2 fafaf5    jp      m,0f5fah
56f5 f5        push    af
56f6 fafaf0    jp      m,0f0fah
56f9 f0        ret     p

56fa ff        rst     38h
56fb ff        rst     38h
56fc ff        rst     38h
56fd ff        rst     38h
56fe ff        rst     38h
56ff ff        rst     38h
5700 ff        rst     38h
5701 ff        rst     38h
5702 ff        rst     38h
5703 ff        rst     38h
5704 ff        rst     38h
5705 ff        rst     38h
5706 ff        rst     38h
5707 ff        rst     38h
5708 ff        rst     38h
5709 ff        rst     38h
570a ff        rst     38h
570b ff        rst     38h
570c ff        rst     38h
570d ff        rst     38h
570e ff        rst     38h
570f ff        rst     38h
5710 ff        rst     38h
5711 ff        rst     38h
5712 ff        rst     38h
5713 ff        rst     38h
5714 ff        rst     38h
5715 ff        rst     38h
5716 ff        rst     38h
5717 ff        rst     38h
5718 ff        rst     38h
5719 ff        rst     38h
571a ff        rst     38h
571b ff        rst     38h
571c ff        rst     38h
571d ff        rst     38h
571e 0f        rrca    
571f 0f        rrca    
5720 0f        rrca    
5721 0f        rrca    
5722 0f        rrca    
5723 0f        rrca    
5724 ff        rst     38h
5725 ff        rst     38h
5726 ff        rst     38h
5727 ff        rst     38h
5728 ff        rst     38h
5729 ff        rst     38h
572a ff        rst     38h
572b ff        rst     38h
572c ff        rst     38h
572d ff        rst     38h
572e ff        rst     38h
572f ff        rst     38h
5730 ff        rst     38h
5731 ff        rst     38h
5732 ff        rst     38h
5733 ff        rst     38h
5734 ff        rst     38h
5735 ff        rst     38h
5736 ff        rst     38h
5737 ff        rst     38h
5738 ff        rst     38h
5739 ff        rst     38h
573a ff        rst     38h
573b ff        rst     38h
573c ff        rst     38h
573d ff        rst     38h
573e ff        rst     38h
573f ff        rst     38h
5740 0f        rrca    
5741 0f        rrca    
5742 0f        rrca    
5743 0f        rrca    
5744 ff        rst     38h
5745 ff        rst     38h
5746 ff        rst     38h
5747 ff        rst     38h
5748 ff        rst     38h
5749 ff        rst     38h
574a ff        rst     38h
574b ff        rst     38h
574c ff        rst     38h
574d ff        rst     38h
574e ff        rst     38h
574f ff        rst     38h
5750 ff        rst     38h
5751 ff        rst     38h
5752 ff        rst     38h
5753 ff        rst     38h
5754 ff        rst     38h
5755 ff        rst     38h
5756 ff        rst     38h
5757 ff        rst     38h
5758 ff        rst     38h
5759 ff        rst     38h
575a ff        rst     38h
575b ff        rst     38h
575c ff        rst     38h
575d ff        rst     38h
575e 0f        rrca    
575f 0f        rrca    
5760 0f        rrca    
5761 0f        rrca    
5762 0f        rrca    
5763 0f        rrca    
5764 ff        rst     38h
5765 ff        rst     38h
5766 ff        rst     38h
5767 ff        rst     38h
5768 ff        rst     38h
5769 ff        rst     38h
576a ff        rst     38h
576b ff        rst     38h
576c ff        rst     38h
576d ff        rst     38h
576e ff        rst     38h
576f ff        rst     38h
5770 ff        rst     38h
5771 ff        rst     38h
5772 ff        rst     38h
5773 ff        rst     38h
5774 ff        rst     38h
5775 ff        rst     38h
5776 ff        rst     38h
5777 ff        rst     38h
5778 ff        rst     38h
5779 ff        rst     38h
577a ff        rst     38h
577b ff        rst     38h
577c 0f        rrca    
577d 0f        rrca    
577e 0f        rrca    
577f 0f        rrca    
5780 ff        rst     38h
5781 ff        rst     38h
5782 ff        rst     38h
5783 ff        rst     38h
5784 ff        rst     38h
5785 ff        rst     38h
5786 ff        rst     38h
5787 ff        rst     38h
5788 ff        rst     38h
5789 ff        rst     38h
578a ff        rst     38h
578b ff        rst     38h
578c ff        rst     38h
578d ff        rst     38h
578e ff        rst     38h
578f ff        rst     38h
5790 ff        rst     38h
5791 ff        rst     38h
5792 ff        rst     38h
5793 ff        rst     38h
5794 ff        rst     38h
5795 ff        rst     38h
5796 ff        rst     38h
5797 ff        rst     38h
5798 ff        rst     38h
5799 ff        rst     38h
579a ff        rst     38h
579b ff        rst     38h
579c ff        rst     38h
579d ff        rst     38h
579e 0f        rrca    
579f 0f        rrca    
57a0 0f        rrca    
57a1 0f        rrca    
57a2 0f        rrca    
57a3 0f        rrca    
57a4 ff        rst     38h
57a5 ff        rst     38h
57a6 ff        rst     38h
57a7 ff        rst     38h
57a8 ff        rst     38h
57a9 ff        rst     38h
57aa ff        rst     38h
57ab ff        rst     38h
57ac ff        rst     38h
57ad ff        rst     38h
57ae ff        rst     38h
57af ff        rst     38h
57b0 ff        rst     38h
57b1 ff        rst     38h
57b2 ff        rst     38h
57b3 ff        rst     38h
57b4 ff        rst     38h
57b5 ff        rst     38h
57b6 ff        rst     38h
57b7 ff        rst     38h
57b8 ff        rst     38h
57b9 ff        rst     38h
57ba ff        rst     38h
57bb ff        rst     38h
57bc ff        rst     38h
57bd ff        rst     38h
57be ff        rst     38h
57bf ff        rst     38h
57c0 0f        rrca    
57c1 0f        rrca    
57c2 0f        rrca    
57c3 0f        rrca    
57c4 ff        rst     38h
57c5 ff        rst     38h
57c6 ff        rst     38h
57c7 ff        rst     38h
57c8 ff        rst     38h
57c9 ff        rst     38h
57ca ff        rst     38h
57cb ff        rst     38h
57cc ff        rst     38h
57cd ff        rst     38h
57ce ff        rst     38h
57cf ff        rst     38h
57d0 ff        rst     38h
57d1 ff        rst     38h
57d2 ff        rst     38h
57d3 ff        rst     38h
57d4 ff        rst     38h
57d5 ff        rst     38h
57d6 ff        rst     38h
57d7 ff        rst     38h
57d8 ff        rst     38h
57d9 ff        rst     38h
57da ff        rst     38h
57db ff        rst     38h
57dc ff        rst     38h
57dd ff        rst     38h
57de 0f        rrca    
57df 0f        rrca    
57e0 0f        rrca    
57e1 0f        rrca    
57e2 0f        rrca    
57e3 0f        rrca    
57e4 ff        rst     38h
57e5 ff        rst     38h
57e6 ff        rst     38h
57e7 ff        rst     38h
57e8 ff        rst     38h
57e9 ff        rst     38h
57ea ff        rst     38h
57eb ff        rst     38h
57ec ff        rst     38h
57ed ff        rst     38h
57ee ff        rst     38h
57ef ff        rst     38h
57f0 ff        rst     38h
57f1 ff        rst     38h
57f2 ff        rst     38h
57f3 ff        rst     38h
57f4 ff        rst     38h
57f5 ff        rst     38h
57f6 ff        rst     38h
57f7 ff        rst     38h
57f8 ff        rst     38h
57f9 ff        rst     38h
57fa ff        rst     38h
57fb ff        rst     38h
57fc 0f        rrca    
57fd 0f        rrca    
57fe 0f        rrca    
57ff 0f        rrca    
5800 ff        rst     38h
5801 ff        rst     38h
5802 ff        rst     38h
5803 ff        rst     38h
5804 10f0      djnz    57f6h
5806 b2        or      d
5807 faf5f5    jp      m,0f5f5h
580a fafaf5    jp      m,0f5fah
580d f5        push    af
580e 23        inc     hl
580f f0        ret     p

5810 f0        ret     p

5811 5d        ld      e,l
5812 eeff      xor     0ffh
5814 eeff      xor     0ffh
5816 00        nop     
5817 ff        rst     38h
5818 ff        rst     38h
5819 ff        rst     38h
581a ff        rst     38h
581b ff        rst     38h
581c ff        rst     38h
581d f0        ret     p

581e f8        ret     m

581f 0f        rrca    
5820 87        add     a,a
5821 00        nop     
5822 08        ex      af,af'
5823 00        nop     
5824 08        ex      af,af'
5825 00        nop     
5826 08        ex      af,af'
5827 00        nop     
5828 00        nop     
5829 00        nop     
582a 00        nop     
582b 00        nop     
582c 00        nop     
582d 00        nop     
582e 00        nop     
582f 00        nop     
5830 00        nop     
5831 00        nop     
5832 00        nop     
5833 00        nop     
5834 00        nop     
5835 00        nop     
5836 00        nop     
5837 00        nop     
5838 00        nop     
5839 00        nop     
583a 00        nop     
583b 00        nop     
583c 00        nop     
583d 00        nop     
583e 00        nop     
583f 00        nop     
5840 f9        ld      sp,hl
5841 1f        rra     
5842 fad6f1    jp      m,0f1d6h
5845 0f        rrca    
5846 fac6f5    jp      m,0f5c6h
5849 0efa      ld      c,0fah
584b c6f5      add     a,0f5h
584d 0ec3      ld      c,0c3h
584f ceed      adc     a,0edh
5851 00        nop     
5852 ed00      db      0edh, 00h        ; Undocumented 8 T-State NOP
5854 ed00      db      0edh, 00h        ; Undocumented 8 T-State NOP
5856 ed00      db      0edh, 00h        ; Undocumented 8 T-State NOP
5858 ed00      db      0edh, 00h        ; Undocumented 8 T-State NOP
585a ed00      db      0edh, 00h        ; Undocumented 8 T-State NOP
585c e1        pop     hl
585d 00        nop     
585e 0f        rrca    
585f 00        nop     
5860 00        nop     
5861 00        nop     
5862 00        nop     
5863 00        nop     
5864 00        nop     
5865 00        nop     
5866 00        nop     
5867 00        nop     
5868 00        nop     
5869 00        nop     
586a 00        nop     
586b 00        nop     
586c 00        nop     
586d 00        nop     
586e 00        nop     
586f 00        nop     
5870 00        nop     
5871 00        nop     
5872 00        nop     
5873 00        nop     
5874 00        nop     
5875 00        nop     
5876 00        nop     
5877 00        nop     
5878 00        nop     
5879 00        nop     
587a 00        nop     
587b 00        nop     
587c 00        nop     
587d 00        nop     
587e 00        nop     
587f 00        nop     
5880 ed00      db      0edh, 00h        ; Undocumented 8 T-State NOP
5882 c2000c    jp      nz,0c00h
5885 00        nop     
5886 00        nop     
5887 00        nop     
5888 00        nop     
5889 00        nop     
588a 00        nop     
588b 00        nop     
588c 00        nop     
588d 00        nop     
588e 00        nop     
588f 00        nop     
5890 00        nop     
5891 00        nop     
5892 00        nop     
5893 00        nop     
5894 00        nop     
5895 00        nop     
5896 00        nop     
5897 00        nop     
5898 00        nop     
5899 00        nop     
589a 00        nop     
589b 00        nop     
589c 00        nop     
589d 00        nop     
589e 00        nop     
589f 00        nop     
58a0 00        nop     
58a1 00        nop     
58a2 00        nop     
58a3 00        nop     
58a4 00        nop     
58a5 00        nop     
58a6 00        nop     
58a7 00        nop     
58a8 00        nop     
58a9 00        nop     
58aa 00        nop     
58ab 00        nop     
58ac 00        nop     
58ad 00        nop     
58ae 00        nop     
58af 00        nop     
58b0 00        nop     
58b1 00        nop     
58b2 00        nop     
58b3 00        nop     
58b4 00        nop     
58b5 00        nop     
58b6 00        nop     
58b7 00        nop     
58b8 00        nop     
58b9 00        nop     
58ba 00        nop     
58bb 00        nop     
58bc 00        nop     
58bd 00        nop     
58be 00        nop     
58bf 00        nop     
58c0 00        nop     
58c1 00        nop     
58c2 00        nop     
58c3 00        nop     
58c4 00        nop     
58c5 00        nop     
58c6 00        nop     
58c7 00        nop     
58c8 00        nop     
58c9 00        nop     
58ca 00        nop     
58cb 00        nop     
58cc 00        nop     
58cd 00        nop     
58ce 00        nop     
58cf 00        nop     
58d0 00        nop     
58d1 00        nop     
58d2 00        nop     
58d3 00        nop     
58d4 00        nop     
58d5 00        nop     
58d6 00        nop     
58d7 00        nop     
58d8 00        nop     
58d9 00        nop     
58da 00        nop     
58db 00        nop     
58dc 00        nop     
58dd 00        nop     
58de 00        nop     
58df 00        nop     
58e0 00        nop     
58e1 00        nop     
58e2 00        nop     
58e3 00        nop     
58e4 00        nop     
58e5 00        nop     
58e6 00        nop     
58e7 00        nop     
58e8 00        nop     
58e9 00        nop     
58ea 00        nop     
58eb 00        nop     
58ec 00        nop     
58ed 00        nop     
58ee 00        nop     
58ef 00        nop     
58f0 00        nop     
58f1 00        nop     
58f2 00        nop     
58f3 00        nop     
58f4 00        nop     
58f5 00        nop     
58f6 00        nop     
58f7 00        nop     
58f8 00        nop     
58f9 00        nop     
58fa 00        nop     
58fb 00        nop     
58fc 00        nop     
58fd 00        nop     
58fe 00        nop     
58ff 00        nop     
5900 00        nop     
5901 00        nop     
5902 00        nop     
5903 00        nop     
5904 00        nop     
5905 00        nop     
5906 00        nop     
5907 00        nop     
5908 00        nop     
5909 00        nop     
590a 00        nop     
590b 00        nop     
590c 117823    ld      de,2378h
590f 0f        rrca    
5910 47        ld      b,a
5911 f0        ret     p

5912 07        rlca    
5913 c0        ret     nz

5914 1680      ld      d,80h
5916 1693      ld      d,93h
5918 16b7      ld      d,0b7h
591a 1633      ld      d,33h
591c 1600      ld      d,00h
591e 1680      ld      d,80h
5920 03        inc     bc
5921 1f        rra     
5922 33        inc     sp
5923 ff        rst     38h
5924 f0        ret     p

5925 f0        ret     p

5926 05        dec     b
5927 47        ld      b,a
5928 0a        ld      a,(bc)
5929 fa05f5    jp      m,0f505h
592c 0a        ld      a,(bc)
592d fa00b1    jp      m,0b100h
5930 f0        ret     p

5931 dcf0ff    call    c,0fff0h
5934 f0        ret     p

5935 ff        rst     38h
5936 f0        ret     p

5937 ff        rst     38h
5938 f0        ret     p

5939 ff        rst     38h
593a f0        ret     p

593b ff        rst     38h
593c f0        ret     p

593d ff        rst     38h
593e f0        ret     p

593f ff        rst     38h
5940 00        nop     
5941 00        nop     
5942 00        nop     
5943 00        nop     
5944 00        nop     
5945 00        nop     
5946 00        nop     
5947 00        nop     
5948 00        nop     
5949 00        nop     
594a 00        nop     
594b 00        nop     
594c f0        ret     p

594d 88        adc     a,b
594e 3f        ccf     
594f c4e1ea    call    nz,0eae1h
5952 306c      jr      nc,59c0h
5954 186c      jr      59c2h
5956 9c        sbc     a,h
5957 6c        ld      l,h
5958 98        sbc     a,b
5959 6c        ld      l,h
595a 186c      jr      59c8h
595c 106c      djnz    59cah
595e 104e      djnz    59aeh
5960 0f        rrca    
5961 6e        ld      l,(hl)
5962 ff        rst     38h
5963 2e2e      ld      l,2eh
5965 ccf0f0    call    z,0f0f0h
5968 fafaf5    jp      m,0f5fah
596b f5        push    af
596c fafaf5    jp      m,0f5fah
596f f5        push    af
5970 f0        ret     p

5971 f0        ret     p

5972 ff        rst     38h
5973 ff        rst     38h
5974 ff        rst     38h
5975 ff        rst     38h
5976 ff        rst     38h
5977 ff        rst     38h
5978 ff        rst     38h
5979 ff        rst     38h
597a ff        rst     38h
597b ff        rst     38h
597c ff        rst     38h
597d ff        rst     38h
597e ff        rst     38h
597f ff        rst     38h
5980 00        nop     
5981 00        nop     
5982 00        nop     
5983 00        nop     
5984 00        nop     
5985 00        nop     
5986 00        nop     
5987 00        nop     
5988 00        nop     
5989 00        nop     
598a 00        nop     
598b 00        nop     
598c 00        nop     
598d 00        nop     
598e 00        nop     
598f 00        nop     
5990 00        nop     
5991 00        nop     
5992 00        nop     
5993 00        nop     
5994 00        nop     
5995 00        nop     
5996 00        nop     
5997 00        nop     
5998 00        nop     
5999 00        nop     
599a 00        nop     
599b 00        nop     
599c 00        nop     
599d 00        nop     
599e 00        nop     
599f 00        nop     
59a0 00        nop     
59a1 00        nop     
59a2 00        nop     
59a3 00        nop     
59a4 00        nop     
59a5 00        nop     
59a6 f0        ret     p

59a7 4c        ld      c,h
59a8 47        ld      b,a
59a9 f0        ret     p

59aa f5        push    af
59ab f5        push    af
59ac fafaf5    jp      m,0f5fah
59af f5        push    af
59b0 72        ld      (hl),d
59b1 fab8f0    jp      m,0f0b8h
59b4 ff        rst     38h
59b5 ff        rst     38h
59b6 ff        rst     38h
59b7 ff        rst     38h
59b8 ff        rst     38h
59b9 ff        rst     38h
59ba ef        rst     28h
59bb ff        rst     38h
59bc ef        rst     28h
59bd ff        rst     38h
59be ef        rst     28h
59bf ff        rst     38h
59c0 00        nop     
59c1 00        nop     
59c2 00        nop     
59c3 00        nop     
59c4 00        nop     
59c5 00        nop     
59c6 00        nop     
59c7 00        nop     
59c8 00        nop     
59c9 00        nop     
59ca 00        nop     
59cb 00        nop     
59cc 00        nop     
59cd 00        nop     
59ce 00        nop     
59cf 00        nop     
59d0 00        nop     
59d1 00        nop     
59d2 00        nop     
59d3 00        nop     
59d4 00        nop     
59d5 00        nop     
59d6 00        nop     
59d7 00        nop     
59d8 00        nop     
59d9 00        nop     
59da 00        nop     
59db 00        nop     
59dc 00        nop     
59dd 00        nop     
59de 00        nop     
59df 00        nop     
59e0 00        nop     
59e1 00        nop     
59e2 00        nop     
59e3 00        nop     
59e4 00        nop     
59e5 00        nop     
59e6 00        nop     
59e7 00        nop     
59e8 f0        ret     p

59e9 f0        ret     p

59ea f5        push    af
59eb a3        and     e
59ec fafaf5    jp      m,0f5fah
59ef f5        push    af
59f0 fafaf0    jp      m,0f0fah
59f3 f0        ret     p

59f4 ff        rst     38h
59f5 ff        rst     38h
59f6 ff        rst     38h
59f7 ff        rst     38h
59f8 ff        rst     38h
59f9 ff        rst     38h
59fa ff        rst     38h
59fb ff        rst     38h
59fc ff        rst     38h
59fd ff        rst     38h
59fe ff        rst     38h
59ff ff        rst     38h
5a00 f0        ret     p

5a01 ff        rst     38h
5a02 f0        ret     p

5a03 ff        rst     38h
5a04 f0        ret     p

5a05 ff        rst     38h
5a06 f0        ret     p

5a07 ff        rst     38h
5a08 f0        ret     p

5a09 ff        rst     38h
5a0a f0        ret     p

5a0b ff        rst     38h
5a0c f0        ret     p

5a0d ff        rst     38h
5a0e f0        ret     p

5a0f ff        rst     38h
5a10 f0        ret     p

5a11 ff        rst     38h
5a12 f0        ret     p

5a13 ff        rst     38h
5a14 f0        ret     p

5a15 ff        rst     38h
5a16 f0        ret     p

5a17 ff        rst     38h
5a18 f0        ret     p

5a19 ff        rst     38h
5a1a f0        ret     p

5a1b ff        rst     38h
5a1c f0        ret     p

5a1d ff        rst     38h
5a1e 0f        rrca    
5a1f 0f        rrca    
5a20 0f        rrca    
5a21 0f        rrca    
5a22 0f        rrca    
5a23 0f        rrca    
5a24 f0        ret     p

5a25 ff        rst     38h
5a26 f0        ret     p

5a27 ff        rst     38h
5a28 f0        ret     p

5a29 ff        rst     38h
5a2a f0        ret     p

5a2b ff        rst     38h
5a2c f0        ret     p

5a2d ff        rst     38h
5a2e f0        ret     p

5a2f ff        rst     38h
5a30 f0        ret     p

5a31 ff        rst     38h
5a32 f0        ret     p

5a33 ff        rst     38h
5a34 f0        ret     p

5a35 ff        rst     38h
5a36 f0        ret     p

5a37 ff        rst     38h
5a38 f0        ret     p

5a39 ff        rst     38h
5a3a f0        ret     p

5a3b ff        rst     38h
5a3c f0        ret     p

5a3d ff        rst     38h
5a3e f0        ret     p

5a3f ff        rst     38h
5a40 0f        rrca    
5a41 0f        rrca    
5a42 0f        rrca    
5a43 0f        rrca    
5a44 ff        rst     38h
5a45 ff        rst     38h
5a46 ff        rst     38h
5a47 ff        rst     38h
5a48 ff        rst     38h
5a49 ff        rst     38h
5a4a ff        rst     38h
5a4b ff        rst     38h
5a4c ff        rst     38h
5a4d ff        rst     38h
5a4e ff        rst     38h
5a4f ff        rst     38h
5a50 ff        rst     38h
5a51 ff        rst     38h
5a52 ff        rst     38h
5a53 ff        rst     38h
5a54 ff        rst     38h
5a55 ff        rst     38h
5a56 ff        rst     38h
5a57 ff        rst     38h
5a58 ff        rst     38h
5a59 ff        rst     38h
5a5a ff        rst     38h
5a5b ff        rst     38h
5a5c ff        rst     38h
5a5d ff        rst     38h
5a5e 0f        rrca    
5a5f 0f        rrca    
5a60 0f        rrca    
5a61 0f        rrca    
5a62 0f        rrca    
5a63 0f        rrca    
5a64 ff        rst     38h
5a65 ff        rst     38h
5a66 ff        rst     38h
5a67 ff        rst     38h
5a68 ff        rst     38h
5a69 ff        rst     38h
5a6a ff        rst     38h
5a6b ff        rst     38h
5a6c ff        rst     38h
5a6d ff        rst     38h
5a6e ff        rst     38h
5a6f ff        rst     38h
5a70 ff        rst     38h
5a71 ff        rst     38h
5a72 ff        rst     38h
5a73 ff        rst     38h
5a74 ff        rst     38h
5a75 ff        rst     38h
5a76 ff        rst     38h
5a77 ff        rst     38h
5a78 ff        rst     38h
5a79 ff        rst     38h
5a7a ff        rst     38h
5a7b ff        rst     38h
5a7c 0f        rrca    
5a7d 0f        rrca    
5a7e 0f        rrca    
5a7f 0f        rrca    
5a80 ef        rst     28h
5a81 ff        rst     38h
5a82 ef        rst     28h
5a83 ff        rst     38h
5a84 0f        rrca    
5a85 0f        rrca    
5a86 ff        rst     38h
5a87 ff        rst     38h
5a88 ef        rst     28h
5a89 ff        rst     38h
5a8a ef        rst     28h
5a8b ff        rst     38h
5a8c ef        rst     28h
5a8d ff        rst     38h
5a8e ef        rst     28h
5a8f ff        rst     38h
5a90 ef        rst     28h
5a91 ff        rst     38h
5a92 ef        rst     28h
5a93 ff        rst     38h
5a94 ef        rst     28h
5a95 ff        rst     38h
5a96 0f        rrca    
5a97 0f        rrca    
5a98 ff        rst     38h
5a99 ff        rst     38h
5a9a ef        rst     28h
5a9b ff        rst     38h
5a9c ef        rst     28h
5a9d ff        rst     38h
5a9e 0f        rrca    
5a9f 8f        adc     a,a
5aa0 0f        rrca    
5aa1 8f        adc     a,a
5aa2 0f        rrca    
5aa3 8f        adc     a,a
5aa4 ef        rst     28h
5aa5 ff        rst     38h
5aa6 ef        rst     28h
5aa7 ff        rst     38h
5aa8 0f        rrca    
5aa9 0f        rrca    
5aaa ff        rst     38h
5aab ff        rst     38h
5aac ef        rst     28h
5aad ff        rst     38h
5aae ef        rst     28h
5aaf ff        rst     38h
5ab0 ef        rst     28h
5ab1 ff        rst     38h
5ab2 ef        rst     28h
5ab3 ff        rst     38h
5ab4 ef        rst     28h
5ab5 ff        rst     38h
5ab6 ef        rst     28h
5ab7 ff        rst     38h
5ab8 ef        rst     28h
5ab9 ff        rst     38h
5aba 0f        rrca    
5abb 0f        rrca    
5abc ff        rst     38h
5abd ff        rst     38h
5abe ef        rst     28h
5abf ff        rst     38h
5ac0 0f        rrca    
5ac1 0f        rrca    
5ac2 0f        rrca    
5ac3 0f        rrca    
5ac4 f7        rst     30h
5ac5 ff        rst     38h
5ac6 f7        rst     30h
5ac7 ff        rst     38h
5ac8 ff        rst     38h
5ac9 ff        rst     38h
5aca ff        rst     38h
5acb ff        rst     38h
5acc ff        rst     38h
5acd ff        rst     38h
5ace ff        rst     38h
5acf ff        rst     38h
5ad0 ff        rst     38h
5ad1 ff        rst     38h
5ad2 ff        rst     38h
5ad3 ff        rst     38h
5ad4 ff        rst     38h
5ad5 ff        rst     38h
5ad6 f7        rst     30h
5ad7 ff        rst     38h
5ad8 f7        rst     30h
5ad9 ff        rst     38h
5ada ff        rst     38h
5adb ff        rst     38h
5adc ff        rst     38h
5add ff        rst     38h
5ade 0f        rrca    
5adf 0f        rrca    
5ae0 0f        rrca    
5ae1 0f        rrca    
5ae2 0f        rrca    
5ae3 0f        rrca    
5ae4 ff        rst     38h
5ae5 ff        rst     38h
5ae6 ff        rst     38h
5ae7 ff        rst     38h
5ae8 f7        rst     30h
5ae9 ff        rst     38h
5aea f7        rst     30h
5aeb ff        rst     38h
5aec ff        rst     38h
5aed ff        rst     38h
5aee ff        rst     38h
5aef ff        rst     38h
5af0 ff        rst     38h
5af1 ff        rst     38h
5af2 ff        rst     38h
5af3 ff        rst     38h
5af4 ff        rst     38h
5af5 ff        rst     38h
5af6 ff        rst     38h
5af7 ff        rst     38h
5af8 ff        rst     38h
5af9 ff        rst     38h
5afa f7        rst     30h
5afb ff        rst     38h
5afc 87        add     a,a
5afd 0f        rrca    
5afe 0f        rrca    
5aff 0f        rrca    
5b00 f0        ret     p

5b01 ff        rst     38h
5b02 f0        ret     p

5b03 ff        rst     38h
5b04 f0        ret     p

5b05 ff        rst     38h
5b06 f0        ret     p

5b07 ff        rst     38h
5b08 f0        ret     p

5b09 ff        rst     38h
5b0a f0        ret     p

5b0b ff        rst     38h
5b0c f0        ret     p

5b0d ff        rst     38h
5b0e f0        ret     p

5b0f b8        cp      b
5b10 00        nop     
5b11 f205f5    jp      p,0f505h
5b14 0a        ld      a,(bc)
5b15 fa05f5    jp      m,0f505h
5b18 0a        ld      a,(bc)
5b19 ab        xor     e
5b1a f0        ret     p

5b1b f0        ret     p

5b1c ff        rst     38h
5b1d ff        rst     38h
5b1e ff        rst     38h
5b1f ff        rst     38h
5b20 0f        rrca    
5b21 0f        rrca    
5b22 78        ld      a,b
5b23 fc4ab8    call    m,0b84ah
5b26 4a        ld      c,d
5b27 34        inc     (hl)
5b28 1ef0      ld      e,0f0h
5b2a 78        ld      a,b
5b2b f0        ret     p

5b2c 8f        adc     a,a
5b2d 0f        rrca    
5b2e 7f        ld      a,a
5b2f ff        rst     38h
5b30 8f        adc     a,a
5b31 0f        rrca    
5b32 ff        rst     38h
5b33 feff      cp      0ffh
5b35 feff      cp      0ffh
5b37 feff      cp      0ffh
5b39 feff      cp      0ffh
5b3b e9        jp      (hl)
5b3c f0        ret     p

5b3d 86        add     a,(hl)
5b3e 0f        rrca    
5b3f 08        ex      af,af'
5b40 ff        rst     38h
5b41 ff        rst     38h
5b42 ff        rst     38h
5b43 ff        rst     38h
5b44 ff        rst     38h
5b45 ff        rst     38h
5b46 ff        rst     38h
5b47 ff        rst     38h
5b48 ff        rst     38h
5b49 ff        rst     38h
5b4a ff        rst     38h
5b4b ff        rst     38h
5b4c ff        rst     38h
5b4d ff        rst     38h
5b4e f0        ret     p

5b4f f0        ret     p

5b50 fafaf5    jp      m,0f5fah
5b53 f5        push    af
5b54 fafaf5    jp      m,0f5fah
5b57 f5        push    af
5b58 f0        ret     p

5b59 f0        ret     p

5b5a 5c        ld      e,h
5b5b f7        rst     30h
5b5c fef7      cp      0f7h
5b5e ee87      xor     87h
5b60 2eb8      ld      l,0b8h
5b62 3f        ccf     
5b63 dc3fff    call    c,0ff3fh
5b66 2f        cpl     
5b67 ff        rst     38h
5b68 2f        cpl     
5b69 ff        rst     38h
5b6a 2f        cpl     
5b6b ff        rst     38h
5b6c 5f        ld      e,a
5b6d ff        rst     38h
5b6e bf        cp      a
5b6f ff        rst     38h
5b70 5e        ld      e,(hl)
5b71 fe09      cp      09h
5b73 e5        push    hl
5b74 08        ex      af,af'
5b75 4a        ld      c,d
5b76 08        ex      af,af'
5b77 04        inc     b
5b78 08        ex      af,af'
5b79 00        nop     
5b7a 00        nop     
5b7b 00        nop     
5b7c 00        nop     
5b7d 00        nop     
5b7e 00        nop     
5b7f 00        nop     
5b80 ef        rst     28h
5b81 ff        rst     38h
5b82 ef        rst     28h
5b83 ff        rst     38h
5b84 ef        rst     28h
5b85 ff        rst     38h
5b86 ff        rst     38h
5b87 ff        rst     38h
5b88 ff        rst     38h
5b89 ff        rst     38h
5b8a ff        rst     38h
5b8b ff        rst     38h
5b8c b8        cp      b
5b8d f0        ret     p

5b8e e0        ret     po

5b8f f5        push    af
5b90 fafaf5    jp      m,0f5fah
5b93 f5        push    af
5b94 fafaa3    jp      m,0a3fah
5b97 f0        ret     p

5b98 f0        ret     p

5b99 7d        ld      a,l
5b9a ff        rst     38h
5b9b f5        push    af
5b9c ff        rst     38h
5b9d d5        push    de
5b9e 0f        rrca    
5b9f 55        ld      d,l
5ba0 e0        ret     po

5ba1 ff        rst     38h
5ba2 51        ld      d,c
5ba3 ff        rst     38h
5ba4 f7        rst     30h
5ba5 df        rst     18h
5ba6 ff        rst     38h
5ba7 df        rst     18h
5ba8 ff        rst     38h
5ba9 df        rst     18h
5baa ff        rst     38h
5bab ef        rst     28h
5bac fb        ei      
5bad ff        rst     38h
5bae b5        or      l
5baf ff        rst     38h
5bb0 1a        ld      a,(de)
5bb1 ff        rst     38h
5bb2 12        ld      (de),a
5bb3 ff        rst     38h
5bb4 12        ld      (de),a
5bb5 ff        rst     38h
5bb6 12        ld      (de),a
5bb7 ff        rst     38h
5bb8 01f700    ld      bc,00f7h
5bbb 7b        ld      a,e
5bbc 00        nop     
5bbd 34        inc     (hl)
5bbe 00        nop     
5bbf 03        inc     bc
5bc0 ff        rst     38h
5bc1 ff        rst     38h
5bc2 ff        rst     38h
5bc3 ff        rst     38h
5bc4 ff        rst     38h
5bc5 ff        rst     38h
5bc6 ff        rst     38h
5bc7 ff        rst     38h
5bc8 ff        rst     38h
5bc9 ff        rst     38h
5bca ff        rst     38h
5bcb ff        rst     38h
5bcc f0        ret     p

5bcd f0        ret     p

5bce f5        push    af
5bcf f5        push    af
5bd0 fafaf5    jp      m,0f5fah
5bd3 f5        push    af
5bd4 faabf0    jp      m,0f0abh
5bd7 f0        ret     p

5bd8 ff        rst     38h
5bd9 ff        rst     38h
5bda ff        rst     38h
5bdb ff        rst     38h
5bdc 0f        rrca    
5bdd 0f        rrca    
5bde 78        ld      a,b
5bdf f0        ret     p

5be0 78        ld      a,b
5be1 305b      jr      nc,5c3eh
5be3 74        ld      (hl),h
5be4 4a        ld      c,d
5be5 34        inc     (hl)
5be6 4b        ld      c,e
5be7 78        ld      a,b
5be8 78        ld      a,b
5be9 e1        pop     hl
5bea 8f        adc     a,a
5beb 0f        rrca    
5bec 7f        ld      a,a
5bed ff        rst     38h
5bee 8f        adc     a,a
5bef 0f        rrca    
5bf0 ff        rst     38h
5bf1 ff        rst     38h
5bf2 ff        rst     38h
5bf3 ff        rst     38h
5bf4 ff        rst     38h
5bf5 feff      cp      0ffh
5bf7 edff      db      0edh, 0ffh       ; Undocumented 8 T-State NOP
5bf9 caff84    jp      z,84ffh
5bfc f0        ret     p

5bfd 08        ex      af,af'
5bfe 0f        rrca    
5bff 00        nop     
5c00 ff        rst     38h
5c01 ff        rst     38h
5c02 ff        rst     38h
5c03 ff        rst     38h
5c04 ff        rst     38h
5c05 ff        rst     38h
5c06 ff        rst     38h
5c07 ff        rst     38h
5c08 ff        rst     38h
5c09 ff        rst     38h
5c0a f0        ret     p

5c0b f0        ret     p

5c0c f5        push    af
5c0d f5        push    af
5c0e fafaf5    jp      m,0f5fah
5c11 f5        push    af
5c12 fafaf0    jp      m,0f0fah
5c15 f0        ret     p

5c16 5c        ld      e,h
5c17 ff        rst     38h
5c18 eeff      xor     0ffh
5c1a eeff      xor     0ffh
5c1c 3f        ccf     
5c1d ff        rst     38h
5c1e 3f        ccf     
5c1f ff        rst     38h
5c20 2f        cpl     
5c21 00        nop     
5c22 2f        cpl     
5c23 00        nop     
5c24 2f        cpl     
5c25 00        nop     
5c26 2f        cpl     
5c27 00        nop     
5c28 2f        cpl     
5c29 00        nop     
5c2a 5f        ld      e,a
5c2b 00        nop     
5c2c ae        xor     (hl)
5c2d 00        nop     
5c2e 4c        ld      c,h
5c2f 00        nop     
5c30 08        ex      af,af'
5c31 00        nop     
5c32 08        ex      af,af'
5c33 00        nop     
5c34 08        ex      af,af'
5c35 00        nop     
5c36 08        ex      af,af'
5c37 00        nop     
5c38 00        nop     
5c39 00        nop     
5c3a 00        nop     
5c3b 00        nop     
5c3c 00        nop     
5c3d 00        nop     
5c3e 00        nop     
5c3f 00        nop     
5c40 ff        rst     38h
5c41 ff        rst     38h
5c42 ff        rst     38h
5c43 ff        rst     38h
5c44 ff        rst     38h
5c45 ff        rst     38h
5c46 ff        rst     38h
5c47 ff        rst     38h
5c48 b8        cp      b
5c49 f0        ret     p

5c4a 72        ld      (hl),d
5c4b faf5f5    jp      m,0f5f5h
5c4e fafaf5    jp      m,0f5fah
5c51 f5        push    af
5c52 ab        xor     e
5c53 f0        ret     p

5c54 f0        ret     p

5c55 5d        ld      e,l
5c56 ff        rst     38h
5c57 ff        rst     38h
5c58 ff        rst     38h
5c59 ff        rst     38h
5c5a ff        rst     38h
5c5b ff        rst     38h
5c5c ff        rst     38h
5c5d ff        rst     38h
5c5e ff        rst     38h
5c5f ff        rst     38h
5c60 ff        rst     38h
5c61 f0        ret     p

5c62 f0        ret     p

5c63 0f        rrca    
5c64 0f        rrca    
5c65 00        nop     
5c66 00        nop     
5c67 00        nop     
5c68 00        nop     
5c69 00        nop     
5c6a 00        nop     
5c6b 00        nop     
5c6c 00        nop     
5c6d 00        nop     
5c6e 00        nop     
5c6f 00        nop     
5c70 00        nop     
5c71 00        nop     
5c72 00        nop     
5c73 00        nop     
5c74 00        nop     
5c75 00        nop     
5c76 00        nop     
5c77 00        nop     
5c78 00        nop     
5c79 00        nop     
5c7a 00        nop     
5c7b 00        nop     
5c7c 00        nop     
5c7d 00        nop     
5c7e 00        nop     
5c7f 00        nop     
5c80 ff        rst     38h
5c81 ff        rst     38h
5c82 ff        rst     38h
5c83 ff        rst     38h
5c84 ff        rst     38h
5c85 ff        rst     38h
5c86 ff        rst     38h
5c87 ccf0b1    call    z,0b1f0h
5c8a fafaf5    jp      m,0f5fah
5c8d f5        push    af
5c8e fafaf5    jp      m,0f5fah
5c91 a3        and     e
5c92 f0        ret     p

5c93 f0        ret     p

5c94 ff        rst     38h
5c95 1eff      ld      e,0ffh
5c97 18ff      jr      5c98h
5c99 f9        ld      sp,hl
5c9a ff        rst     38h
5c9b ff        rst     38h
5c9c ff        rst     38h
5c9d ff        rst     38h
5c9e ff        rst     38h
5c9f ff        rst     38h
5ca0 f7        rst     30h
5ca1 f8        ret     m

5ca2 7b        ld      a,e
5ca3 87        add     a,a
5ca4 34        inc     (hl)
5ca5 08        ex      af,af'
5ca6 34        inc     (hl)
5ca7 08        ex      af,af'
5ca8 03        inc     bc
5ca9 00        nop     
5caa 00        nop     
5cab 00        nop     
5cac 00        nop     
5cad 00        nop     
5cae 00        nop     
5caf 00        nop     
5cb0 00        nop     
5cb1 00        nop     
5cb2 00        nop     
5cb3 00        nop     
5cb4 00        nop     
5cb5 00        nop     
5cb6 00        nop     
5cb7 00        nop     
5cb8 00        nop     
5cb9 00        nop     
5cba 00        nop     
5cbb 00        nop     
5cbc 00        nop     
5cbd 00        nop     
5cbe 00        nop     
5cbf 00        nop     
5cc0 ff        rst     38h
5cc1 ff        rst     38h
5cc2 ff        rst     38h
5cc3 ff        rst     38h
5cc4 ff        rst     38h
5cc5 ff        rst     38h
5cc6 f0        ret     p

5cc7 f0        ret     p

5cc8 f5        push    af
5cc9 f5        push    af
5cca fafaf5    jp      m,0f5fah
5ccd f5        push    af
5cce fafaf0    jp      m,0f0fah
5cd1 f0        ret     p

5cd2 4c        ld      c,h
5cd3 ff        rst     38h
5cd4 eeff      xor     0ffh
5cd6 ee00      xor     00h
5cd8 ff        rst     38h
5cd9 ff        rst     38h
5cda ff        rst     38h
5cdb ff        rst     38h
5cdc ff        rst     38h
5cdd ff        rst     38h
5cde ff        rst     38h
5cdf ff        rst     38h
5ce0 ff        rst     38h
5ce1 ff        rst     38h
5ce2 f7        rst     30h
5ce3 fe78      cp      78h
5ce5 f0        ret     p

5ce6 0f        rrca    
5ce7 0f        rrca    
5ce8 00        nop     
5ce9 00        nop     
5cea 00        nop     
5ceb 00        nop     
5cec 00        nop     
5ced 00        nop     
5cee 00        nop     
5cef 00        nop     
5cf0 00        nop     
5cf1 00        nop     
5cf2 00        nop     
5cf3 00        nop     
5cf4 00        nop     
5cf5 00        nop     
5cf6 00        nop     
5cf7 00        nop     
5cf8 00        nop     
5cf9 00        nop     
5cfa 00        nop     
5cfb 00        nop     
5cfc 00        nop     
5cfd 00        nop     
5cfe 00        nop     
5cff 00        nop     
5d00 00        nop     
5d01 00        nop     
5d02 00        nop     
5d03 00        nop     
5d04 00        nop     
5d05 00        nop     
5d06 78        ld      a,b
5d07 c41fea    call    nz,0ea1fh
5d0a f0        ret     p

5d0b f5        push    af
5d0c 10f2      djnz    5d00h
5d0e 55        ld      d,l
5d0f f2ccf2    jp      p,0f2cch
5d12 ff        rst     38h
5d13 f2ffe3    jp      p,0e3ffh
5d16 4c        ld      c,h
5d17 d3bc      out     (0bch),a
5d19 c378e1    jp      0e178h
5d1c 0f        rrca    
5d1d 0f        rrca    
5d1e ff        rst     38h
5d1f ff        rst     38h
5d20 f0        ret     p

5d21 f0        ret     p

5d22 05        dec     b
5d23 05        dec     b
5d24 0a        ld      a,(bc)
5d25 0a        ld      a,(bc)
5d26 05        dec     b
5d27 05        dec     b
5d28 0a        ld      a,(bc)
5d29 0a        ld      a,(bc)
5d2a 00        nop     
5d2b 00        nop     
5d2c f0        ret     p

5d2d f0        ret     p

5d2e f0        ret     p

5d2f f0        ret     p

5d30 f0        ret     p

5d31 f0        ret     p

5d32 f0        ret     p

5d33 f0        ret     p

5d34 d3ff      out     (0ffh),a
5d36 a7        and     a
5d37 0f        rrca    
5d38 4f        ld      c,a
5d39 0f        rrca    
5d3a 9e        sbc     a,(hl)
5d3b f0        ret     p

5d3c 9e        sbc     a,(hl)
5d3d f0        ret     p

5d3e 9e        sbc     a,(hl)
5d3f f0        ret     p

5d40 00        nop     
5d41 00        nop     
5d42 00        nop     
5d43 00        nop     
5d44 00        nop     
5d45 00        nop     
5d46 00        nop     
5d47 00        nop     
5d48 00        nop     
5d49 00        nop     
5d4a 11cc23    ld      de,23cch
5d4d 2e03      ld      l,03h
5d4f 5f        ld      e,a
5d50 33        inc     sp
5d51 d7        rst     10h
5d52 32d319    ld      (19d3h),a
5d55 1f        rra     
5d56 ccaeee    call    z,0eeaeh
5d59 46        ld      b,(hl)
5d5a 7f        ld      a,a
5d5b ce3f      adc     a,3fh
5d5d ae        xor     (hl)
5d5e ff        rst     38h
5d5f ccf0f0    call    z,0f0f0h
5d62 05        dec     b
5d63 05        dec     b
5d64 0a        ld      a,(bc)
5d65 0a        ld      a,(bc)
5d66 05        dec     b
5d67 05        dec     b
5d68 0a        ld      a,(bc)
5d69 0a        ld      a,(bc)
5d6a 00        nop     
5d6b 00        nop     
5d6c f0        ret     p

5d6d f0        ret     p

5d6e f0        ret     p

5d6f f0        ret     p

5d70 f0        ret     p

5d71 f0        ret     p

5d72 f0        ret     p

5d73 f0        ret     p

5d74 ff        rst     38h
5d75 ff        rst     38h
5d76 0f        rrca    
5d77 0f        rrca    
5d78 0f        rrca    
5d79 0f        rrca    
5d7a f0        ret     p

5d7b f0        ret     p

5d7c f0        ret     p

5d7d f0        ret     p

5d7e f0        ret     p

5d7f f0        ret     p

5d80 00        nop     
5d81 00        nop     
5d82 00        nop     
5d83 00        nop     
5d84 00        nop     
5d85 00        nop     
5d86 00        nop     
5d87 00        nop     
5d88 00        nop     
5d89 00        nop     
5d8a 00        nop     
5d8b 00        nop     
5d8c 00        nop     
5d8d 00        nop     
5d8e 00        nop     
5d8f 00        nop     
5d90 00        nop     
5d91 00        nop     
5d92 00        nop     
5d93 00        nop     
5d94 00        nop     
5d95 00        nop     
5d96 00        nop     
5d97 00        nop     
5d98 00        nop     
5d99 00        nop     
5d9a 00        nop     
5d9b 00        nop     
5d9c 00        nop     
5d9d 00        nop     
5d9e 00        nop     
5d9f 00        nop     
5da0 f0        ret     p

5da1 f0        ret     p

5da2 05        dec     b
5da3 05        dec     b
5da4 0a        ld      a,(bc)
5da5 0a        ld      a,(bc)
5da6 05        dec     b
5da7 05        dec     b
5da8 0a        ld      a,(bc)
5da9 0a        ld      a,(bc)
5daa 00        nop     
5dab 00        nop     
5dac f0        ret     p

5dad f0        ret     p

5dae f0        ret     p

5daf f0        ret     p

5db0 f0        ret     p

5db1 f0        ret     p

5db2 f0        ret     p

5db3 f0        ret     p

5db4 ff        rst     38h
5db5 de0f      sbc     a,0fh
5db7 2f        cpl     
5db8 0f        rrca    
5db9 1f        rra     
5dba f0        ret     p

5dbb c3f0c3    jp      0c3f0h
5dbe f0        ret     p

5dbf c30000    jp      0000h
5dc2 00        nop     
5dc3 00        nop     
5dc4 00        nop     
5dc5 00        nop     
5dc6 00        nop     
5dc7 00        nop     
5dc8 00        nop     
5dc9 00        nop     
5dca 00        nop     
5dcb 00        nop     
5dcc 00        nop     
5dcd 00        nop     
5dce 00        nop     
5dcf 00        nop     
5dd0 00        nop     
5dd1 00        nop     
5dd2 00        nop     
5dd3 00        nop     
5dd4 00        nop     
5dd5 00        nop     
5dd6 00        nop     
5dd7 00        nop     
5dd8 00        nop     
5dd9 00        nop     
5dda 00        nop     
5ddb 00        nop     
5ddc 00        nop     
5ddd 00        nop     
5dde 00        nop     
5ddf 00        nop     
5de0 e0        ret     po

5de1 00        nop     
5de2 14        inc     d
5de3 00        nop     
5de4 0a        ld      a,(bc)
5de5 f0        ret     p

5de6 05        dec     b
5de7 05        dec     b
5de8 0a        ld      a,(bc)
5de9 0a        ld      a,(bc)
5dea 0105e0    ld      bc,0e005h
5ded 38f0      jr      c,5ddfh
5def 03        inc     bc
5df0 f3        di      
5df1 f4f3fc    call    p,0fcf3h
5df4 f3        di      
5df5 cbf3      set     6,e
5df7 f0        ret     p

5df8 48        ld      c,b
5df9 f0        ret     p

5dfa f8        ret     m

5dfb f0        ret     p

5dfc f8        ret     m

5dfd f0        ret     p

5dfe f8        ret     m

5dff f0        ret     p

5e00 9e        sbc     a,(hl)
5e01 f0        ret     p

5e02 9e        sbc     a,(hl)
5e03 f0        ret     p

5e04 9e        sbc     a,(hl)
5e05 f0        ret     p

5e06 9e        sbc     a,(hl)
5e07 f0        ret     p

5e08 9e        sbc     a,(hl)
5e09 f0        ret     p

5e0a 9e        sbc     a,(hl)
5e0b f0        ret     p

5e0c 9e        sbc     a,(hl)
5e0d f0        ret     p

5e0e 9e        sbc     a,(hl)
5e0f f0        ret     p

5e10 9e        sbc     a,(hl)
5e11 f0        ret     p

5e12 9e        sbc     a,(hl)
5e13 f0        ret     p

5e14 9e        sbc     a,(hl)
5e15 f0        ret     p

5e16 9e        sbc     a,(hl)
5e17 f0        ret     p

5e18 9e        sbc     a,(hl)
5e19 f0        ret     p

5e1a 9e        sbc     a,(hl)
5e1b f0        ret     p

5e1c 9e        sbc     a,(hl)
5e1d f0        ret     p

5e1e af        xor     a
5e1f 0f        rrca    
5e20 af        xor     a
5e21 0f        rrca    
5e22 af        xor     a
5e23 0f        rrca    
5e24 9e        sbc     a,(hl)
5e25 f0        ret     p

5e26 9e        sbc     a,(hl)
5e27 f0        ret     p

5e28 9e        sbc     a,(hl)
5e29 f0        ret     p

5e2a 9e        sbc     a,(hl)
5e2b f0        ret     p

5e2c 9e        sbc     a,(hl)
5e2d f0        ret     p

5e2e 9e        sbc     a,(hl)
5e2f f0        ret     p

5e30 9e        sbc     a,(hl)
5e31 f0        ret     p

5e32 9e        sbc     a,(hl)
5e33 f0        ret     p

5e34 9e        sbc     a,(hl)
5e35 f0        ret     p

5e36 9e        sbc     a,(hl)
5e37 f0        ret     p

5e38 9e        sbc     a,(hl)
5e39 f0        ret     p

5e3a 9e        sbc     a,(hl)
5e3b f0        ret     p

5e3c 9e        sbc     a,(hl)
5e3d f0        ret     p

5e3e 9e        sbc     a,(hl)
5e3f f0        ret     p

5e40 0f        rrca    
5e41 0f        rrca    
5e42 0f        rrca    
5e43 0f        rrca    
5e44 f0        ret     p

5e45 f0        ret     p

5e46 f0        ret     p

5e47 f0        ret     p

5e48 f0        ret     p

5e49 f0        ret     p

5e4a f0        ret     p

5e4b f0        ret     p

5e4c f0        ret     p

5e4d f0        ret     p

5e4e f0        ret     p

5e4f f0        ret     p

5e50 f0        ret     p

5e51 f0        ret     p

5e52 f0        ret     p

5e53 f0        ret     p

5e54 f0        ret     p

5e55 f0        ret     p

5e56 f0        ret     p

5e57 f0        ret     p

5e58 f0        ret     p

5e59 f0        ret     p

5e5a f0        ret     p

5e5b f0        ret     p

5e5c f0        ret     p

5e5d f0        ret     p

5e5e 0f        rrca    
5e5f 0f        rrca    
5e60 0f        rrca    
5e61 0f        rrca    
5e62 0f        rrca    
5e63 0f        rrca    
5e64 f0        ret     p

5e65 f0        ret     p

5e66 f0        ret     p

5e67 f0        ret     p

5e68 f0        ret     p

5e69 f0        ret     p

5e6a f0        ret     p

5e6b f0        ret     p

5e6c f0        ret     p

5e6d f0        ret     p

5e6e f0        ret     p

5e6f f0        ret     p

5e70 f0        ret     p

5e71 f0        ret     p

5e72 f0        ret     p

5e73 f0        ret     p

5e74 f0        ret     p

5e75 f0        ret     p

5e76 f0        ret     p

5e77 f0        ret     p

5e78 f0        ret     p

5e79 f0        ret     p

5e7a f0        ret     p

5e7b f0        ret     p

5e7c 0f        rrca    
5e7d 0f        rrca    
5e7e 0f        rrca    
5e7f 0f        rrca    
5e80 f0        ret     p

5e81 c3f0c3    jp      0c3f0h
5e84 f0        ret     p

5e85 c3f0c3    jp      0c3f0h
5e88 f0        ret     p

5e89 c3f0c3    jp      0c3f0h
5e8c f0        ret     p

5e8d c3f0c3    jp      0c3f0h
5e90 f0        ret     p

5e91 c3f0c3    jp      0c3f0h
5e94 f0        ret     p

5e95 c3f0c3    jp      0c3f0h
5e98 f0        ret     p

5e99 c3f0c3    jp      0c3f0h
5e9c f0        ret     p

5e9d c30f2f    jp      2f0fh
5ea0 0f        rrca    
5ea1 2f        cpl     
5ea2 0f        rrca    
5ea3 2f        cpl     
5ea4 f0        ret     p

5ea5 c3f0c3    jp      0c3f0h
5ea8 f0        ret     p

5ea9 c3f0c3    jp      0c3f0h
5eac f0        ret     p

5ead c3f0c3    jp      0c3f0h
5eb0 f0        ret     p

5eb1 c3f0c3    jp      0c3f0h
5eb4 f0        ret     p

5eb5 c3f0c3    jp      0c3f0h
5eb8 f0        ret     p

5eb9 c3f0c3    jp      0c3f0h
5ebc f0        ret     p

5ebd c3f0c3    jp      0c3f0h
5ec0 8f        adc     a,a
5ec1 0f        rrca    
5ec2 8f        adc     a,a
5ec3 0f        rrca    
5ec4 f8        ret     m

5ec5 f0        ret     p

5ec6 f8        ret     m

5ec7 f0        ret     p

5ec8 f8        ret     m

5ec9 f0        ret     p

5eca f8        ret     m

5ecb f0        ret     p

5ecc f8        ret     m

5ecd f0        ret     p

5ece f8        ret     m

5ecf f0        ret     p

5ed0 f0        ret     p

5ed1 f0        ret     p

5ed2 f8        ret     m

5ed3 f0        ret     p

5ed4 f8        ret     m

5ed5 f0        ret     p

5ed6 f8        ret     m

5ed7 f0        ret     p

5ed8 f8        ret     m

5ed9 f0        ret     p

5eda f8        ret     m

5edb f0        ret     p

5edc f8        ret     m

5edd f0        ret     p

5ede 8f        adc     a,a
5edf 0f        rrca    
5ee0 8f        adc     a,a
5ee1 0f        rrca    
5ee2 8f        adc     a,a
5ee3 0f        rrca    
5ee4 f8        ret     m

5ee5 f0        ret     p

5ee6 f8        ret     m

5ee7 f0        ret     p

5ee8 f8        ret     m

5ee9 f0        ret     p

5eea f8        ret     m

5eeb f0        ret     p

5eec f8        ret     m

5eed f0        ret     p

5eee f8        ret     m

5eef f0        ret     p

5ef0 f8        ret     m

5ef1 f0        ret     p

5ef2 f8        ret     m

5ef3 f0        ret     p

5ef4 f8        ret     m

5ef5 f0        ret     p

5ef6 f8        ret     m

5ef7 f0        ret     p

5ef8 f8        ret     m

5ef9 f0        ret     p

5efa f8        ret     m

5efb f0        ret     p

5efc 8f        adc     a,a
5efd 0f        rrca    
5efe 8f        adc     a,a
5eff 0f        rrca    
5f00 9e        sbc     a,(hl)
5f01 f0        ret     p

5f02 9e        sbc     a,(hl)
5f03 f0        ret     p

5f04 9e        sbc     a,(hl)
5f05 f0        ret     p

5f06 9e        sbc     a,(hl)
5f07 f0        ret     p

5f08 4f        ld      c,a
5f09 0f        rrca    
5f0a a7        and     a
5f0b 0f        rrca    
5f0c d3ff      out     (0ffh),a
5f0e f0        ret     p

5f0f f0        ret     p

5f10 f0        ret     p

5f11 f0        ret     p

5f12 f0        ret     p

5f13 f0        ret     p

5f14 97        sub     a
5f15 80        add     a,b
5f16 31d9ff    ld      sp,0ffd9h
5f19 ef        rst     28h
5f1a 0ecf      ld      c,0cfh
5f1c df        rst     18h
5f1d 77        ld      (hl),a
5f1e ff        rst     38h
5f1f ee76      xor     76h
5f21 1d        dec     e
5f22 ed9f      db      0edh, 9fh        ; Undocumented 8 T-State NOP
5f24 dd4eff    ld      c,(ix-01h)
5f27 eeff      xor     0ffh
5f29 feff      cp      0ffh
5f2b df        rst     18h
5f2c ff        rst     38h
5f2d 9c        sbc     a,h
5f2e 00        nop     
5f2f ef        rst     28h
5f30 ff        rst     38h
5f31 ff        rst     38h
5f32 ff        rst     38h
5f33 ee0f      xor     0fh
5f35 5d        ld      e,l
5f36 0f        rrca    
5f37 ff        rst     38h
5f38 cf        rst     08h
5f39 ff        rst     38h
5f3a cf        rst     08h
5f3b ff        rst     38h
5f3c 87        add     a,a
5f3d 3c        inc     a
5f3e 0f        rrca    
5f3f 0f        rrca    
5f40 f0        ret     p

5f41 f0        ret     p

5f42 f0        ret     p

5f43 f0        ret     p

5f44 f0        ret     p

5f45 f0        ret     p

5f46 f0        ret     p

5f47 f0        ret     p

5f48 0f        rrca    
5f49 0f        rrca    
5f4a 0f        rrca    
5f4b 0f        rrca    
5f4c ff        rst     38h
5f4d ff        rst     38h
5f4e f0        ret     p

5f4f f0        ret     p

5f50 f0        ret     p

5f51 f0        ret     p

5f52 f0        ret     p

5f53 f0        ret     p

5f54 30f0      jr      nc,5f46h
5f56 14        inc     d
5f57 f0        ret     p

5f58 dcf0ba    call    c,0baf0h
5f5b f0        ret     p

5f5c fef0      cp      0f0h
5f5e dcf076    call    c,76f0h
5f61 c0        ret     nz

5f62 56        ld      d,(hl)
5f63 01240a    ld      bc,0a24h
5f66 01058a    ld      bc,8a05h
5f69 0a        ld      a,(bc)
5f6a 85        add     a,l
5f6b 308a      jr      nc,5ef7h
5f6d d33c      out     (3ch),a
5f6f 7f        ld      a,a
5f70 f7        rst     30h
5f71 ff        rst     38h
5f72 ff        rst     38h
5f73 ff        rst     38h
5f74 ff        rst     38h
5f75 ff        rst     38h
5f76 ff        rst     38h
5f77 feff      cp      0ffh
5f79 edff      db      0edh, 0ffh       ; Undocumented 8 T-State NOP
5f7b c2f00c    jp      nz,0cf0h
5f7e 0f        rrca    
5f7f 00        nop     
5f80 f0        ret     p

5f81 c3f0c3    jp      0c3f0h
5f84 f0        ret     p

5f85 c3f0c3    jp      0c3f0h
5f88 0f        rrca    
5f89 1f        rra     
5f8a 0f        rrca    
5f8b 2f        cpl     
5f8c ff        rst     38h
5f8d def0      sbc     a,0f0h
5f8f f0        ret     p

5f90 f0        ret     p

5f91 f0        ret     p

5f92 f0        ret     p

5f93 f0        ret     p

5f94 f0        ret     p

5f95 f0        ret     p

5f96 f0        ret     p

5f97 f0        ret     p

5f98 f0        ret     p

5f99 c0        ret     nz

5f9a f0        ret     p

5f9b 01c00a    ld      bc,0ac0h
5f9e 01050a    ld      bc,0a05h
5fa1 0a        ld      a,(bc)
5fa2 05        dec     b
5fa3 34        inc     (hl)
5fa4 0a        ld      a,(bc)
5fa5 d334      out     (34h),a
5fa7 7f        ld      a,a
5fa8 d3ff      out     (0ffh),a
5faa 7f        ld      a,a
5fab ff        rst     38h
5fac ff        rst     38h
5fad ff        rst     38h
5fae ff        rst     38h
5faf feff      cp      0ffh
5fb1 e9        jp      (hl)
5fb2 fe86      cp      86h
5fb4 e9        jp      (hl)
5fb5 08        ex      af,af'
5fb6 86        add     a,(hl)
5fb7 00        nop     
5fb8 08        ex      af,af'
5fb9 00        nop     
5fba 00        nop     
5fbb 00        nop     
5fbc 00        nop     
5fbd 00        nop     
5fbe 00        nop     
5fbf 00        nop     
5fc0 f8        ret     m

5fc1 f0        ret     p

5fc2 f8        ret     m

5fc3 f0        ret     p

5fc4 f8        ret     m

5fc5 f0        ret     p

5fc6 f8        ret     m

5fc7 f0        ret     p

5fc8 78        ld      a,b
5fc9 f0        ret     p

5fca f0        ret     p

5fcb f0        ret     p

5fcc f0        ret     p

5fcd f0        ret     p

5fce f0        ret     p

5fcf f3        di      
5fd0 f3        di      
5fd1 f4f3fc    call    p,0fcf3h
5fd4 f3        di      
5fd5 8b        adc     a,e
5fd6 33        inc     sp
5fd7 34        inc     (hl)
5fd8 380a      jr      c,5fe4h
5fda 05        dec     b
5fdb 34        inc     (hl)
5fdc 0a        ld      a,(bc)
5fdd f3        di      
5fde 34        inc     (hl)
5fdf 7b        ld      a,e
5fe0 d3df      out     (0dfh),a
5fe2 7f        ld      a,a
5fe3 df        rst     18h
5fe4 ff        rst     38h
5fe5 df        rst     18h
5fe6 ff        rst     38h
5fe7 df        rst     18h
5fe8 ff        rst     38h
5fe9 df        rst     18h
5fea ff        rst     38h
5feb df        rst     18h
5fec fb        ei      
5fed ef        rst     28h
5fee b5        or      l
5fef ff        rst     38h
5ff0 1a        ld      a,(de)
5ff1 ff        rst     38h
5ff2 12        ld      (de),a
5ff3 ff        rst     38h
5ff4 12        ld      (de),a
5ff5 ff        rst     38h
5ff6 12        ld      (de),a
5ff7 ff        rst     38h
5ff8 01f701    ld      bc,01f7h
5ffb f3        di      
5ffc 00        nop     
5ffd 3c        inc     a
5ffe 00        nop     
5fff 03        inc     bc
6000 00        nop     
6001 00        nop     
6002 00        nop     
6003 00        nop     
6004 00        nop     
6005 00        nop     
6006 00        nop     
6007 00        nop     
6008 00        nop     
6009 00        nop     
600a 00        nop     
600b 00        nop     
600c 00        nop     
600d 00        nop     
600e 00        nop     
600f 00        nop     
6010 00        nop     
6011 00        nop     
6012 00        nop     
6013 00        nop     
6014 0f        rrca    
6015 0f        rrca    
6016 f0        ret     p

6017 f0        ret     p

6018 00        nop     
6019 00        nop     
601a 00        nop     
601b 00        nop     
601c 0f        rrca    
601d 0f        rrca    
601e ff        rst     38h
601f ff        rst     38h
6020 f0        ret     p

6021 f0        ret     p

6022 05        dec     b
6023 05        dec     b
6024 0a        ld      a,(bc)
6025 0a        ld      a,(bc)
6026 05        dec     b
6027 05        dec     b
6028 0a        ld      a,(bc)
6029 0a        ld      a,(bc)
602a 00        nop     
602b 00        nop     
602c f0        ret     p

602d f0        ret     p

602e f0        ret     p

602f f0        ret     p

6030 f0        ret     p

6031 f0        ret     p

6032 f0        ret     p

6033 f0        ret     p

6034 f0        ret     p

6035 f0        ret     p

6036 f0        ret     p

6037 f0        ret     p

6038 f0        ret     p

6039 f0        ret     p

603a f0        ret     p

603b f0        ret     p

603c f0        ret     p

603d f0        ret     p

603e f0        ret     p

603f f0        ret     p

6040 00        nop     
6041 00        nop     
6042 00        nop     
6043 00        nop     
6044 00        nop     
6045 00        nop     
6046 00        nop     
6047 00        nop     
6048 00        nop     
6049 00        nop     
604a 00        nop     
604b 44        ld      b,h
604c 111f01    ld      de,011fh
604f 0f        rrca    
6050 01eb11    ld      bc,11ebh
6053 e1        pop     hl
6054 1d        dec     e
6055 8f        adc     a,a
6056 66        ld      h,(hl)
6057 df        rst     18h
6058 13        inc     de
6059 33        inc     sp
605a 01ff0f    ld      bc,0fffh
605d 3f        ccf     
605e ff        rst     38h
605f ff        rst     38h
6060 f0        ret     p

6061 f0        ret     p

6062 05        dec     b
6063 05        dec     b
6064 0a        ld      a,(bc)
6065 0a        ld      a,(bc)
6066 05        dec     b
6067 05        dec     b
6068 0a        ld      a,(bc)
6069 0a        ld      a,(bc)
606a 00        nop     
606b 00        nop     
606c f0        ret     p

606d f0        ret     p

606e f0        ret     p

606f f0        ret     p

6070 f0        ret     p

6071 f0        ret     p

6072 f0        ret     p

6073 f0        ret     p

6074 f0        ret     p

6075 f0        ret     p

6076 70        ld      (hl),b
6077 f0        ret     p

6078 70        ld      (hl),b
6079 f0        ret     p

607a 70        ld      (hl),b
607b f0        ret     p

607c 70        ld      (hl),b
607d f0        ret     p

607e 70        ld      (hl),b
607f f0        ret     p

6080 00        nop     
6081 00        nop     
6082 00        nop     
6083 00        nop     
6084 00        nop     
6085 00        nop     
6086 117823    ld      de,2378h
6089 0f        rrca    
608a 47        ld      b,a
608b d41699    call    nc,9916h
608e 17        rla     
608f ff        rst     38h
6090 bf        cp      a
6091 dd24      inc     ixh
6093 1627      ld      d,27h
6095 04        inc     b
6096 9f        sbc     a,a
6097 c8        ret     z

6098 c3f0f0    jp      0f0f0h
609b f0        ret     p

609c 0f        rrca    
609d 0f        rrca    
609e ff        rst     38h
609f ff        rst     38h
60a0 f0        ret     p

60a1 f0        ret     p

60a2 05        dec     b
60a3 05        dec     b
60a4 0a        ld      a,(bc)
60a5 0a        ld      a,(bc)
60a6 05        dec     b
60a7 05        dec     b
60a8 0a        ld      a,(bc)
60a9 0a        ld      a,(bc)
60aa 00        nop     
60ab 00        nop     
60ac f0        ret     p

60ad f0        ret     p

60ae f0        ret     p

60af f0        ret     p

60b0 f0        ret     p

60b1 f0        ret     p

60b2 f0        ret     p

60b3 f0        ret     p

60b4 f0        ret     p

60b5 f0        ret     p

60b6 f0        ret     p

60b7 f0        ret     p

60b8 f0        ret     p

60b9 f0        ret     p

60ba f0        ret     p

60bb f0        ret     p

60bc f0        ret     p

60bd f0        ret     p

60be f0        ret     p

60bf f0        ret     p

60c0 00        nop     
60c1 00        nop     
60c2 00        nop     
60c3 00        nop     
60c4 00        nop     
60c5 00        nop     
60c6 c411ea    call    nz,0ea11h
60c9 23        inc     hl
60ca f5        push    af
60cb 47        ld      b,a
60cc f216f2    jp      p,0f216h
60cf 16f2      ld      d,0f2h
60d1 16f2      ld      d,0f2h
60d3 15        dec     d
60d4 e3        ex      (sp),hl
60d5 2b        dec     hl
60d6 f3        di      
60d7 ddf0      ret     p

60d9 e1        pop     hl
60da f0        ret     p

60db e1        pop     hl
60dc 0f        rrca    
60dd 0f        rrca    
60de ff        rst     38h
60df ff        rst     38h
60e0 f0        ret     p

60e1 f0        ret     p

60e2 05        dec     b
60e3 05        dec     b
60e4 0a        ld      a,(bc)
60e5 0a        ld      a,(bc)
60e6 05        dec     b
60e7 05        dec     b
60e8 0a        ld      a,(bc)
60e9 0a        ld      a,(bc)
60ea 00        nop     
60eb 00        nop     
60ec f0        ret     p

60ed f0        ret     p

60ee f0        ret     p

60ef f0        ret     p

60f0 f0        ret     p

60f1 f0        ret     p

60f2 f0        ret     p

60f3 f0        ret     p

60f4 f0        ret     p

60f5 f0        ret     p

60f6 70        ld      (hl),b
60f7 f0        ret     p

60f8 70        ld      (hl),b
60f9 f0        ret     p

60fa 70        ld      (hl),b
60fb f0        ret     p

60fc 70        ld      (hl),b
60fd f0        ret     p

60fe 70        ld      (hl),b
60ff f0        ret     p

6100 f0        ret     p

6101 f0        ret     p

6102 f0        ret     p

6103 f0        ret     p

6104 f0        ret     p

6105 f0        ret     p

6106 f0        ret     p

6107 f0        ret     p

6108 f0        ret     p

6109 f0        ret     p

610a f0        ret     p

610b f0        ret     p

610c f0        ret     p

610d f0        ret     p

610e f0        ret     p

610f f0        ret     p

6110 f0        ret     p

6111 f0        ret     p

6112 f0        ret     p

6113 f0        ret     p

6114 f0        ret     p

6115 f0        ret     p

6116 f0        ret     p

6117 f0        ret     p

6118 f0        ret     p

6119 f0        ret     p

611a f0        ret     p

611b f0        ret     p

611c f0        ret     p

611d f0        ret     p

611e 0f        rrca    
611f 0f        rrca    
6120 0f        rrca    
6121 0f        rrca    
6122 0f        rrca    
6123 0f        rrca    
6124 f0        ret     p

6125 f0        ret     p

6126 f0        ret     p

6127 f0        ret     p

6128 f0        ret     p

6129 f0        ret     p

612a f0        ret     p

612b f0        ret     p

612c f0        ret     p

612d f0        ret     p

612e f0        ret     p

612f f0        ret     p

6130 f0        ret     p

6131 f0        ret     p

6132 f0        ret     p

6133 f0        ret     p

6134 f0        ret     p

6135 f0        ret     p

6136 f0        ret     p

6137 f0        ret     p

6138 f0        ret     p

6139 f0        ret     p

613a f0        ret     p

613b f0        ret     p

613c f0        ret     p

613d f0        ret     p

613e f0        ret     p

613f f0        ret     p

6140 8f        adc     a,a
6141 0f        rrca    
6142 8f        adc     a,a
6143 0f        rrca    
6144 70        ld      (hl),b
6145 f0        ret     p

6146 70        ld      (hl),b
6147 f0        ret     p

6148 70        ld      (hl),b
6149 f0        ret     p

614a 70        ld      (hl),b
614b f0        ret     p

614c 70        ld      (hl),b
614d f0        ret     p

614e 70        ld      (hl),b
614f f0        ret     p

6150 70        ld      (hl),b
6151 f0        ret     p

6152 70        ld      (hl),b
6153 f0        ret     p

6154 70        ld      (hl),b
6155 f0        ret     p

6156 70        ld      (hl),b
6157 f0        ret     p

6158 70        ld      (hl),b
6159 f0        ret     p

615a 70        ld      (hl),b
615b f0        ret     p

615c 70        ld      (hl),b
615d f0        ret     p

615e 8f        adc     a,a
615f 0f        rrca    
6160 8f        adc     a,a
6161 0f        rrca    
6162 8f        adc     a,a
6163 0f        rrca    
6164 70        ld      (hl),b
6165 f0        ret     p

6166 70        ld      (hl),b
6167 f0        ret     p

6168 70        ld      (hl),b
6169 f0        ret     p

616a 70        ld      (hl),b
616b f0        ret     p

616c 70        ld      (hl),b
616d f0        ret     p

616e 70        ld      (hl),b
616f f0        ret     p

6170 70        ld      (hl),b
6171 f0        ret     p

6172 70        ld      (hl),b
6173 f0        ret     p

6174 70        ld      (hl),b
6175 f0        ret     p

6176 70        ld      (hl),b
6177 f0        ret     p

6178 70        ld      (hl),b
6179 f0        ret     p

617a 70        ld      (hl),b
617b f0        ret     p

617c 8f        adc     a,a
617d 0f        rrca    
617e 8f        adc     a,a
617f 0f        rrca    
6180 f0        ret     p

6181 f0        ret     p

6182 f0        ret     p

6183 f0        ret     p

6184 f0        ret     p

6185 f0        ret     p

6186 f0        ret     p

6187 f0        ret     p

6188 f0        ret     p

6189 f0        ret     p

618a f0        ret     p

618b f0        ret     p

618c f0        ret     p

618d f0        ret     p

618e f0        ret     p

618f f0        ret     p

6190 f0        ret     p

6191 f0        ret     p

6192 f0        ret     p

6193 f0        ret     p

6194 f0        ret     p

6195 f0        ret     p

6196 f0        ret     p

6197 f0        ret     p

6198 f0        ret     p

6199 f0        ret     p

619a f0        ret     p

619b f0        ret     p

619c f0        ret     p

619d f0        ret     p

619e 0f        rrca    
619f 0f        rrca    
61a0 0f        rrca    
61a1 0f        rrca    
61a2 0f        rrca    
61a3 0f        rrca    
61a4 f0        ret     p

61a5 f0        ret     p

61a6 f0        ret     p

61a7 f0        ret     p

61a8 f0        ret     p

61a9 f0        ret     p

61aa f0        ret     p

61ab f0        ret     p

61ac f0        ret     p

61ad f0        ret     p

61ae f0        ret     p

61af f0        ret     p

61b0 f0        ret     p

61b1 f0        ret     p

61b2 f0        ret     p

61b3 f0        ret     p

61b4 f0        ret     p

61b5 f0        ret     p

61b6 f0        ret     p

61b7 f0        ret     p

61b8 f0        ret     p

61b9 f0        ret     p

61ba f0        ret     p

61bb f0        ret     p

61bc f0        ret     p

61bd f0        ret     p

61be f0        ret     p

61bf f0        ret     p

61c0 8f        adc     a,a
61c1 0f        rrca    
61c2 8f        adc     a,a
61c3 0f        rrca    
61c4 70        ld      (hl),b
61c5 f0        ret     p

61c6 70        ld      (hl),b
61c7 f0        ret     p

61c8 70        ld      (hl),b
61c9 f0        ret     p

61ca 70        ld      (hl),b
61cb f0        ret     p

61cc 70        ld      (hl),b
61cd f0        ret     p

61ce 70        ld      (hl),b
61cf f0        ret     p

61d0 70        ld      (hl),b
61d1 f0        ret     p

61d2 70        ld      (hl),b
61d3 f0        ret     p

61d4 70        ld      (hl),b
61d5 f0        ret     p

61d6 70        ld      (hl),b
61d7 f0        ret     p

61d8 70        ld      (hl),b
61d9 f0        ret     p

61da 70        ld      (hl),b
61db f0        ret     p

61dc 70        ld      (hl),b
61dd f0        ret     p

61de 8f        adc     a,a
61df 0f        rrca    
61e0 8f        adc     a,a
61e1 0f        rrca    
61e2 8f        adc     a,a
61e3 0f        rrca    
61e4 70        ld      (hl),b
61e5 f0        ret     p

61e6 70        ld      (hl),b
61e7 f0        ret     p

61e8 70        ld      (hl),b
61e9 f0        ret     p

61ea 70        ld      (hl),b
61eb f0        ret     p

61ec 70        ld      (hl),b
61ed f0        ret     p

61ee 70        ld      (hl),b
61ef f0        ret     p

61f0 70        ld      (hl),b
61f1 f0        ret     p

61f2 70        ld      (hl),b
61f3 f0        ret     p

61f4 70        ld      (hl),b
61f5 f0        ret     p

61f6 70        ld      (hl),b
61f7 f0        ret     p

61f8 70        ld      (hl),b
61f9 f0        ret     p

61fa 70        ld      (hl),b
61fb f0        ret     p

61fc 8f        adc     a,a
61fd 0f        rrca    
61fe 8f        adc     a,a
61ff 0f        rrca    
6200 f0        ret     p

6201 f0        ret     p

6202 f0        ret     p

6203 f0        ret     p

6204 f0        ret     p

6205 f0        ret     p

6206 f0        ret     p

6207 f0        ret     p

6208 f0        ret     p

6209 f0        ret     p

620a f0        ret     p

620b f0        ret     p

620c f0        ret     p

620d f0        ret     p

620e f0        ret     p

620f f0        ret     p

6210 f0        ret     p

6211 f0        ret     p

6212 f0        ret     p

6213 f0        ret     p

6214 f0        ret     p

6215 f0        ret     p

6216 00        nop     
6217 00        nop     
6218 0a        ld      a,(bc)
6219 0a        ld      a,(bc)
621a 05        dec     b
621b 05        dec     b
621c 0a        ld      a,(bc)
621d 0a        ld      a,(bc)
621e 05        dec     b
621f 05        dec     b
6220 f0        ret     p

6221 f0        ret     p

6222 bb        cp      e
6223 ff        rst     38h
6224 bb        cp      e
6225 ff        rst     38h
6226 dd0f      rrca    
6228 ddf0      ret     p

622a eb        ex      de,hl
622b 0f        rrca    
622c 2b        dec     hl
622d 0f        rrca    
622e 3b        dec     sp
622f ff        rst     38h
6230 91        sub     c
6231 ff        rst     38h
6232 80        add     a,b
6233 00        nop     
6234 3c        inc     a
6235 e1        pop     hl
6236 0f        rrca    
6237 1f        rra     
6238 ff        rst     38h
6239 feff      cp      0ffh
623b edff      db      0edh, 0ffh       ; Undocumented 8 T-State NOP
623d caffca    jp      z,0caffh
6240 70        ld      (hl),b
6241 f0        ret     p

6242 70        ld      (hl),b
6243 f0        ret     p

6244 70        ld      (hl),b
6245 f0        ret     p

6246 70        ld      (hl),b
6247 f0        ret     p

6248 70        ld      (hl),b
6249 f0        ret     p

624a f0        ret     p

624b f0        ret     p

624c f0        ret     p

624d f0        ret     p

624e f0        ret     p

624f f0        ret     p

6250 f0        ret     p

6251 f0        ret     p

6252 f0        ret     p

6253 f0        ret     p

6254 f0        ret     p

6255 f0        ret     p

6256 00        nop     
6257 00        nop     
6258 0a        ld      a,(bc)
6259 0a        ld      a,(bc)
625a 05        dec     b
625b 05        dec     b
625c 0a        ld      a,(bc)
625d 0a        ld      a,(bc)
625e 05        dec     b
625f 05        dec     b
6260 f0        ret     p

6261 e0        ret     po

6262 ff        rst     38h
6263 a9        xor     c
6264 f1        pop     af
6265 6c        ld      l,h
6266 39        add     hl,sp
6267 b6        or      (hl)
6268 9b        sbc     a,e
6269 97        sub     a
626a 9b        sbc     a,e
626b 47        ld      b,a
626c fb        ei      
626d ab        xor     e
626e b7        or      a
626f ddf3      di      
6271 ee3d      xor     3dh
6273 ff        rst     38h
6274 12        ld      (de),a
6275 ff        rst     38h
6276 12        ld      (de),a
6277 ff        rst     38h
6278 12        ld      (de),a
6279 ff        rst     38h
627a 12        ld      (de),a
627b ff        rst     38h
627c 01f700    ld      bc,00f7h
627f 7b        ld      a,e
6280 f0        ret     p

6281 f0        ret     p

6282 f0        ret     p

6283 f0        ret     p

6284 f0        ret     p

6285 f0        ret     p

6286 f0        ret     p

6287 f0        ret     p

6288 f0        ret     p

6289 f0        ret     p

628a f0        ret     p

628b f0        ret     p

628c f0        ret     p

628d f0        ret     p

628e f0        ret     p

628f f0        ret     p

6290 f0        ret     p

6291 f0        ret     p

6292 f0        ret     p

6293 f0        ret     p

6294 f0        ret     p

6295 f0        ret     p

6296 f0        ret     p

6297 f0        ret     p

6298 70        ld      (hl),b
6299 f1        pop     af
629a 70        ld      (hl),b
629b e270c5    jp      po,0c570h
629e 30c5      jr      nc,6265h
62a0 18c5      jr      6267h
62a2 04        inc     b
62a3 c5        push    bc
62a4 0a        ld      a,(bc)
62a5 0105e5    ld      bc,0e505h
62a8 82        add     a,d
62a9 fae9f4    jp      m,0f4e9h
62ac dee9      sbc     a,0e9h
62ae 6f        ld      l,a
62af feff      cp      0ffh
62b1 ff        rst     38h
62b2 77        ld      (hl),a
62b3 ff        rst     38h
62b4 bb        cp      e
62b5 ff        rst     38h
62b6 ddff      rst     38h
62b8 ee00      xor     00h
62ba ff        rst     38h
62bb ff        rst     38h
62bc ff        rst     38h
62bd ff        rst     38h
62be ff        rst     38h
62bf ff        rst     38h
62c0 70        ld      (hl),b
62c1 f0        ret     p

62c2 70        ld      (hl),b
62c3 f0        ret     p

62c4 70        ld      (hl),b
62c5 f0        ret     p

62c6 70        ld      (hl),b
62c7 f0        ret     p

62c8 70        ld      (hl),b
62c9 f0        ret     p

62ca f0        ret     p

62cb f0        ret     p

62cc f0        ret     p

62cd f0        ret     p

62ce f0        ret     p

62cf f0        ret     p

62d0 f0        ret     p

62d1 f0        ret     p

62d2 f0        ret     p

62d3 f0        ret     p

62d4 f0        ret     p

62d5 f0        ret     p

62d6 bb        cp      e
62d7 ee37      xor     37h
62d9 ff        rst     38h
62da 7e        ld      a,(hl)
62db 31ee53    ld      sp,53eeh
62de eeb7      xor     0b7h
62e0 fe7f      cp      7fh
62e2 fe87      cp      87h
62e4 ff        rst     38h
62e5 ff        rst     38h
62e6 7f        ld      a,a
62e7 ff        rst     38h
62e8 3f        ccf     
62e9 ff        rst     38h
62ea 7f        ld      a,a
62eb ff        rst     38h
62ec ff        rst     38h
62ed ff        rst     38h
62ee f0        ret     p

62ef f0        ret     p

62f0 ff        rst     38h
62f1 ff        rst     38h
62f2 ff        rst     38h
62f3 ef        rst     28h
62f4 ff        rst     38h
62f5 deff      sbc     a,0ffh
62f7 ac        xor     h
62f8 00        nop     
62f9 23        inc     hl
62fa ff        rst     38h
62fb ff        rst     38h
62fc ff        rst     38h
62fd ff        rst     38h
62fe ff        rst     38h
62ff ff        rst     38h
6300 ff        rst     38h
6301 84        add     a,h
6302 ff        rst     38h
6303 84        add     a,h
6304 fe08      cp      08h
6306 f0        ret     p

6307 08        ex      af,af'
6308 0f        rrca    
6309 00        nop     
630a 00        nop     
630b 00        nop     
630c 00        nop     
630d 00        nop     
630e 00        nop     
630f 00        nop     
6310 00        nop     
6311 00        nop     
6312 00        nop     
6313 00        nop     
6314 00        nop     
6315 00        nop     
6316 00        nop     
6317 00        nop     
6318 00        nop     
6319 00        nop     
631a 00        nop     
631b 00        nop     
631c 00        nop     
631d 00        nop     
631e 00        nop     
631f 00        nop     
6320 00        nop     
6321 00        nop     
6322 00        nop     
6323 00        nop     
6324 00        nop     
6325 00        nop     
6326 00        nop     
6327 00        nop     
6328 00        nop     
6329 00        nop     
632a 00        nop     
632b 00        nop     
632c 00        nop     
632d 00        nop     
632e 00        nop     
632f 00        nop     
6330 00        nop     
6331 00        nop     
6332 00        nop     
6333 00        nop     
6334 00        nop     
6335 00        nop     
6336 00        nop     
6337 00        nop     
6338 00        nop     
6339 00        nop     
633a 00        nop     
633b 00        nop     
633c 00        nop     
633d 00        nop     
633e 00        nop     
633f 00        nop     
6340 00        nop     
6341 7b        ld      a,e
6342 00        nop     
6343 35        dec     (hl)
6344 00        nop     
6345 12        ld      (de),a
6346 00        nop     
6347 010000    ld      bc,0000h
634a 00        nop     
634b 00        nop     
634c 00        nop     
634d 00        nop     
634e 00        nop     
634f 00        nop     
6350 00        nop     
6351 00        nop     
6352 00        nop     
6353 00        nop     
6354 00        nop     
6355 00        nop     
6356 00        nop     
6357 00        nop     
6358 00        nop     
6359 00        nop     
635a 00        nop     
635b 00        nop     
635c 00        nop     
635d 00        nop     
635e 00        nop     
635f 00        nop     
6360 00        nop     
6361 00        nop     
6362 00        nop     
6363 00        nop     
6364 00        nop     
6365 00        nop     
6366 00        nop     
6367 00        nop     
6368 00        nop     
6369 00        nop     
636a 00        nop     
636b 00        nop     
636c 00        nop     
636d 00        nop     
636e 00        nop     
636f 00        nop     
6370 00        nop     
6371 00        nop     
6372 00        nop     
6373 00        nop     
6374 00        nop     
6375 00        nop     
6376 00        nop     
6377 00        nop     
6378 00        nop     
6379 00        nop     
637a 00        nop     
637b 00        nop     
637c 00        nop     
637d 00        nop     
637e 00        nop     
637f 00        nop     
6380 ff        rst     38h
6381 ff        rst     38h
6382 ff        rst     38h
6383 ff        rst     38h
6384 ff        rst     38h
6385 ff        rst     38h
6386 f0        ret     p

6387 f0        ret     p

6388 0f        rrca    
6389 0f        rrca    
638a 00        nop     
638b 00        nop     
638c 00        nop     
638d 00        nop     
638e 00        nop     
638f 00        nop     
6390 00        nop     
6391 00        nop     
6392 00        nop     
6393 00        nop     
6394 00        nop     
6395 00        nop     
6396 00        nop     
6397 00        nop     
6398 00        nop     
6399 00        nop     
639a 00        nop     
639b 00        nop     
639c 00        nop     
639d 00        nop     
639e 00        nop     
639f 00        nop     
63a0 00        nop     
63a1 00        nop     
63a2 00        nop     
63a3 00        nop     
63a4 00        nop     
63a5 00        nop     
63a6 00        nop     
63a7 00        nop     
63a8 00        nop     
63a9 00        nop     
63aa 00        nop     
63ab 00        nop     
63ac 00        nop     
63ad 00        nop     
63ae 00        nop     
63af 00        nop     
63b0 00        nop     
63b1 00        nop     
63b2 00        nop     
63b3 00        nop     
63b4 00        nop     
63b5 00        nop     
63b6 00        nop     
63b7 00        nop     
63b8 00        nop     
63b9 00        nop     
63ba 00        nop     
63bb 00        nop     
63bc 00        nop     
63bd 00        nop     
63be 00        nop     
63bf 00        nop     
63c0 ff        rst     38h
63c1 ff        rst     38h
63c2 ff        rst     38h
63c3 ff        rst     38h
63c4 ff        rst     38h
63c5 ff        rst     38h
63c6 f0        ret     p

63c7 f0        ret     p

63c8 0f        rrca    
63c9 0f        rrca    
63ca 00        nop     
63cb 00        nop     
63cc 00        nop     
63cd 00        nop     
63ce 00        nop     
63cf 00        nop     
63d0 00        nop     
63d1 00        nop     
63d2 00        nop     
63d3 00        nop     
63d4 00        nop     
63d5 00        nop     
63d6 00        nop     
63d7 00        nop     
63d8 00        nop     
63d9 00        nop     
63da 00        nop     
63db 00        nop     
63dc 00        nop     
63dd 00        nop     
63de 00        nop     
63df 00        nop     
63e0 00        nop     
63e1 00        nop     
63e2 00        nop     
63e3 00        nop     
63e4 00        nop     
63e5 00        nop     
63e6 00        nop     
63e7 00        nop     
63e8 00        nop     
63e9 00        nop     
63ea 00        nop     
63eb 00        nop     
63ec 00        nop     
63ed 00        nop     
63ee 00        nop     
63ef 00        nop     
63f0 00        nop     
63f1 00        nop     
63f2 00        nop     
63f3 00        nop     
63f4 00        nop     
63f5 00        nop     
63f6 00        nop     
63f7 00        nop     
63f8 00        nop     
63f9 00        nop     
63fa 00        nop     
63fb 00        nop     
63fc 00        nop     
63fd 00        nop     
63fe 00        nop     
63ff 00        nop     
6400 00        nop     
6401 00        nop     
6402 00        nop     
6403 00        nop     
6404 00        nop     
6405 00        nop     
6406 00        nop     
6407 00        nop     
6408 00        nop     
6409 00        nop     
640a 0c        inc     c
640b 00        nop     
640c 0e00      ld      c,00h
640e c30021    jp      2100h
6411 08        ex      af,af'
6412 100c      djnz    6420h
6414 00        nop     
6415 87        add     a,a
6416 00        nop     
6417 70        ld      (hl),b
6418 00        nop     
6419 00        nop     
641a 00        nop     
641b 00        nop     
641c 0f        rrca    
641d 0f        rrca    
641e ff        rst     38h
641f ff        rst     38h
6420 f0        ret     p

6421 f0        ret     p

6422 05        dec     b
6423 05        dec     b
6424 0a        ld      a,(bc)
6425 0a        ld      a,(bc)
6426 05        dec     b
6427 05        dec     b
6428 0a        ld      a,(bc)
6429 0a        ld      a,(bc)
642a 00        nop     
642b 00        nop     
642c f0        ret     p

642d f0        ret     p

642e f0        ret     p

642f f0        ret     p

6430 f0        ret     p

6431 f0        ret     p

6432 f0        ret     p

6433 f0        ret     p

6434 f0        ret     p

6435 f0        ret     p

6436 f0        ret     p

6437 f0        ret     p

6438 f0        ret     p

6439 f0        ret     p

643a f0        ret     p

643b f0        ret     p

643c f0        ret     p

643d f0        ret     p

643e f0        ret     p

643f f0        ret     p

6440 00        nop     
6441 00        nop     
6442 00        nop     
6443 00        nop     
6444 00        nop     
6445 00        nop     
6446 00        nop     
6447 00        nop     
6448 00        nop     
6449 00        nop     
644a 00        nop     
644b 00        nop     
644c 00        nop     
644d 00        nop     
644e 00        nop     
644f 00        nop     
6450 00        nop     
6451 00        nop     
6452 00        nop     
6453 00        nop     
6454 0f        rrca    
6455 0f        rrca    
6456 f0        ret     p

6457 f0        ret     p

6458 00        nop     
6459 00        nop     
645a 00        nop     
645b 00        nop     
645c 0f        rrca    
645d 0f        rrca    
645e ff        rst     38h
645f ff        rst     38h
6460 f0        ret     p

6461 f0        ret     p

6462 05        dec     b
6463 05        dec     b
6464 0a        ld      a,(bc)
6465 0a        ld      a,(bc)
6466 05        dec     b
6467 05        dec     b
6468 0a        ld      a,(bc)
6469 0a        ld      a,(bc)
646a 00        nop     
646b 00        nop     
646c f0        ret     p

646d f0        ret     p

646e f0        ret     p

646f f0        ret     p

6470 f0        ret     p

6471 f0        ret     p

6472 f0        ret     p

6473 f0        ret     p

6474 f0        ret     p

6475 f0        ret     p

6476 70        ld      (hl),b
6477 f0        ret     p

6478 70        ld      (hl),b
6479 f0        ret     p

647a 70        ld      (hl),b
647b f0        ret     p

647c 70        ld      (hl),b
647d f0        ret     p

647e 70        ld      (hl),b
647f f0        ret     p

6480 00        nop     
6481 00        nop     
6482 00        nop     
6483 00        nop     
6484 00        nop     
6485 00        nop     
6486 00        nop     
6487 00        nop     
6488 00        nop     
6489 00        nop     
648a 00        nop     
648b 00        nop     
648c 00        nop     
648d 00        nop     
648e 00        nop     
648f 00        nop     
6490 00        nop     
6491 00        nop     
6492 00        nop     
6493 00        nop     
6494 0f        rrca    
6495 0f        rrca    
6496 f0        ret     p

6497 f0        ret     p

6498 00        nop     
6499 00        nop     
649a 00        nop     
649b 00        nop     
649c 0f        rrca    
649d 0f        rrca    
649e ff        rst     38h
649f ff        rst     38h
64a0 f0        ret     p

64a1 f0        ret     p

64a2 05        dec     b
64a3 05        dec     b
64a4 0a        ld      a,(bc)
64a5 0a        ld      a,(bc)
64a6 05        dec     b
64a7 05        dec     b
64a8 0a        ld      a,(bc)
64a9 0a        ld      a,(bc)
64aa 00        nop     
64ab 00        nop     
64ac f0        ret     p

64ad f0        ret     p

64ae f0        ret     p

64af f0        ret     p

64b0 f0        ret     p

64b1 f0        ret     p

64b2 f0        ret     p

64b3 f0        ret     p

64b4 f0        ret     p

64b5 f0        ret     p

64b6 f0        ret     p

64b7 f0        ret     p

64b8 f0        ret     p

64b9 f0        ret     p

64ba f0        ret     p

64bb f0        ret     p

64bc f0        ret     p

64bd f0        ret     p

64be f0        ret     p

64bf f0        ret     p

64c0 00        nop     
64c1 00        nop     
64c2 00        nop     
64c3 00        nop     
64c4 00        nop     
64c5 00        nop     
64c6 00        nop     
64c7 00        nop     
64c8 00        nop     
64c9 00        nop     
64ca 00        nop     
64cb 00        nop     
64cc 00        nop     
64cd 00        nop     
64ce 00        nop     
64cf 00        nop     
64d0 00        nop     
64d1 00        nop     
64d2 00        nop     
64d3 00        nop     
64d4 0f        rrca    
64d5 0f        rrca    
64d6 f0        ret     p

64d7 f0        ret     p

64d8 00        nop     
64d9 00        nop     
64da 00        nop     
64db 00        nop     
64dc 0f        rrca    
64dd 0f        rrca    
64de ff        rst     38h
64df ff        rst     38h
64e0 f0        ret     p

64e1 f0        ret     p

64e2 05        dec     b
64e3 05        dec     b
64e4 0a        ld      a,(bc)
64e5 0a        ld      a,(bc)
64e6 05        dec     b
64e7 05        dec     b
64e8 0a        ld      a,(bc)
64e9 0a        ld      a,(bc)
64ea 00        nop     
64eb 00        nop     
64ec f0        ret     p

64ed f0        ret     p

64ee f0        ret     p

64ef f0        ret     p

64f0 f0        ret     p

64f1 f0        ret     p

64f2 f0        ret     p

64f3 f0        ret     p

64f4 f0        ret     p

64f5 f0        ret     p

64f6 70        ld      (hl),b
64f7 f0        ret     p

64f8 70        ld      (hl),b
64f9 f0        ret     p

64fa 70        ld      (hl),b
64fb f0        ret     p

64fc 70        ld      (hl),b
64fd f0        ret     p

64fe 70        ld      (hl),b
64ff f0        ret     p

6500 f0        ret     p

6501 f0        ret     p

6502 f0        ret     p

6503 f0        ret     p

6504 f0        ret     p

6505 f0        ret     p

6506 f0        ret     p

6507 f0        ret     p

6508 f0        ret     p

6509 f0        ret     p

650a f0        ret     p

650b f0        ret     p

650c f0        ret     p

650d f0        ret     p

650e 0f        rrca    
650f 0f        rrca    
6510 7f        ld      a,a
6511 ff        rst     38h
6512 7f        ld      a,a
6513 ff        rst     38h
6514 7b        ld      a,e
6515 ff        rst     38h
6516 7b        ld      a,e
6517 ff        rst     38h
6518 7b        ld      a,e
6519 af        xor     a
651a 4b        ld      c,e
651b eb        ex      de,hl
651c 49        ld      c,c
651d ef        rst     28h
651e 7f        ld      a,a
651f 7e        ld      a,(hl)
6520 7f        ld      a,a
6521 2e7f      ld      l,7fh
6523 9d        sbc     a,l
6524 7b        ld      a,e
6525 fe7b      cp      7bh
6527 aa        xor     d
6528 7b        ld      a,e
6529 cc7b98    call    z,987bh
652c 7b        ld      a,e
652d 98        sbc     a,b
652e 7b        ld      a,e
652f a9        xor     c
6530 79        ld      a,c
6531 a9        xor     c
6532 7b        ld      a,e
6533 b8        cp      b
6534 7b        ld      a,e
6535 a9        xor     c
6536 7b        ld      a,e
6537 53        ld      d,e
6538 7b        ld      a,e
6539 37        scf     
653a 6a        ld      l,d
653b c37b43    jp      437bh
653e 7b        ld      a,e
653f a9        xor     c
6540 0f        rrca    
6541 0f        rrca    
6542 0f        rrca    
6543 0f        rrca    
6544 f0        ret     p

6545 f0        ret     p

6546 f0        ret     p

6547 f0        ret     p

6548 f0        ret     p

6549 f0        ret     p

654a f0        ret     p

654b f0        ret     p

654c f0        ret     p

654d f0        ret     p

654e 0f        rrca    
654f 0f        rrca    
6550 ff        rst     38h
6551 ff        rst     38h
6552 ff        rst     38h
6553 ff        rst     38h
6554 ff        rst     38h
6555 ff        rst     38h
6556 3f        ccf     
6557 ff        rst     38h
6558 87        add     a,a
6559 ff        rst     38h
655a f0        ret     p

655b 0f        rrca    
655c 03        inc     bc
655d bc        cp      h
655e 33        inc     sp
655f e8        ret     pe

6560 7d        ld      a,l
6561 cacf7f    jp      z,7fcfh
6564 f5        push    af
6565 dd7273    ld      (ix+73h),d
6568 d7        rst     10h
6569 eedf      xor     0dfh
656b ccbdff    call    z,0ffbdh
656e fb        ei      
656f 44        ld      b,h
6570 ff        rst     38h
6571 cc7fff    call    z,0ff7fh
6574 ceff      adc     a,0ffh
6576 cebb      adc     a,0bbh
6578 ae        xor     (hl)
6579 bb        cp      e
657a 2eff      ld      l,0ffh
657c a6        and     (hl)
657d ff        rst     38h
657e b7        or      a
657f 44        ld      b,h
6580 f0        ret     p

6581 f0        ret     p

6582 f0        ret     p

6583 f0        ret     p

6584 f0        ret     p

6585 f0        ret     p

6586 f0        ret     p

6587 f0        ret     p

6588 f0        ret     p

6589 f0        ret     p

658a f0        ret     p

658b f0        ret     p

658c f0        ret     p

658d f0        ret     p

658e 0f        rrca    
658f 0f        rrca    
6590 ff        rst     38h
6591 ff        rst     38h
6592 ff        rst     38h
6593 ff        rst     38h
6594 ff        rst     38h
6595 ff        rst     38h
6596 9b        sbc     a,e
6597 ff        rst     38h
6598 9f        sbc     a,a
6599 ff        rst     38h
659a c9        ret     

659b 0f        rrca    
659c 88        adc     a,b
659d 01cc21    ld      bc,21cch
65a0 02        ld      (bc),a
65a1 25        dec     h
65a2 c9        ret     

65a3 4b        ld      c,e
65a4 bd        cp      l
65a5 af        xor     a
65a6 ceed      adc     a,0edh
65a8 ef        rst     28h
65a9 f3        di      
65aa ff        rst     38h
65ab eedd      xor     0ddh
65ad 44        ld      b,h
65ae 99        sbc     a,c
65af ff        rst     38h
65b0 77        ld      (hl),a
65b1 ef        rst     28h
65b2 55        ld      d,l
65b3 47        ld      b,a
65b4 ef        rst     28h
65b5 e3        ex      (sp),hl
65b6 de66      sbc     a,66h
65b8 eccf27    call    pe,27cfh
65bb 3c        inc     a
65bc cdfc21    call    21fch
65bf 6f        ld      l,a
65c0 0f        rrca    
65c1 8f        adc     a,a
65c2 0f        rrca    
65c3 8f        adc     a,a
65c4 f0        ret     p

65c5 70        ld      (hl),b
65c6 f0        ret     p

65c7 70        ld      (hl),b
65c8 f0        ret     p

65c9 70        ld      (hl),b
65ca f0        ret     p

65cb 70        ld      (hl),b
65cc f0        ret     p

65cd 70        ld      (hl),b
65ce 0f        rrca    
65cf 70        ld      (hl),b
65d0 ef        rst     28h
65d1 70        ld      (hl),b
65d2 ef        rst     28h
65d3 70        ld      (hl),b
65d4 ed70      in      f,(c)
65d6 ed70      in      f,(c)
65d8 ed70      in      f,(c)
65da ed70      in      f,(c)
65dc ed70      in      f,(c)
65de ef        rst     28h
65df 07        rlca    
65e0 ef        rst     28h
65e1 07        rlca    
65e2 ef        rst     28h
65e3 07        rlca    
65e4 ed70      in      f,(c)
65e6 ed70      in      f,(c)
65e8 ed70      in      f,(c)
65ea ed70      in      f,(c)
65ec ed70      in      f,(c)
65ee ed70      in      f,(c)
65f0 ed70      in      f,(c)
65f2 ed70      in      f,(c)
65f4 ed70      in      f,(c)
65f6 ed70      in      f,(c)
65f8 ed70      in      f,(c)
65fa ed70      in      f,(c)
65fc ef        rst     28h
65fd 8f        adc     a,a
65fe ef        rst     28h
65ff 8f        adc     a,a
6600 f0        ret     p

6601 f0        ret     p

6602 f0        ret     p

6603 f0        ret     p

6604 f0        ret     p

6605 f0        ret     p

6606 f0        ret     p

6607 f0        ret     p

6608 f0        ret     p

6609 f0        ret     p

660a f0        ret     p

660b f0        ret     p

660c f0        ret     p

660d f0        ret     p

660e f0        ret     p

660f f0        ret     p

6610 f0        ret     p

6611 f0        ret     p

6612 f0        ret     p

6613 f0        ret     p

6614 f0        ret     p

6615 f0        ret     p

6616 00        nop     
6617 00        nop     
6618 0a        ld      a,(bc)
6619 0a        ld      a,(bc)
661a 05        dec     b
661b 05        dec     b
661c 0a        ld      a,(bc)
661d 0a        ld      a,(bc)
661e 05        dec     b
661f 05        dec     b
6620 f0        ret     p

6621 f0        ret     p

6622 ff        rst     38h
6623 ddff      rst     38h
6625 d9        exx     
6626 0f        rrca    
6627 b9        cp      c
6628 1f        rra     
6629 77        ld      (hl),a
662a ff        rst     38h
662b bb        cp      e
662c ff        rst     38h
662d ff        rst     38h
662e ff        rst     38h
662f f7        rst     30h
6630 fe7b      cp      7bh
6632 ed35      db      0edh, 35h        ; Undocumented 8 T-State NOP
6634 ed35      db      0edh, 35h        ; Undocumented 8 T-State NOP
6636 ed35      db      0edh, 35h        ; Undocumented 8 T-State NOP
6638 ca35c2    jp      z,0c235h
663b 35        dec     (hl)
663c 0c        inc     c
663d 35        dec     (hl)
663e 00        nop     
663f 35        dec     (hl)
6640 70        ld      (hl),b
6641 f0        ret     p

6642 70        ld      (hl),b
6643 f0        ret     p

6644 70        ld      (hl),b
6645 f0        ret     p

6646 70        ld      (hl),b
6647 f0        ret     p

6648 70        ld      (hl),b
6649 f0        ret     p

664a f0        ret     p

664b f0        ret     p

664c f0        ret     p

664d f0        ret     p

664e f0        ret     p

664f f0        ret     p

6650 f0        ret     p

6651 f0        ret     p

6652 f0        ret     p

6653 f0        ret     p

6654 f0        ret     p

6655 f0        ret     p

6656 00        nop     
6657 00        nop     
6658 0a        ld      a,(bc)
6659 0a        ld      a,(bc)
665a 05        dec     b
665b 05        dec     b
665c 0a        ld      a,(bc)
665d 0a        ld      a,(bc)
665e 05        dec     b
665f 05        dec     b
6660 f0        ret     p

6661 f0        ret     p

6662 ff        rst     38h
6663 ff        rst     38h
6664 ff        rst     38h
6665 ff        rst     38h
6666 ef        rst     28h
6667 0f        rrca    
6668 dec0      sbc     a,0c0h
666a debc      sbc     a,0bch
666c de8f      sbc     a,8fh
666e cf        rst     08h
666f 77        ld      (hl),a
6670 cf        rst     08h
6671 77        ld      (hl),a
6672 cf        rst     08h
6673 33        inc     sp
6674 de80      sbc     a,80h
6676 8f        adc     a,a
6677 f0        ret     p

6678 8f        adc     a,a
6679 0f        rrca    
667a cf        rst     08h
667b 0f        rrca    
667c ff        rst     38h
667d ff        rst     38h
667e ff        rst     38h
667f ff        rst     38h
6680 f0        ret     p

6681 f0        ret     p

6682 f0        ret     p

6683 f0        ret     p

6684 f0        ret     p

6685 f0        ret     p

6686 f0        ret     p

6687 f0        ret     p

6688 f0        ret     p

6689 f0        ret     p

668a f0        ret     p

668b f0        ret     p

668c f0        ret     p

668d f0        ret     p

668e f0        ret     p

668f f0        ret     p

6690 f0        ret     p

6691 f0        ret     p

6692 f0        ret     p

6693 f0        ret     p

6694 f0        ret     p

6695 f0        ret     p

6696 00        nop     
6697 00        nop     
6698 0a        ld      a,(bc)
6699 0a        ld      a,(bc)
669a 05        dec     b
669b 05        dec     b
669c 0a        ld      a,(bc)
669d 0a        ld      a,(bc)
669e 05        dec     b
669f 05        dec     b
66a0 f0        ret     p

66a1 f0        ret     p

66a2 feb3      cp      0b3h
66a4 fe77      cp      77h
66a6 1e47      ld      e,47h
66a8 11ff7f    ld      de,7fffh
66ab ff        rst     38h
66ac 5d        ld      e,l
66ad ff        rst     38h
66ae fdff      rst     38h
66b0 9b        sbc     a,e
66b1 ff        rst     38h
66b2 73        ld      (hl),e
66b3 ff        rst     38h
66b4 73        ld      (hl),e
66b5 ff        rst     38h
66b6 b7        or      a
66b7 ff        rst     38h
66b8 3c        inc     a
66b9 f0        ret     p

66ba 4f        ld      c,a
66bb 0f        rrca    
66bc 88        adc     a,b
66bd 00        nop     
66be 00        nop     
66bf 00        nop     
66c0 70        ld      (hl),b
66c1 f0        ret     p

66c2 70        ld      (hl),b
66c3 f0        ret     p

66c4 70        ld      (hl),b
66c5 f0        ret     p

66c6 70        ld      (hl),b
66c7 f0        ret     p

66c8 70        ld      (hl),b
66c9 f0        ret     p

66ca f0        ret     p

66cb f0        ret     p

66cc f0        ret     p

66cd f0        ret     p

66ce f0        ret     p

66cf f0        ret     p

66d0 f0        ret     p

66d1 f0        ret     p

66d2 f0        ret     p

66d3 f0        ret     p

66d4 f0        ret     p

66d5 f0        ret     p

66d6 00        nop     
66d7 00        nop     
66d8 0a        ld      a,(bc)
66d9 0a        ld      a,(bc)
66da 05        dec     b
66db 05        dec     b
66dc 0a        ld      a,(bc)
66dd 0a        ld      a,(bc)
66de 05        dec     b
66df 05        dec     b
66e0 f0        ret     p

66e1 f0        ret     p

66e2 ff        rst     38h
66e3 ff        rst     38h
66e4 ff        rst     38h
66e5 ff        rst     38h
66e6 0f        rrca    
66e7 1f        rra     
66e8 ff        rst     38h
66e9 ff        rst     38h
66ea ff        rst     38h
66eb ff        rst     38h
66ec ff        rst     38h
66ed ff        rst     38h
66ee ff        rst     38h
66ef ef        rst     28h
66f0 ff        rst     38h
66f1 cf        rst     08h
66f2 ff        rst     38h
66f3 8f        adc     a,a
66f4 ff        rst     38h
66f5 8f        adc     a,a
66f6 ff        rst     38h
66f7 8f        adc     a,a
66f8 f7        rst     30h
66f9 ff        rst     38h
66fa 7b        ld      a,e
66fb ff        rst     38h
66fc 35        dec     (hl)
66fd ff        rst     38h
66fe 35        dec     (hl)
66ff ff        rst     38h
6700 00        nop     
6701 35        dec     (hl)
6702 00        nop     
6703 35        dec     (hl)
6704 00        nop     
6705 35        dec     (hl)
6706 00        nop     
6707 35        dec     (hl)
6708 00        nop     
6709 35        dec     (hl)
670a 00        nop     
670b 35        dec     (hl)
670c 00        nop     
670d 34        inc     (hl)
670e 00        nop     
670f 03        inc     bc
6710 00        nop     
6711 00        nop     
6712 00        nop     
6713 00        nop     
6714 00        nop     
6715 00        nop     
6716 00        nop     
6717 00        nop     
6718 00        nop     
6719 00        nop     
671a 00        nop     
671b 00        nop     
671c 00        nop     
671d 00        nop     
671e 00        nop     
671f 00        nop     
6720 00        nop     
6721 00        nop     
6722 00        nop     
6723 00        nop     
6724 00        nop     
6725 00        nop     
6726 00        nop     
6727 00        nop     
6728 00        nop     
6729 00        nop     
672a 00        nop     
672b 00        nop     
672c 00        nop     
672d 00        nop     
672e 00        nop     
672f 00        nop     
6730 00        nop     
6731 00        nop     
6732 00        nop     
6733 00        nop     
6734 00        nop     
6735 00        nop     
6736 00        nop     
6737 00        nop     
6738 00        nop     
6739 00        nop     
673a 00        nop     
673b 00        nop     
673c 00        nop     
673d 00        nop     
673e 00        nop     
673f 00        nop     
6740 ff        rst     38h
6741 caffca    jp      z,0caffh
6744 ff        rst     38h
6745 caffca    jp      z,0caffh
6748 ff        rst     38h
6749 caffca    jp      z,0caffh
674c f0        ret     p

674d 84        add     a,h
674e 0f        rrca    
674f 08        ex      af,af'
6750 00        nop     
6751 00        nop     
6752 00        nop     
6753 00        nop     
6754 00        nop     
6755 00        nop     
6756 00        nop     
6757 00        nop     
6758 00        nop     
6759 00        nop     
675a 00        nop     
675b 00        nop     
675c 00        nop     
675d 00        nop     
675e 00        nop     
675f 00        nop     
6760 00        nop     
6761 00        nop     
6762 00        nop     
6763 00        nop     
6764 00        nop     
6765 00        nop     
6766 00        nop     
6767 00        nop     
6768 00        nop     
6769 00        nop     
676a 00        nop     
676b 00        nop     
676c 00        nop     
676d 00        nop     
676e 00        nop     
676f 00        nop     
6770 00        nop     
6771 00        nop     
6772 00        nop     
6773 00        nop     
6774 00        nop     
6775 00        nop     
6776 00        nop     
6777 00        nop     
6778 00        nop     
6779 00        nop     
677a 00        nop     
677b 00        nop     
677c 00        nop     
677d 00        nop     
677e 00        nop     
677f 00        nop     
6780 00        nop     
6781 00        nop     
6782 00        nop     
6783 00        nop     
6784 00        nop     
6785 00        nop     
6786 00        nop     
6787 00        nop     
6788 00        nop     
6789 00        nop     
678a 00        nop     
678b 00        nop     
678c 00        nop     
678d 00        nop     
678e 00        nop     
678f 00        nop     
6790 00        nop     
6791 00        nop     
6792 00        nop     
6793 00        nop     
6794 00        nop     
6795 00        nop     
6796 00        nop     
6797 00        nop     
6798 00        nop     
6799 00        nop     
679a 00        nop     
679b 00        nop     
679c 00        nop     
679d 00        nop     
679e 00        nop     
679f 00        nop     
67a0 00        nop     
67a1 00        nop     
67a2 00        nop     
67a3 00        nop     
67a4 00        nop     
67a5 00        nop     
67a6 00        nop     
67a7 00        nop     
67a8 00        nop     
67a9 00        nop     
67aa 00        nop     
67ab 00        nop     
67ac 00        nop     
67ad 00        nop     
67ae 00        nop     
67af 00        nop     
67b0 00        nop     
67b1 00        nop     
67b2 00        nop     
67b3 00        nop     
67b4 00        nop     
67b5 00        nop     
67b6 00        nop     
67b7 00        nop     
67b8 00        nop     
67b9 00        nop     
67ba 00        nop     
67bb 00        nop     
67bc 00        nop     
67bd 00        nop     
67be 00        nop     
67bf 00        nop     
67c0 7b        ld      a,e
67c1 ff        rst     38h
67c2 7b        ld      a,e
67c3 ff        rst     38h
67c4 7b        ld      a,e
67c5 ff        rst     38h
67c6 78        ld      a,b
67c7 f0        ret     p

67c8 07        rlca    
67c9 0f        rrca    
67ca 00        nop     
67cb 00        nop     
67cc 00        nop     
67cd 00        nop     
67ce 00        nop     
67cf 00        nop     
67d0 00        nop     
67d1 00        nop     
67d2 00        nop     
67d3 00        nop     
67d4 00        nop     
67d5 00        nop     
67d6 00        nop     
67d7 00        nop     
67d8 00        nop     
67d9 00        nop     
67da 00        nop     
67db 00        nop     
67dc 00        nop     
67dd 00        nop     
67de 00        nop     
67df 00        nop     
67e0 00        nop     
67e1 00        nop     
67e2 00        nop     
67e3 00        nop     
67e4 00        nop     
67e5 00        nop     
67e6 00        nop     
67e7 00        nop     
67e8 00        nop     
67e9 00        nop     
67ea 00        nop     
67eb 00        nop     
67ec 00        nop     
67ed 00        nop     
67ee 00        nop     
67ef 00        nop     
67f0 00        nop     
67f1 00        nop     
67f2 00        nop     
67f3 00        nop     
67f4 00        nop     
67f5 00        nop     
67f6 00        nop     
67f7 00        nop     
67f8 00        nop     
67f9 00        nop     
67fa 00        nop     
67fb 00        nop     
67fc 00        nop     
67fd 00        nop     
67fe 00        nop     
67ff 00        nop     
6800 00        nop     
6801 00        nop     
6802 00        nop     
6803 00        nop     
6804 f0        ret     p

6805 88        adc     a,b
6806 3f        ccf     
6807 c4f0ea    call    nz,0eaf0h
680a fee4      cp      0e4h
680c 5c        ld      e,h
680d e4bee4    call    po,0e4beh
6810 76        halt    
6811 c7        rst     00h
6812 14        inc     d
6813 f7        rst     30h
6814 88        adc     a,b
6815 f0        ret     p

6816 00        nop     
6817 00        nop     
6818 f0        ret     p

6819 f0        ret     p

681a f0        ret     p

681b f0        ret     p

681c 0f        rrca    
681d 0f        rrca    
681e ff        rst     38h
681f ff        rst     38h
6820 f0        ret     p

6821 f0        ret     p

6822 0a        ld      a,(bc)
6823 0a        ld      a,(bc)
6824 05        dec     b
6825 05        dec     b
6826 0a        ld      a,(bc)
6827 0a        ld      a,(bc)
6828 05        dec     b
6829 05        dec     b
682a 00        nop     
682b 00        nop     
682c f0        ret     p

682d f0        ret     p

682e f0        ret     p

682f f0        ret     p

6830 f0        ret     p

6831 f0        ret     p

6832 f0        ret     p

6833 f0        ret     p

6834 f0        ret     p

6835 f0        ret     p

6836 f0        ret     p

6837 f0        ret     p

6838 f0        ret     p

6839 f0        ret     p

683a f0        ret     p

683b f0        ret     p

683c f0        ret     p

683d f0        ret     p

683e f0        ret     p

683f f0        ret     p

6840 00        nop     
6841 00        nop     
6842 00        nop     
6843 00        nop     
6844 00        nop     
6845 00        nop     
6846 00        nop     
6847 00        nop     
6848 33        inc     sp
6849 88        adc     a,b
684a 47        ld      b,a
684b 4c        ld      c,h
684c 8f        adc     a,a
684d 2ebe      ld      l,0beh
684f ae        xor     (hl)
6850 bc        cp      h
6851 a7        and     a
6852 8f        adc     a,a
6853 2f        cpl     
6854 cf        rst     08h
6855 4c        ld      c,h
6856 ff        rst     38h
6857 8c        adc     a,h
6858 7f        ld      a,a
6859 88        adc     a,b
685a 87        add     a,a
685b 00        nop     
685c 0f        rrca    
685d 0f        rrca    
685e ff        rst     38h
685f ff        rst     38h
6860 f0        ret     p

6861 f0        ret     p

6862 0a        ld      a,(bc)
6863 0a        ld      a,(bc)
6864 05        dec     b
6865 05        dec     b
6866 0a        ld      a,(bc)
6867 0a        ld      a,(bc)
6868 05        dec     b
6869 05        dec     b
686a 00        nop     
686b 00        nop     
686c f0        ret     p

686d f0        ret     p

686e f0        ret     p

686f f0        ret     p

6870 f0        ret     p

6871 f0        ret     p

6872 f0        ret     p

6873 f0        ret     p

6874 f0        ret     p

6875 f0        ret     p

6876 f0        ret     p

6877 f0        ret     p

6878 f0        ret     p

6879 f0        ret     p

687a f0        ret     p

687b f0        ret     p

687c f0        ret     p

687d f0        ret     p

687e f0        ret     p

687f f0        ret     p

6880 00        nop     
6881 00        nop     
6882 00        nop     
6883 00        nop     
6884 00        nop     
6885 00        nop     
6886 00        nop     
6887 00        nop     
6888 00        nop     
6889 00        nop     
688a 00        nop     
688b 0f        rrca    
688c 010f03    ld      bc,030fh
688f 07        rlca    
6890 0f        rrca    
6891 7f        ld      a,a
6892 1f        rra     
6893 ff        rst     38h
6894 c7        rst     00h
6895 ff        rst     38h
6896 7e        ld      a,(hl)
6897 8f        adc     a,a
6898 6f        ld      l,a
6899 0f        rrca    
689a 7f        ld      a,a
689b da3f77    jp      c,773fh
689e ff        rst     38h
689f ff        rst     38h
68a0 f0        ret     p

68a1 f0        ret     p

68a2 0a        ld      a,(bc)
68a3 0a        ld      a,(bc)
68a4 05        dec     b
68a5 05        dec     b
68a6 0a        ld      a,(bc)
68a7 0a        ld      a,(bc)
68a8 05        dec     b
68a9 05        dec     b
68aa 00        nop     
68ab 00        nop     
68ac f0        ret     p

68ad f0        ret     p

68ae f0        ret     p

68af f0        ret     p

68b0 f0        ret     p

68b1 f0        ret     p

68b2 f0        ret     p

68b3 f0        ret     p

68b4 f0        ret     p

68b5 f0        ret     p

68b6 f0        ret     p

68b7 f0        ret     p

68b8 f0        ret     p

68b9 f0        ret     p

68ba f0        ret     p

68bb f0        ret     p

68bc f0        ret     p

68bd f0        ret     p

68be f0        ret     p

68bf f0        ret     p

68c0 00        nop     
68c1 00        nop     
68c2 00        nop     
68c3 00        nop     
68c4 00        nop     
68c5 00        nop     
68c6 00        nop     
68c7 00        nop     
68c8 00        nop     
68c9 00        nop     
68ca 0f        rrca    
68cb 0f        rrca    
68cc 0f        rrca    
68cd 0f        rrca    
68ce 78        ld      a,b
68cf 50        ld      d,b
68d0 ff        rst     38h
68d1 f0        ret     p

68d2 ff        rst     38h
68d3 7c        ld      a,h
68d4 ff        rst     38h
68d5 b6        or      (hl)
68d6 0f        rrca    
68d7 c30f97    jp      970fh
68da 5a        ld      e,d
68db ef        rst     28h
68dc ff        rst     38h
68dd cf        rst     08h
68de ff        rst     38h
68df ff        rst     38h
68e0 f0        ret     p

68e1 f0        ret     p

68e2 0a        ld      a,(bc)
68e3 0a        ld      a,(bc)
68e4 05        dec     b
68e5 05        dec     b
68e6 0a        ld      a,(bc)
68e7 0a        ld      a,(bc)
68e8 05        dec     b
68e9 05        dec     b
68ea 00        nop     
68eb 00        nop     
68ec f0        ret     p

68ed f0        ret     p

68ee f0        ret     p

68ef f0        ret     p

68f0 f0        ret     p

68f1 f0        ret     p

68f2 f0        ret     p

68f3 70        ld      (hl),b
68f4 f0        ret     p

68f5 70        ld      (hl),b
68f6 f0        ret     p

68f7 70        ld      (hl),b
68f8 f0        ret     p

68f9 70        ld      (hl),b
68fa f0        ret     p

68fb 70        ld      (hl),b
68fc f0        ret     p

68fd 70        ld      (hl),b
68fe f0        ret     p

68ff 70        ld      (hl),b
6900 7b        ld      a,e
6901 b8        cp      b
6902 5b        ld      e,e
6903 cc4bee    call    z,0ee4bh
6906 69        ld      l,c
6907 7f        ld      a,a
6908 69        ld      l,c
6909 2e78      ld      l,78h
690b 6e        ld      l,(hl)
690c 78        ld      a,b
690d 6e        ld      l,(hl)
690e 78        ld      a,b
690f 4d        ld      c,l
6910 7b        ld      a,e
6911 ff        rst     38h
6912 7b        ld      a,e
6913 ff        rst     38h
6914 78        ld      a,b
6915 f0        ret     p

6916 00        nop     
6917 00        nop     
6918 05        dec     b
6919 05        dec     b
691a 0a        ld      a,(bc)
691b 0a        ld      a,(bc)
691c 05        dec     b
691d 05        dec     b
691e 0a        ld      a,(bc)
691f 0a        ld      a,(bc)
6920 f0        ret     p

6921 f0        ret     p

6922 ff        rst     38h
6923 ff        rst     38h
6924 ff        rst     38h
6925 ff        rst     38h
6926 0f        rrca    
6927 0f        rrca    
6928 e1        pop     hl
6929 ff        rst     38h
692a d300      out     (00h),a
692c a6        and     (hl)
692d ff        rst     38h
692e 5d        ld      e,l
692f ff        rst     38h
6930 ff        rst     38h
6931 ff        rst     38h
6932 ff        rst     38h
6933 ff        rst     38h
6934 ff        rst     38h
6935 ff        rst     38h
6936 ff        rst     38h
6937 ff        rst     38h
6938 f8        ret     m

6939 f1        pop     af
693a 87        add     a,a
693b 1e08      ld      e,08h
693d 010000    ld      bc,0000h
6940 97        sub     a
6941 fb        ei      
6942 f3        di      
6943 c7        rst     00h
6944 23        inc     hl
6945 ef        rst     28h
6946 46        ld      b,(hl)
6947 7f        ld      a,a
6948 45        ld      b,l
6949 3f        ccf     
694a dc2fb8    call    c,0b82fh
694d a7        and     a
694e 66        ld      h,(hl)
694f 52        ld      d,d
6950 fc20ff    call    m,0ff20h
6953 ff        rst     38h
6954 f0        ret     p

6955 f0        ret     p

6956 00        nop     
6957 00        nop     
6958 05        dec     b
6959 05        dec     b
695a 0a        ld      a,(bc)
695b 0a        ld      a,(bc)
695c 05        dec     b
695d 05        dec     b
695e 0a        ld      a,(bc)
695f 0a        ld      a,(bc)
6960 f0        ret     p

6961 f0        ret     p

6962 ff        rst     38h
6963 eeff      xor     0ffh
6965 ee0f      xor     0fh
6967 eecf      xor     0cfh
6969 ff        rst     38h
696a 23        inc     hl
696b ef        rst     28h
696c cdefee    call    0eeefh
696f 2f        cpl     
6970 ee3e      xor     3eh
6972 eeee      xor     0eeh
6974 ff        rst     38h
6975 ff        rst     38h
6976 ff        rst     38h
6977 ff        rst     38h
6978 ff        rst     38h
6979 ff        rst     38h
697a ff        rst     38h
697b f8        ret     m

697c f7        rst     30h
697d 87        add     a,a
697e 7a        ld      a,d
697f 08        ex      af,af'
6980 f8        ret     m

6981 4e        ld      c,(hl)
6982 1c        inc     e
6983 c1        pop     bc
6984 c0        ret     nz

6985 01f389    ld      bc,89f3h
6988 1d        dec     e
6989 89        adc     a,c
698a 6e        ld      l,(hl)
698b 89        adc     a,c
698c aa        xor     d
698d 89        adc     a,c
698e dd89      adc     a,c
6990 00        nop     
6991 01ffff    ld      bc,0ffffh
6994 f0        ret     p

6995 f0        ret     p

6996 00        nop     
6997 00        nop     
6998 05        dec     b
6999 05        dec     b
699a 0a        ld      a,(bc)
699b 0a        ld      a,(bc)
699c 05        dec     b
699d 05        dec     b
699e 0a        ld      a,(bc)
699f 0a        ld      a,(bc)
69a0 f0        ret     p

69a1 f0        ret     p

69a2 ff        rst     38h
69a3 ff        rst     38h
69a4 ff        rst     38h
69a5 ff        rst     38h
69a6 0f        rrca    
69a7 0f        rrca    
69a8 f0        ret     p

69a9 f0        ret     p

69aa 0f        rrca    
69ab 0f        rrca    
69ac 0f        rrca    
69ad 0f        rrca    
69ae ff        rst     38h
69af ff        rst     38h
69b0 ff        rst     38h
69b1 ff        rst     38h
69b2 ff        rst     38h
69b3 ff        rst     38h
69b4 ff        rst     38h
69b5 ff        rst     38h
69b6 ff        rst     38h
69b7 ff        rst     38h
69b8 ff        rst     38h
69b9 ff        rst     38h
69ba f0        ret     p

69bb f0        ret     p

69bc 0f        rrca    
69bd 0f        rrca    
69be 00        nop     
69bf 00        nop     
69c0 ed70      in      f,(c)
69c2 ed70      in      f,(c)
69c4 ed70      in      f,(c)
69c6 ed70      in      f,(c)
69c8 ed70      in      f,(c)
69ca ed70      in      f,(c)
69cc ed70      in      f,(c)
69ce ed70      in      f,(c)
69d0 edf0      db      0edh, 0f0h       ; Undocumented 8 T-State NOP
69d2 edf0      db      0edh, 0f0h       ; Undocumented 8 T-State NOP
69d4 e1        pop     hl
69d5 f0        ret     p

69d6 00        nop     
69d7 00        nop     
69d8 05        dec     b
69d9 05        dec     b
69da 0a        ld      a,(bc)
69db 0a        ld      a,(bc)
69dc 05        dec     b
69dd 05        dec     b
69de 0a        ld      a,(bc)
69df 0a        ld      a,(bc)
69e0 f0        ret     p

69e1 f0        ret     p

69e2 ff        rst     38h
69e3 ff        rst     38h
69e4 ff        rst     38h
69e5 ff        rst     38h
69e6 0f        rrca    
69e7 0f        rrca    
69e8 f0        ret     p

69e9 f0        ret     p

69ea 0f        rrca    
69eb 0f        rrca    
69ec 0f        rrca    
69ed 0f        rrca    
69ee ff        rst     38h
69ef ff        rst     38h
69f0 ff        rst     38h
69f1 ff        rst     38h
69f2 ff        rst     38h
69f3 ff        rst     38h
69f4 ff        rst     38h
69f5 ff        rst     38h
69f6 ff        rst     38h
69f7 ff        rst     38h
69f8 ff        rst     38h
69f9 ff        rst     38h
69fa f0        ret     p

69fb f0        ret     p

69fc 0f        rrca    
69fd 0f        rrca    
69fe 00        nop     
69ff 00        nop     
6a00 00        nop     
6a01 00        nop     
6a02 00        nop     
6a03 00        nop     
6a04 00        nop     
6a05 00        nop     
6a06 00        nop     
6a07 00        nop     
6a08 00        nop     
6a09 00        nop     
6a0a 00        nop     
6a0b 00        nop     
6a0c 00        nop     
6a0d 00        nop     
6a0e 00        nop     
6a0f 00        nop     
6a10 00        nop     
6a11 00        nop     
6a12 00        nop     
6a13 00        nop     
6a14 00        nop     
6a15 00        nop     
6a16 00        nop     
6a17 00        nop     
6a18 00        nop     
6a19 00        nop     
6a1a 00        nop     
6a1b 00        nop     
6a1c 00        nop     
6a1d 00        nop     
6a1e 00        nop     
6a1f 00        nop     
6a20 00        nop     
6a21 00        nop     
6a22 00        nop     
6a23 00        nop     
6a24 00        nop     
6a25 00        nop     
6a26 00        nop     
6a27 00        nop     
6a28 00        nop     
6a29 00        nop     
6a2a 00        nop     
6a2b 00        nop     
6a2c 00        nop     
6a2d 00        nop     
6a2e 00        nop     
6a2f 00        nop     
6a30 00        nop     
6a31 00        nop     
6a32 00        nop     
6a33 00        nop     
6a34 00        nop     
6a35 00        nop     
6a36 00        nop     
6a37 00        nop     
6a38 00        nop     
6a39 00        nop     
6a3a 00        nop     
6a3b 00        nop     
6a3c 00        nop     
6a3d 00        nop     
6a3e 00        nop     
6a3f 00        nop     
6a40 7a        ld      a,d
6a41 08        ex      af,af'
6a42 78        ld      a,b
6a43 08        ex      af,af'
6a44 0f        rrca    
6a45 08        ex      af,af'
6a46 00        nop     
6a47 00        nop     
6a48 00        nop     
6a49 00        nop     
6a4a 00        nop     
6a4b 00        nop     
6a4c 00        nop     
6a4d 00        nop     
6a4e 00        nop     
6a4f 00        nop     
6a50 00        nop     
6a51 00        nop     
6a52 00        nop     
6a53 00        nop     
6a54 00        nop     
6a55 00        nop     
6a56 00        nop     
6a57 00        nop     
6a58 00        nop     
6a59 00        nop     
6a5a 00        nop     
6a5b 00        nop     
6a5c 00        nop     
6a5d 00        nop     
6a5e 00        nop     
6a5f 00        nop     
6a60 00        nop     
6a61 00        nop     
6a62 00        nop     
6a63 00        nop     
6a64 00        nop     
6a65 00        nop     
6a66 00        nop     
6a67 00        nop     
6a68 00        nop     
6a69 00        nop     
6a6a 00        nop     
6a6b 00        nop     
6a6c 00        nop     
6a6d 00        nop     
6a6e 00        nop     
6a6f 00        nop     
6a70 00        nop     
6a71 00        nop     
6a72 00        nop     
6a73 00        nop     
6a74 00        nop     
6a75 00        nop     
6a76 00        nop     
6a77 00        nop     
6a78 00        nop     
6a79 00        nop     
6a7a 00        nop     
6a7b 00        nop     
6a7c 00        nop     
6a7d 00        nop     
6a7e 00        nop     
6a7f 00        nop     
6a80 00        nop     
6a81 00        nop     
6a82 00        nop     
6a83 00        nop     
6a84 00        nop     
6a85 00        nop     
6a86 00        nop     
6a87 00        nop     
6a88 00        nop     
6a89 00        nop     
6a8a 00        nop     
6a8b 00        nop     
6a8c 00        nop     
6a8d 00        nop     
6a8e 00        nop     
6a8f 00        nop     
6a90 00        nop     
6a91 00        nop     
6a92 00        nop     
6a93 00        nop     
6a94 00        nop     
6a95 00        nop     
6a96 00        nop     
6a97 00        nop     
6a98 00        nop     
6a99 00        nop     
6a9a 00        nop     
6a9b 00        nop     
6a9c 00        nop     
6a9d 00        nop     
6a9e 00        nop     
6a9f 00        nop     
6aa0 00        nop     
6aa1 00        nop     
6aa2 00        nop     
6aa3 00        nop     
6aa4 00        nop     
6aa5 00        nop     
6aa6 00        nop     
6aa7 00        nop     
6aa8 00        nop     
6aa9 00        nop     
6aaa 00        nop     
6aab 00        nop     
6aac 00        nop     
6aad 00        nop     
6aae 00        nop     
6aaf 00        nop     
6ab0 00        nop     
6ab1 00        nop     
6ab2 00        nop     
6ab3 00        nop     
6ab4 00        nop     
6ab5 00        nop     
6ab6 00        nop     
6ab7 00        nop     
6ab8 00        nop     
6ab9 00        nop     
6aba 00        nop     
6abb 00        nop     
6abc 00        nop     
6abd 00        nop     
6abe 00        nop     
6abf 00        nop     
6ac0 00        nop     
6ac1 00        nop     
6ac2 00        nop     
6ac3 00        nop     
6ac4 00        nop     
6ac5 00        nop     
6ac6 00        nop     
6ac7 00        nop     
6ac8 00        nop     
6ac9 00        nop     
6aca 00        nop     
6acb 00        nop     
6acc 00        nop     
6acd 00        nop     
6ace 00        nop     
6acf 00        nop     
6ad0 00        nop     
6ad1 00        nop     
6ad2 00        nop     
6ad3 00        nop     
6ad4 00        nop     
6ad5 00        nop     
6ad6 00        nop     
6ad7 00        nop     
6ad8 00        nop     
6ad9 00        nop     
6ada 00        nop     
6adb 00        nop     
6adc 00        nop     
6add 00        nop     
6ade 00        nop     
6adf 00        nop     
6ae0 00        nop     
6ae1 00        nop     
6ae2 00        nop     
6ae3 00        nop     
6ae4 00        nop     
6ae5 00        nop     
6ae6 00        nop     
6ae7 00        nop     
6ae8 00        nop     
6ae9 00        nop     
6aea 00        nop     
6aeb 00        nop     
6aec 00        nop     
6aed 00        nop     
6aee 00        nop     
6aef 00        nop     
6af0 00        nop     
6af1 00        nop     
6af2 00        nop     
6af3 00        nop     
6af4 00        nop     
6af5 00        nop     
6af6 00        nop     
6af7 00        nop     
6af8 00        nop     
6af9 00        nop     
6afa 00        nop     
6afb 00        nop     
6afc 00        nop     
6afd 00        nop     
6afe 00        nop     
6aff 00        nop     
6b00 00        nop     
6b01 00        nop     
6b02 00        nop     
6b03 00        nop     
6b04 00        nop     
6b05 00        nop     
6b06 00        nop     
6b07 00        nop     
6b08 00        nop     
6b09 00        nop     
6b0a 00        nop     
6b0b 00        nop     
6b0c 00        nop     
6b0d 00        nop     
6b0e 00        nop     
6b0f 00        nop     
6b10 00        nop     
6b11 80        add     a,b
6b12 10c8      djnz    6adch
6b14 03        inc     bc
6b15 c656      add     a,56h
6b17 73        ld      (hl),e
6b18 ac        xor     h
6b19 318c31    ld      sp,318ch
6b1c 34        inc     (hl)
6b1d f1        pop     af
6b1e f7        rst     30h
6b1f ff        rst     38h
6b20 f0        ret     p

6b21 f0        ret     p

6b22 0a        ld      a,(bc)
6b23 0a        ld      a,(bc)
6b24 05        dec     b
6b25 05        dec     b
6b26 0a        ld      a,(bc)
6b27 0a        ld      a,(bc)
6b28 05        dec     b
6b29 05        dec     b
6b2a 00        nop     
6b2b 00        nop     
6b2c f0        ret     p

6b2d f0        ret     p

6b2e f0        ret     p

6b2f f0        ret     p

6b30 f0        ret     p

6b31 f0        ret     p

6b32 f0        ret     p

6b33 f0        ret     p

6b34 f0        ret     p

6b35 f0        ret     p

6b36 f0        ret     p

6b37 f0        ret     p

6b38 f0        ret     p

6b39 f0        ret     p

6b3a f0        ret     p

6b3b f0        ret     p

6b3c f0        ret     p

6b3d f0        ret     p

6b3e f0        ret     p

6b3f f0        ret     p

6b40 00        nop     
6b41 00        nop     
6b42 00        nop     
6b43 00        nop     
6b44 00        nop     
6b45 00        nop     
6b46 00        nop     
6b47 00        nop     
6b48 117823    ld      de,2378h
6b4b 3f        ccf     
6b4c 47        ld      b,a
6b4d f0        ret     p

6b4e 1600      ld      d,00h
6b50 1600      ld      d,00h
6b52 1613      ld      d,13h
6b54 1615      ld      d,15h
6b56 1604      ld      d,04h
6b58 9e        sbc     a,(hl)
6b59 00        nop     
6b5a 9e        sbc     a,(hl)
6b5b 00        nop     
6b5c 07        rlca    
6b5d 80        add     a,b
6b5e a7        and     a
6b5f 48        ld      c,b
6b60 f0        ret     p

6b61 f0        ret     p

6b62 0a        ld      a,(bc)
6b63 0a        ld      a,(bc)
6b64 05        dec     b
6b65 05        dec     b
6b66 0a        ld      a,(bc)
6b67 0a        ld      a,(bc)
6b68 05        dec     b
6b69 05        dec     b
6b6a 00        nop     
6b6b 00        nop     
6b6c f0        ret     p

6b6d f0        ret     p

6b6e f0        ret     p

6b6f f0        ret     p

6b70 f0        ret     p

6b71 f0        ret     p

6b72 f0        ret     p

6b73 f0        ret     p

6b74 f0        ret     p

6b75 f0        ret     p

6b76 70        ld      (hl),b
6b77 f0        ret     p

6b78 70        ld      (hl),b
6b79 f0        ret     p

6b7a 70        ld      (hl),b
6b7b f0        ret     p

6b7c 70        ld      (hl),b
6b7d f0        ret     p

6b7e 70        ld      (hl),b
6b7f f0        ret     p

6b80 00        nop     
6b81 00        nop     
6b82 00        nop     
6b83 00        nop     
6b84 00        nop     
6b85 00        nop     
6b86 00        nop     
6b87 00        nop     
6b88 f0        ret     p

6b89 88        adc     a,b
6b8a ff        rst     38h
6b8b c4e1ea    call    nz,0eae1h
6b8e 106c      djnz    6bfch
6b90 186c      jr      6bfeh
6b92 14        inc     d
6b93 6c        ld      l,h
6b94 106c      djnz    6c02h
6b96 186c      jr      6c04h
6b98 106c      djnz    6c06h
6b9a 106c      djnz    6c08h
6b9c 21ca53    ld      hl,53cah
6b9f c6f0      add     a,0f0h
6ba1 7f        ld      a,a
6ba2 0a        ld      a,(bc)
6ba3 96        sub     (hl)
6ba4 14        inc     d
6ba5 2d        dec     l
6ba6 0b        dec     bc
6ba7 4e        ld      c,(hl)
6ba8 05        dec     b
6ba9 05        dec     b
6baa 0100e1    ld      bc,0e100h
6bad f0        ret     p

6bae e0        ret     po

6baf f0        ret     p

6bb0 f1        pop     af
6bb1 f0        ret     p

6bb2 f1        pop     af
6bb3 f0        ret     p

6bb4 e1        pop     hl
6bb5 f0        ret     p

6bb6 f0        ret     p

6bb7 f0        ret     p

6bb8 f0        ret     p

6bb9 f0        ret     p

6bba f0        ret     p

6bbb f0        ret     p

6bbc f0        ret     p

6bbd f0        ret     p

6bbe f0        ret     p

6bbf f0        ret     p

6bc0 00        nop     
6bc1 00        nop     
6bc2 00        nop     
6bc3 00        nop     
6bc4 00        nop     
6bc5 00        nop     
6bc6 00        nop     
6bc7 00        nop     
6bc8 00        nop     
6bc9 00        nop     
6bca 00        nop     
6bcb 00        nop     
6bcc 00        nop     
6bcd 00        nop     
6bce 1000      djnz    6bd0h
6bd0 1008      djnz    6bdah
6bd2 72        ld      (hl),d
6bd3 8c        adc     a,h
6bd4 5a        ld      e,d
6bd5 ae        xor     (hl)
6bd6 9e        sbc     a,(hl)
6bd7 4e        ld      c,(hl)
6bd8 fe4e      cp      4eh
6bda fece      cp      0ceh
6bdc fece      cp      0ceh
6bde 98        sbc     a,b
6bdf 00        nop     
6be0 bc        cp      h
6be1 f0        ret     p

6be2 0a        ld      a,(bc)
6be3 0a        ld      a,(bc)
6be4 05        dec     b
6be5 05        dec     b
6be6 0a        ld      a,(bc)
6be7 0a        ld      a,(bc)
6be8 05        dec     b
6be9 05        dec     b
6bea 00        nop     
6beb 00        nop     
6bec f0        ret     p

6bed f0        ret     p

6bee f0        ret     p

6bef f0        ret     p

6bf0 f0        ret     p

6bf1 f0        ret     p

6bf2 f0        ret     p

6bf3 f0        ret     p

6bf4 f0        ret     p

6bf5 f0        ret     p

6bf6 70        ld      (hl),b
6bf7 f0        ret     p

6bf8 70        ld      (hl),b
6bf9 f0        ret     p

6bfa 70        ld      (hl),b
6bfb f0        ret     p

6bfc 70        ld      (hl),b
6bfd f0        ret     p

6bfe 70        ld      (hl),b
6bff f0        ret     p

6c00 00        nop     
6c01 00        nop     
6c02 00        nop     
6c03 00        nop     
6c04 01f003    ld      bc,03f0h
6c07 3f        ccf     
6c08 16f0      ld      d,0f0h
6c0a 2c        inc     l
6c0b fc3dfe    call    m,0fe3dh
6c0e 3f        ccf     
6c0f 76        halt    
6c10 6e        ld      l,(hl)
6c11 56        ld      d,(hl)
6c12 cc74f3    call    z,0f374h
6c15 d8        ret     c

6c16 fd80      add     a,b
6c18 fef0      cp      0f0h
6c1a 7c        ld      a,h
6c1b f0        ret     p

6c1c 0f        rrca    
6c1d 0f        rrca    
6c1e 7f        ld      a,a
6c1f ff        rst     38h
6c20 f0        ret     p

6c21 f0        ret     p

6c22 0a        ld      a,(bc)
6c23 0a        ld      a,(bc)
6c24 05        dec     b
6c25 05        dec     b
6c26 0a        ld      a,(bc)
6c27 0a        ld      a,(bc)
6c28 05        dec     b
6c29 05        dec     b
6c2a 00        nop     
6c2b 00        nop     
6c2c f0        ret     p

6c2d f0        ret     p

6c2e f0        ret     p

6c2f f0        ret     p

6c30 f0        ret     p

6c31 f0        ret     p

6c32 f0        ret     p

6c33 f0        ret     p

6c34 f0        ret     p

6c35 f0        ret     p

6c36 f0        ret     p

6c37 f0        ret     p

6c38 f0        ret     p

6c39 f0        ret     p

6c3a f0        ret     p

6c3b f0        ret     p

6c3c f0        ret     p

6c3d f0        ret     p

6c3e f0        ret     p

6c3f f0        ret     p

6c40 00        nop     
6c41 00        nop     
6c42 00        nop     
6c43 00        nop     
6c44 00        nop     
6c45 00        nop     
6c46 80        add     a,b
6c47 11c823    ld      de,23c8h
6c4a e403e4    call    po,0e403h
6c4d 03        inc     bc
6c4e e403c7    call    po,0c703h
6c51 1ef7      ld      e,0f7h
6c53 ff        rst     38h
6c54 f0        ret     p

6c55 c30001    jp      0100h
6c58 f0        ret     p

6c59 f0        ret     p

6c5a f0        ret     p

6c5b f0        ret     p

6c5c 0f        rrca    
6c5d 0f        rrca    
6c5e ff        rst     38h
6c5f ff        rst     38h
6c60 f0        ret     p

6c61 f0        ret     p

6c62 0a        ld      a,(bc)
6c63 0a        ld      a,(bc)
6c64 05        dec     b
6c65 05        dec     b
6c66 0a        ld      a,(bc)
6c67 0a        ld      a,(bc)
6c68 05        dec     b
6c69 05        dec     b
6c6a 00        nop     
6c6b 00        nop     
6c6c f0        ret     p

6c6d f0        ret     p

6c6e f0        ret     p

6c6f f0        ret     p

6c70 f0        ret     p

6c71 f0        ret     p

6c72 f0        ret     p

6c73 f0        ret     p

6c74 f0        ret     p

6c75 f0        ret     p

6c76 70        ld      (hl),b
6c77 f0        ret     p

6c78 70        ld      (hl),b
6c79 f0        ret     p

6c7a 70        ld      (hl),b
6c7b f0        ret     p

6c7c 70        ld      (hl),b
6c7d f0        ret     p

6c7e 70        ld      (hl),b
6c7f f0        ret     p

6c80 00        nop     
6c81 00        nop     
6c82 00        nop     
6c83 00        nop     
6c84 bc        cp      h
6c85 e20ffd    jp      po,0fd0fh
6c88 78        ld      a,b
6c89 f2b3f1    jp      p,0f1b3h
6c8c c4f980    call    nz,80f9h
6c8f f9        ld      sp,hl
6c90 eef9      xor     0f9h
6c92 88        adc     a,b
6c93 71        ld      (hl),c
6c94 ee30      xor     30h
6c96 4c        ld      c,h
6c97 00        nop     
6c98 f0        ret     p

6c99 f0        ret     p

6c9a f0        ret     p

6c9b f0        ret     p

6c9c 0f        rrca    
6c9d 0f        rrca    
6c9e ff        rst     38h
6c9f ff        rst     38h
6ca0 f0        ret     p

6ca1 f0        ret     p

6ca2 0a        ld      a,(bc)
6ca3 0a        ld      a,(bc)
6ca4 05        dec     b
6ca5 05        dec     b
6ca6 0a        ld      a,(bc)
6ca7 0a        ld      a,(bc)
6ca8 05        dec     b
6ca9 05        dec     b
6caa 00        nop     
6cab 00        nop     
6cac f0        ret     p

6cad f0        ret     p

6cae f0        ret     p

6caf f0        ret     p

6cb0 f0        ret     p

6cb1 f0        ret     p

6cb2 f0        ret     p

6cb3 f0        ret     p

6cb4 f0        ret     p

6cb5 f0        ret     p

6cb6 f0        ret     p

6cb7 f0        ret     p

6cb8 f0        ret     p

6cb9 f0        ret     p

6cba f0        ret     p

6cbb f0        ret     p

6cbc f0        ret     p

6cbd f0        ret     p

6cbe f0        ret     p

6cbf f0        ret     p

6cc0 00        nop     
6cc1 00        nop     
6cc2 00        nop     
6cc3 00        nop     
6cc4 00        nop     
6cc5 23        inc     hl
6cc6 00        nop     
6cc7 47        ld      b,a
6cc8 88        adc     a,b
6cc9 9e        sbc     a,(hl)
6cca 80        add     a,b
6ccb 2c        inc     l
6ccc 80        add     a,b
6ccd 3d        dec     a
6cce 80        add     a,b
6ccf 3e87      ld      a,87h
6cd1 6e        ld      l,(hl)
6cd2 ff        rst     38h
6cd3 eef0      xor     0f0h
6cd5 f1        pop     af
6cd6 00        nop     
6cd7 73        ld      (hl),e
6cd8 f0        ret     p

6cd9 f6f0      or      0f0h
6cdb f0        ret     p

6cdc 0f        rrca    
6cdd 0f        rrca    
6cde ff        rst     38h
6cdf ff        rst     38h
6ce0 f0        ret     p

6ce1 f0        ret     p

6ce2 0a        ld      a,(bc)
6ce3 0a        ld      a,(bc)
6ce4 05        dec     b
6ce5 05        dec     b
6ce6 0a        ld      a,(bc)
6ce7 0a        ld      a,(bc)
6ce8 05        dec     b
6ce9 05        dec     b
6cea 00        nop     
6ceb 00        nop     
6cec f0        ret     p

6ced f0        ret     p

6cee f0        ret     p

6cef f0        ret     p

6cf0 f0        ret     p

6cf1 f0        ret     p

6cf2 f0        ret     p

6cf3 f0        ret     p

6cf4 f0        ret     p

6cf5 f0        ret     p

6cf6 70        ld      (hl),b
6cf7 f0        ret     p

6cf8 70        ld      (hl),b
6cf9 f0        ret     p

6cfa 70        ld      (hl),b
6cfb f0        ret     p

6cfc 70        ld      (hl),b
6cfd f0        ret     p

6cfe 70        ld      (hl),b
6cff f0        ret     p

6d00 f0        ret     p

6d01 f0        ret     p

6d02 f0        ret     p

6d03 f0        ret     p

6d04 f0        ret     p

6d05 f0        ret     p

6d06 f0        ret     p

6d07 f0        ret     p

6d08 f0        ret     p

6d09 f0        ret     p

6d0a f0        ret     p

6d0b f0        ret     p

6d0c f0        ret     p

6d0d f0        ret     p

6d0e f0        ret     p

6d0f f0        ret     p

6d10 f0        ret     p

6d11 f0        ret     p

6d12 f0        ret     p

6d13 f0        ret     p

6d14 f0        ret     p

6d15 f0        ret     p

6d16 00        nop     
6d17 00        nop     
6d18 05        dec     b
6d19 05        dec     b
6d1a 0a        ld      a,(bc)
6d1b 0a        ld      a,(bc)
6d1c 05        dec     b
6d1d 05        dec     b
6d1e 0a        ld      a,(bc)
6d1f 0a        ld      a,(bc)
6d20 f0        ret     p

6d21 f0        ret     p

6d22 ff        rst     38h
6d23 ff        rst     38h
6d24 ff        rst     38h
6d25 ff        rst     38h
6d26 0f        rrca    
6d27 0f        rrca    
6d28 f0        ret     p

6d29 d3f0      out     (0f0h),a
6d2b 97        sub     a
6d2c 0f        rrca    
6d2d 49        ld      c,c
6d2e ff        rst     38h
6d2f 8d        adc     a,l
6d30 77        ld      (hl),a
6d31 15        dec     d
6d32 f7        rst     30h
6d33 37        scf     
6d34 b3        or      e
6d35 77        ld      (hl),a
6d36 fb        ei      
6d37 df        rst     18h
6d38 fb        ei      
6d39 ef        rst     28h
6d3a c8        ret     z

6d3b ff        rst     38h
6d3c ff        rst     38h
6d3d ff        rst     38h
6d3e fb        ei      
6d3f ff        rst     38h
6d40 70        ld      (hl),b
6d41 f0        ret     p

6d42 70        ld      (hl),b
6d43 f0        ret     p

6d44 70        ld      (hl),b
6d45 f0        ret     p

6d46 70        ld      (hl),b
6d47 f0        ret     p

6d48 70        ld      (hl),b
6d49 f0        ret     p

6d4a f0        ret     p

6d4b f0        ret     p

6d4c f0        ret     p

6d4d f0        ret     p

6d4e f0        ret     p

6d4f f0        ret     p

6d50 f0        ret     p

6d51 f0        ret     p

6d52 f0        ret     p

6d53 f0        ret     p

6d54 f0        ret     p

6d55 f0        ret     p

6d56 00        nop     
6d57 00        nop     
6d58 05        dec     b
6d59 05        dec     b
6d5a 0a        ld      a,(bc)
6d5b 0a        ld      a,(bc)
6d5c 05        dec     b
6d5d 05        dec     b
6d5e 0a        ld      a,(bc)
6d5f 0a        ld      a,(bc)
6d60 f0        ret     p

6d61 f0        ret     p

6d62 ff        rst     38h
6d63 ff        rst     38h
6d64 ff        rst     38h
6d65 ff        rst     38h
6d66 ed8f      db      0edh, 8fh        ; Undocumented 8 T-State NOP
6d68 dc0fee    call    c,0ee0fh
6d6b d7        rst     10h
6d6c 99        sbc     a,c
6d6d 35        dec     (hl)
6d6e 88        adc     a,b
6d6f ae        xor     (hl)
6d70 77        ld      (hl),a
6d71 eeed      xor     0edh
6d73 3edf      ld      a,0dfh
6d75 feae      cp      0aeh
6d77 7f        ld      a,a
6d78 edff      db      0edh, 0ffh       ; Undocumented 8 T-State NOP
6d7a ff        rst     38h
6d7b ff        rst     38h
6d7c ff        rst     38h
6d7d ff        rst     38h
6d7e ff        rst     38h
6d7f ff        rst     38h
6d80 f0        ret     p

6d81 f0        ret     p

6d82 f0        ret     p

6d83 f0        ret     p

6d84 f0        ret     p

6d85 f0        ret     p

6d86 f0        ret     p

6d87 f0        ret     p

6d88 f0        ret     p

6d89 f0        ret     p

6d8a f0        ret     p

6d8b f0        ret     p

6d8c f0        ret     p

6d8d f0        ret     p

6d8e f0        ret     p

6d8f f0        ret     p

6d90 f0        ret     p

6d91 f0        ret     p

6d92 f0        ret     p

6d93 f0        ret     p

6d94 f0        ret     p

6d95 f0        ret     p

6d96 00        nop     
6d97 00        nop     
6d98 05        dec     b
6d99 05        dec     b
6d9a 0a        ld      a,(bc)
6d9b 0a        ld      a,(bc)
6d9c 05        dec     b
6d9d 05        dec     b
6d9e 0a        ld      a,(bc)
6d9f 0a        ld      a,(bc)
6da0 f0        ret     p

6da1 f0        ret     p

6da2 ff        rst     38h
6da3 ff        rst     38h
6da4 ff        rst     38h
6da5 ff        rst     38h
6da6 0f        rrca    
6da7 0f        rrca    
6da8 5e        ld      e,(hl)
6da9 f1        pop     af
6daa bb        cp      e
6dab f3        di      
6dac 67        ld      h,a
6dad bb        cp      e
6dae 47        ld      b,a
6daf 6e        ld      l,(hl)
6db0 8f        adc     a,a
6db1 6e        ld      l,(hl)
6db2 57        ld      d,a
6db3 6e        ld      l,(hl)
6db4 77        ld      (hl),a
6db5 ba        cp      d
6db6 d5        push    de
6db7 d7        rst     10h
6db8 ad        xor     l
6db9 feff      cp      0ffh
6dbb ff        rst     38h
6dbc ff        rst     38h
6dbd ff        rst     38h
6dbe ff        rst     38h
6dbf ff        rst     38h
6dc0 70        ld      (hl),b
6dc1 f0        ret     p

6dc2 70        ld      (hl),b
6dc3 f0        ret     p

6dc4 70        ld      (hl),b
6dc5 f0        ret     p

6dc6 70        ld      (hl),b
6dc7 f0        ret     p

6dc8 70        ld      (hl),b
6dc9 f0        ret     p

6dca f0        ret     p

6dcb f0        ret     p

6dcc f0        ret     p

6dcd f0        ret     p

6dce f0        ret     p

6dcf f0        ret     p

6dd0 f0        ret     p

6dd1 f0        ret     p

6dd2 f0        ret     p

6dd3 f0        ret     p

6dd4 f0        ret     p

6dd5 f0        ret     p

6dd6 00        nop     
6dd7 00        nop     
6dd8 05        dec     b
6dd9 05        dec     b
6dda 0a        ld      a,(bc)
6ddb 0a        ld      a,(bc)
6ddc 05        dec     b
6ddd 05        dec     b
6dde 0a        ld      a,(bc)
6ddf 0a        ld      a,(bc)
6de0 f0        ret     p

6de1 f0        ret     p

6de2 ff        rst     38h
6de3 ff        rst     38h
6de4 ff        rst     38h
6de5 ff        rst     38h
6de6 ff        rst     38h
6de7 c3ffa9    jp      0a9ffh
6dea ff        rst     38h
6deb 5c        ld      e,h
6dec dda64c    and     (ix+4ch)
6def ef        rst     28h
6df0 ae        xor     (hl)
6df1 77        ld      (hl),a
6df2 bf        cp      a
6df3 dd77b9    ld      (ix-47h),a
6df6 e621      and     21h
6df8 ee53      xor     53h
6dfa 0f        rrca    
6dfb 3f        ccf     
6dfc ff        rst     38h
6dfd feff      cp      0ffh
6dff edda      db      0edh, 0dah       ; Undocumented 8 T-State NOP
6e01 ff        rst     38h
6e02 85        add     a,l
6e03 f7        rst     30h
6e04 85        add     a,l
6e05 f7        rst     30h
6e06 09        add     hl,bc
6e07 f7        rst     30h
6e08 08        ex      af,af'
6e09 78        ld      a,b
6e0a 08        ex      af,af'
6e0b 07        rlca    
6e0c 00        nop     
6e0d 00        nop     
6e0e 00        nop     
6e0f 00        nop     
6e10 00        nop     
6e11 00        nop     
6e12 00        nop     
6e13 00        nop     
6e14 00        nop     
6e15 00        nop     
6e16 00        nop     
6e17 00        nop     
6e18 00        nop     
6e19 00        nop     
6e1a 00        nop     
6e1b 00        nop     
6e1c 00        nop     
6e1d 00        nop     
6e1e 00        nop     
6e1f 00        nop     
6e20 00        nop     
6e21 00        nop     
6e22 00        nop     
6e23 00        nop     
6e24 00        nop     
6e25 00        nop     
6e26 00        nop     
6e27 00        nop     
6e28 00        nop     
6e29 00        nop     
6e2a 00        nop     
6e2b 00        nop     
6e2c 00        nop     
6e2d 00        nop     
6e2e 00        nop     
6e2f 00        nop     
6e30 00        nop     
6e31 00        nop     
6e32 00        nop     
6e33 00        nop     
6e34 00        nop     
6e35 00        nop     
6e36 00        nop     
6e37 00        nop     
6e38 00        nop     
6e39 00        nop     
6e3a 00        nop     
6e3b 00        nop     
6e3c 00        nop     
6e3d 00        nop     
6e3e 00        nop     
6e3f 00        nop     
6e40 ff        rst     38h
6e41 ff        rst     38h
6e42 ff        rst     38h
6e43 f7        rst     30h
6e44 fe7b      cp      7bh
6e46 ed34      db      0edh, 34h        ; Undocumented 8 T-State NOP
6e48 c2030c    jp      nz,0c03h
6e4b 00        nop     
6e4c 00        nop     
6e4d 00        nop     
6e4e 00        nop     
6e4f 00        nop     
6e50 00        nop     
6e51 00        nop     
6e52 00        nop     
6e53 00        nop     
6e54 00        nop     
6e55 00        nop     
6e56 00        nop     
6e57 00        nop     
6e58 00        nop     
6e59 00        nop     
6e5a 00        nop     
6e5b 00        nop     
6e5c 00        nop     
6e5d 00        nop     
6e5e 00        nop     
6e5f 00        nop     
6e60 00        nop     
6e61 00        nop     
6e62 00        nop     
6e63 00        nop     
6e64 00        nop     
6e65 00        nop     
6e66 00        nop     
6e67 00        nop     
6e68 00        nop     
6e69 00        nop     
6e6a 00        nop     
6e6b 00        nop     
6e6c 00        nop     
6e6d 00        nop     
6e6e 00        nop     
6e6f 00        nop     
6e70 00        nop     
6e71 00        nop     
6e72 00        nop     
6e73 00        nop     
6e74 00        nop     
6e75 00        nop     
6e76 00        nop     
6e77 00        nop     
6e78 00        nop     
6e79 00        nop     
6e7a 00        nop     
6e7b 00        nop     
6e7c 00        nop     
6e7d 00        nop     
6e7e 00        nop     
6e7f 00        nop     
6e80 ff        rst     38h
6e81 ff        rst     38h
6e82 fdff      rst     38h
6e84 daff85    jp      c,85ffh
6e87 f7        rst     30h
6e88 08        ex      af,af'
6e89 78        ld      a,b
6e8a 00        nop     
6e8b 07        rlca    
6e8c 00        nop     
6e8d 00        nop     
6e8e 00        nop     
6e8f 00        nop     
6e90 00        nop     
6e91 00        nop     
6e92 00        nop     
6e93 00        nop     
6e94 00        nop     
6e95 00        nop     
6e96 00        nop     
6e97 00        nop     
6e98 00        nop     
6e99 00        nop     
6e9a 00        nop     
6e9b 00        nop     
6e9c 00        nop     
6e9d 00        nop     
6e9e 00        nop     
6e9f 00        nop     
6ea0 00        nop     
6ea1 00        nop     
6ea2 00        nop     
6ea3 00        nop     
6ea4 00        nop     
6ea5 00        nop     
6ea6 00        nop     
6ea7 00        nop     
6ea8 00        nop     
6ea9 00        nop     
6eaa 00        nop     
6eab 00        nop     
6eac 00        nop     
6ead 00        nop     
6eae 00        nop     
6eaf 00        nop     
6eb0 00        nop     
6eb1 00        nop     
6eb2 00        nop     
6eb3 00        nop     
6eb4 00        nop     
6eb5 00        nop     
6eb6 00        nop     
6eb7 00        nop     
6eb8 00        nop     
6eb9 00        nop     
6eba 00        nop     
6ebb 00        nop     
6ebc 00        nop     
6ebd 00        nop     
6ebe 00        nop     
6ebf 00        nop     
6ec0 ff        rst     38h
6ec1 caff84    jp      z,84ffh
6ec4 fe08      cp      08h
6ec6 ed00      db      0edh, 00h        ; Undocumented 8 T-State NOP
6ec8 c2000c    jp      nz,0c00h
6ecb 00        nop     
6ecc 00        nop     
6ecd 00        nop     
6ece 00        nop     
6ecf 00        nop     
6ed0 00        nop     
6ed1 00        nop     
6ed2 00        nop     
6ed3 00        nop     
6ed4 00        nop     
6ed5 00        nop     
6ed6 00        nop     
6ed7 00        nop     
6ed8 00        nop     
6ed9 00        nop     
6eda 00        nop     
6edb 00        nop     
6edc 00        nop     
6edd 00        nop     
6ede 00        nop     
6edf 00        nop     
6ee0 00        nop     
6ee1 00        nop     
6ee2 00        nop     
6ee3 00        nop     
6ee4 00        nop     
6ee5 00        nop     
6ee6 00        nop     
6ee7 00        nop     
6ee8 00        nop     
6ee9 00        nop     
6eea 00        nop     
6eeb 00        nop     
6eec 00        nop     
6eed 00        nop     
6eee 00        nop     
6eef 00        nop     
6ef0 00        nop     
6ef1 00        nop     
6ef2 00        nop     
6ef3 00        nop     
6ef4 00        nop     
6ef5 00        nop     
6ef6 00        nop     
6ef7 00        nop     
6ef8 00        nop     
6ef9 00        nop     
6efa 00        nop     
6efb 00        nop     
6efc 00        nop     
6efd 00        nop     
6efe 00        nop     
6eff 00        nop     
6f00 00        nop     
6f01 00        nop     
6f02 00        nop     
6f03 00        nop     
6f04 00        nop     
6f05 02        ld      (bc),a
6f06 00        nop     
6f07 2000      jr      nz,6f09h
6f09 2000      jr      nz,6f0bh
6f0b 24        inc     h
6f0c 00        nop     
6f0d 3800      jr      c,6f0fh
6f0f f8        ret     m

6f10 00        nop     
6f11 f8        ret     m

6f12 00        nop     
6f13 fc2e21    call    m,212eh
6f16 1f        rra     
6f17 ad        xor     l
6f18 b7        or      a
6f19 78        ld      a,b
6f1a 6f        ld      l,a
6f1b 02        ld      (bc),a
6f1c df        rst     18h
6f1d ff        rst     38h
6f1e ff        rst     38h
6f1f ff        rst     38h
6f20 78        ld      a,b
6f21 f0        ret     p

6f22 8a        adc     a,d
6f23 0a        ld      a,(bc)
6f24 0d        dec     c
6f25 05        dec     b
6f26 82        add     a,d
6f27 0a        ld      a,(bc)
6f28 05        dec     b
6f29 05        dec     b
6f2a 00        nop     
6f2b 00        nop     
6f2c f0        ret     p

6f2d f0        ret     p

6f2e e0        ret     po

6f2f 71        ld      (hl),c
6f30 f1        pop     af
6f31 faf1fe    jp      m,0fef1h
6f34 f1        pop     af
6f35 ff        rst     38h
6f36 f1        pop     af
6f37 fcf1f8    call    m,0f8f1h
6f3a e0        ret     po

6f3b 70        ld      (hl),b
6f3c f0        ret     p

6f3d f0        ret     p

6f3e f0        ret     p

6f3f f0        ret     p

6f40 00        nop     
6f41 00        nop     
6f42 00        nop     
6f43 00        nop     
6f44 00        nop     
6f45 00        nop     
6f46 00        nop     
6f47 00        nop     
6f48 00        nop     
6f49 00        nop     
6f4a 00        nop     
6f4b 00        nop     
6f4c 00        nop     
6f4d 00        nop     
6f4e 00        nop     
6f4f 00        nop     
6f50 00        nop     
6f51 00        nop     
6f52 00        nop     
6f53 00        nop     
6f54 0f        rrca    
6f55 08        ex      af,af'
6f56 0f        rrca    
6f57 08        ex      af,af'
6f58 e1        pop     hl
6f59 08        ex      af,af'
6f5a 0108ef    ld      bc,0ef08h
6f5d 88        adc     a,b
6f5e ff        rst     38h
6f5f 00        nop     
6f60 f0        ret     p

6f61 f0        ret     p

6f62 0a        ld      a,(bc)
6f63 0a        ld      a,(bc)
6f64 05        dec     b
6f65 05        dec     b
6f66 0a        ld      a,(bc)
6f67 0a        ld      a,(bc)
6f68 05        dec     b
6f69 05        dec     b
6f6a 00        nop     
6f6b 00        nop     
6f6c f0        ret     p

6f6d f0        ret     p

6f6e f8        ret     m

6f6f f0        ret     p

6f70 f0        ret     p

6f71 f0        ret     p

6f72 f0        ret     p

6f73 f0        ret     p

6f74 f8        ret     m

6f75 f0        ret     p

6f76 f0        ret     p

6f77 f0        ret     p

6f78 f0        ret     p

6f79 f0        ret     p

6f7a f0        ret     p

6f7b f0        ret     p

6f7c f0        ret     p

6f7d f0        ret     p

6f7e f0        ret     p

6f7f f0        ret     p

6f80 00        nop     
6f81 00        nop     
6f82 00        nop     
6f83 00        nop     
6f84 00        nop     
6f85 00        nop     
6f86 00        nop     
6f87 00        nop     
6f88 00        nop     
6f89 bc        cp      h
6f8a 110f23    ld      de,230fh
6f8d 78        ld      a,b
6f8e 03        inc     bc
6f8f 80        add     a,b
6f90 03        inc     bc
6f91 80        add     a,b
6f92 03        inc     bc
6f93 81        add     a,c
6f94 03        inc     bc
6f95 a0        and     b
6f96 03        inc     bc
6f97 a0        and     b
6f98 03        inc     bc
6f99 90        sub     b
6f9a 03        inc     bc
6f9b 80        add     a,b
6f9c 23        inc     hl
6f9d 48        ld      c,b
6f9e 112cf0    ld      de,0f02ch
6fa1 f0        ret     p

6fa2 0a        ld      a,(bc)
6fa3 0a        ld      a,(bc)
6fa4 05        dec     b
6fa5 05        dec     b
6fa6 0a        ld      a,(bc)
6fa7 0a        ld      a,(bc)
6fa8 05        dec     b
6fa9 05        dec     b
6faa 00        nop     
6fab 00        nop     
6fac f0        ret     p

6fad f0        ret     p

6fae f0        ret     p

6faf f0        ret     p

6fb0 f0        ret     p

6fb1 f0        ret     p

6fb2 f0        ret     p

6fb3 f0        ret     p

6fb4 f0        ret     p

6fb5 f0        ret     p

6fb6 f0        ret     p

6fb7 f0        ret     p

6fb8 f0        ret     p

6fb9 f0        ret     p

6fba f0        ret     p

6fbb f0        ret     p

6fbc f0        ret     p

6fbd f0        ret     p

6fbe f0        ret     p

6fbf f0        ret     p

6fc0 00        nop     
6fc1 00        nop     
6fc2 00        nop     
6fc3 00        nop     
6fc4 00        nop     
6fc5 00        nop     
6fc6 00        nop     
6fc7 00        nop     
6fc8 f0        ret     p

6fc9 c47fea    call    nz,0ea7fh
6fcc c37d10    jp      107dh
6fcf b6        or      (hl)
6fd0 c0        ret     nz

6fd1 b6        or      (hl)
6fd2 ccb644    call    z,44b6h
6fd5 b6        or      (hl)
6fd6 40        ld      b,b
6fd7 b6        or      (hl)
6fd8 c0        ret     nz

6fd9 b6        or      (hl)
6fda 00        nop     
6fdb b6        or      (hl)
6fdc 106c      djnz    704ah
6fde 21faf0    ld      hl,0f0fah
6fe1 f0        ret     p

6fe2 0a        ld      a,(bc)
6fe3 0a        ld      a,(bc)
6fe4 05        dec     b
6fe5 05        dec     b
6fe6 0a        ld      a,(bc)
6fe7 0a        ld      a,(bc)
6fe8 05        dec     b
6fe9 05        dec     b
6fea 00        nop     
6feb 00        nop     
6fec f0        ret     p

6fed f0        ret     p

6fee f0        ret     p

6fef f0        ret     p

6ff0 f0        ret     p

6ff1 f0        ret     p

6ff2 f0        ret     p

6ff3 f0        ret     p

6ff4 f0        ret     p

6ff5 70        ld      (hl),b
6ff6 f0        ret     p

6ff7 70        ld      (hl),b
6ff8 f0        ret     p

6ff9 70        ld      (hl),b
6ffa f0        ret     p

6ffb 70        ld      (hl),b
6ffc f0        ret     p

6ffd 70        ld      (hl),b
6ffe f0        ret     p

6fff 70        ld      (hl),b
7000 f0        ret     p

7001 f0        ret     p

7002 f0        ret     p

7003 f0        ret     p

7004 f0        ret     p

7005 f0        ret     p

7006 f0        ret     p

7007 f0        ret     p

7008 f0        ret     p

7009 f0        ret     p

700a f0        ret     p

700b f0        ret     p

700c f0        ret     p

700d f0        ret     p

700e f0        ret     p

700f f0        ret     p

7010 f0        ret     p

7011 f0        ret     p

7012 f0        ret     p

7013 f0        ret     p

7014 f0        ret     p

7015 f0        ret     p

7016 00        nop     
7017 00        nop     
7018 05        dec     b
7019 05        dec     b
701a 0a        ld      a,(bc)
701b 0a        ld      a,(bc)
701c 05        dec     b
701d 05        dec     b
701e 0a        ld      a,(bc)
701f 0a        ld      a,(bc)
7020 f0        ret     p

7021 f0        ret     p

7022 ff        rst     38h
7023 bb        cp      e
7024 7f        ld      a,a
7025 bb        cp      e
7026 7f        ld      a,a
7027 eb        ex      de,hl
7028 ff        rst     38h
7029 caffdb    jp      z,0dbffh
702c ff        rst     38h
702d caf0ca    jp      z,0caf0h
7030 1eca      ld      e,0cah
7032 01d201    ld      bc,01d2h
7035 d7        rst     10h
7036 01f701    ld      bc,01f7h
7039 e601      and     01h
703b f7        rst     30h
703c 01f701    ld      bc,01f7h
703f f7        rst     30h
7040 70        ld      (hl),b
7041 f0        ret     p

7042 70        ld      (hl),b
7043 f0        ret     p

7044 70        ld      (hl),b
7045 f0        ret     p

7046 70        ld      (hl),b
7047 f0        ret     p

7048 70        ld      (hl),b
7049 f0        ret     p

704a f0        ret     p

704b f0        ret     p

704c f0        ret     p

704d f0        ret     p

704e f0        ret     p

704f f0        ret     p

7050 f0        ret     p

7051 f0        ret     p

7052 f0        ret     p

7053 f0        ret     p

7054 f0        ret     p

7055 f0        ret     p

7056 00        nop     
7057 00        nop     
7058 05        dec     b
7059 05        dec     b
705a 0a        ld      a,(bc)
705b 0a        ld      a,(bc)
705c 05        dec     b
705d 05        dec     b
705e 0a        ld      a,(bc)
705f 0a        ld      a,(bc)
7060 f0        ret     p

7061 f0        ret     p

7062 ff        rst     38h
7063 ff        rst     38h
7064 0c        inc     c
7065 87        add     a,a
7066 77        ld      (hl),a
7067 43        ld      b,e
7068 ef        rst     28h
7069 b8        cp      b
706a ff        rst     38h
706b 0f        rrca    
706c 4c        ld      c,h
706d ff        rst     38h
706e 6e        ld      l,(hl)
706f ff        rst     38h
7070 5d        ld      e,l
7071 ff        rst     38h
7072 feab      cp      0abh
7074 56        ld      d,(hl)
7075 7d        ld      a,l
7076 0f        rrca    
7077 b9        cp      c
7078 1f        rra     
7079 73        ld      (hl),e
707a 00        nop     
707b f7        rst     30h
707c ff        rst     38h
707d ff        rst     38h
707e ff        rst     38h
707f ff        rst     38h
7080 f0        ret     p

7081 f0        ret     p

7082 f0        ret     p

7083 f0        ret     p

7084 f0        ret     p

7085 f0        ret     p

7086 f0        ret     p

7087 f0        ret     p

7088 f0        ret     p

7089 f0        ret     p

708a f0        ret     p

708b f0        ret     p

708c f0        ret     p

708d f0        ret     p

708e f0        ret     p

708f f0        ret     p

7090 f0        ret     p

7091 f0        ret     p

7092 f0        ret     p

7093 f0        ret     p

7094 f0        ret     p

7095 f0        ret     p

7096 00        nop     
7097 00        nop     
7098 05        dec     b
7099 05        dec     b
709a 0a        ld      a,(bc)
709b 0a        ld      a,(bc)
709c 05        dec     b
709d 05        dec     b
709e 0a        ld      a,(bc)
709f 0a        ld      a,(bc)
70a0 f0        ret     p

70a1 f0        ret     p

70a2 ff        rst     38h
70a3 ff        rst     38h
70a4 ff        rst     38h
70a5 ff        rst     38h
70a6 0f        rrca    
70a7 1f        rra     
70a8 f0        ret     p

70a9 e3        ex      (sp),hl
70aa f0        ret     p

70ab f60f      or      0fh
70ad 3f        ccf     
70ae ff        rst     38h
70af 9f        sbc     a,a
70b0 77        ld      (hl),a
70b1 27        daa     
70b2 f7        rst     30h
70b3 51        ld      d,c
70b4 b3        or      e
70b5 44        ld      b,h
70b6 fb        ei      
70b7 fcfbef    call    m,0effbh
70ba c8        ret     z

70bb ff        rst     38h
70bc ff        rst     38h
70bd ff        rst     38h
70be fdff      rst     38h
70c0 70        ld      (hl),b
70c1 f0        ret     p

70c2 70        ld      (hl),b
70c3 f0        ret     p

70c4 70        ld      (hl),b
70c5 f0        ret     p

70c6 70        ld      (hl),b
70c7 f0        ret     p

70c8 70        ld      (hl),b
70c9 f0        ret     p

70ca f0        ret     p

70cb f0        ret     p

70cc f0        ret     p

70cd f0        ret     p

70ce f0        ret     p

70cf f0        ret     p

70d0 f0        ret     p

70d1 f0        ret     p

70d2 f0        ret     p

70d3 f0        ret     p

70d4 f0        ret     p

70d5 f0        ret     p

70d6 00        nop     
70d7 00        nop     
70d8 05        dec     b
70d9 05        dec     b
70da 0a        ld      a,(bc)
70db 0a        ld      a,(bc)
70dc 05        dec     b
70dd 05        dec     b
70de 0a        ld      a,(bc)
70df 0a        ld      a,(bc)
70e0 f0        ret     p

70e1 f0        ret     p

70e2 ff        rst     38h
70e3 ff        rst     38h
70e4 ff        rst     38h
70e5 ff        rst     38h
70e6 2f        cpl     
70e7 8f        adc     a,a
70e8 a3        and     e
70e9 47        ld      b,a
70ea 23        inc     hl
70eb df        rst     18h
70ec 57        ld      d,a
70ed ff        rst     38h
70ee ff        rst     38h
70ef ae        xor     (hl)
70f0 99        sbc     a,c
70f1 a6        and     (hl)
70f2 5d        ld      e,l
70f3 74        ld      (hl),h
70f4 ff        rst     38h
70f5 a9        xor     c
70f6 6e        ld      l,(hl)
70f7 9b        sbc     a,e
70f8 77        ld      (hl),a
70f9 73        ld      (hl),e
70fa 33        inc     sp
70fb 7f        ld      a,a
70fc ff        rst     38h
70fd ff        rst     38h
70fe ff        rst     38h
70ff ff        rst     38h
7100 01f701    ld      bc,01f7h
7103 f7        rst     30h
7104 01f701    ld      bc,01f7h
7107 f7        rst     30h
7108 00        nop     
7109 78        ld      a,b
710a 00        nop     
710b 07        rlca    
710c 00        nop     
710d 00        nop     
710e 00        nop     
710f 00        nop     
7110 00        nop     
7111 00        nop     
7112 00        nop     
7113 00        nop     
7114 00        nop     
7115 00        nop     
7116 00        nop     
7117 00        nop     
7118 00        nop     
7119 00        nop     
711a 00        nop     
711b 00        nop     
711c 00        nop     
711d 00        nop     
711e 00        nop     
711f 00        nop     
7120 00        nop     
7121 00        nop     
7122 00        nop     
7123 00        nop     
7124 00        nop     
7125 00        nop     
7126 00        nop     
7127 00        nop     
7128 00        nop     
7129 00        nop     
712a 00        nop     
712b 00        nop     
712c 00        nop     
712d 00        nop     
712e 00        nop     
712f 00        nop     
7130 00        nop     
7131 00        nop     
7132 00        nop     
7133 00        nop     
7134 00        nop     
7135 00        nop     
7136 00        nop     
7137 00        nop     
7138 00        nop     
7139 00        nop     
713a 00        nop     
713b 00        nop     
713c 00        nop     
713d 00        nop     
713e 00        nop     
713f 00        nop     
7140 ff        rst     38h
7141 ff        rst     38h
7142 ff        rst     38h
7143 f7        rst     30h
7144 fe7b      cp      7bh
7146 ed34      db      0edh, 34h        ; Undocumented 8 T-State NOP
7148 c2030c    jp      nz,0c03h
714b 00        nop     
714c 00        nop     
714d 00        nop     
714e 00        nop     
714f 00        nop     
7150 00        nop     
7151 00        nop     
7152 00        nop     
7153 00        nop     
7154 00        nop     
7155 00        nop     
7156 00        nop     
7157 00        nop     
7158 00        nop     
7159 00        nop     
715a 00        nop     
715b 00        nop     
715c 00        nop     
715d 00        nop     
715e 00        nop     
715f 00        nop     
7160 00        nop     
7161 00        nop     
7162 00        nop     
7163 00        nop     
7164 00        nop     
7165 00        nop     
7166 00        nop     
7167 00        nop     
7168 00        nop     
7169 00        nop     
716a 00        nop     
716b 00        nop     
716c 00        nop     
716d 00        nop     
716e 00        nop     
716f 00        nop     
7170 00        nop     
7171 00        nop     
7172 00        nop     
7173 00        nop     
7174 00        nop     
7175 00        nop     
7176 00        nop     
7177 00        nop     
7178 00        nop     
7179 00        nop     
717a 00        nop     
717b 00        nop     
717c 00        nop     
717d 00        nop     
717e 00        nop     
717f 00        nop     
7180 daff85    jp      c,85ffh
7183 f7        rst     30h
7184 85        add     a,l
7185 f7        rst     30h
7186 09        add     hl,bc
7187 f7        rst     30h
7188 08        ex      af,af'
7189 78        ld      a,b
718a 00        nop     
718b 07        rlca    
718c 00        nop     
718d 00        nop     
718e 00        nop     
718f 00        nop     
7190 00        nop     
7191 00        nop     
7192 00        nop     
7193 00        nop     
7194 00        nop     
7195 00        nop     
7196 00        nop     
7197 00        nop     
7198 00        nop     
7199 00        nop     
719a 00        nop     
719b 00        nop     
719c 00        nop     
719d 00        nop     
719e 00        nop     
719f 00        nop     
71a0 00        nop     
71a1 00        nop     
71a2 00        nop     
71a3 00        nop     
71a4 00        nop     
71a5 00        nop     
71a6 00        nop     
71a7 00        nop     
71a8 00        nop     
71a9 00        nop     
71aa 00        nop     
71ab 00        nop     
71ac 00        nop     
71ad 00        nop     
71ae 00        nop     
71af 00        nop     
71b0 00        nop     
71b1 00        nop     
71b2 00        nop     
71b3 00        nop     
71b4 00        nop     
71b5 00        nop     
71b6 00        nop     
71b7 00        nop     
71b8 00        nop     
71b9 00        nop     
71ba 00        nop     
71bb 00        nop     
71bc 00        nop     
71bd 00        nop     
71be 00        nop     
71bf 00        nop     
71c0 ff        rst     38h
71c1 ff        rst     38h
71c2 ff        rst     38h
71c3 f7        rst     30h
71c4 fe7b      cp      7bh
71c6 ed34      db      0edh, 34h        ; Undocumented 8 T-State NOP
71c8 c2030c    jp      nz,0c03h
71cb 00        nop     
71cc 00        nop     
71cd 00        nop     
71ce 00        nop     
71cf 00        nop     
71d0 00        nop     
71d1 00        nop     
71d2 00        nop     
71d3 00        nop     
71d4 00        nop     
71d5 00        nop     
71d6 00        nop     
71d7 00        nop     
71d8 00        nop     
71d9 00        nop     
71da 00        nop     
71db 00        nop     
71dc 00        nop     
71dd 00        nop     
71de 00        nop     
71df 00        nop     
71e0 00        nop     
71e1 00        nop     
71e2 00        nop     
71e3 00        nop     
71e4 00        nop     
71e5 00        nop     
71e6 00        nop     
71e7 00        nop     
71e8 00        nop     
71e9 00        nop     
71ea 00        nop     
71eb 00        nop     
71ec 00        nop     
71ed 00        nop     
71ee 00        nop     
71ef 00        nop     
71f0 00        nop     
71f1 00        nop     
71f2 00        nop     
71f3 00        nop     
71f4 00        nop     
71f5 00        nop     
71f6 00        nop     
71f7 00        nop     
71f8 00        nop     
71f9 00        nop     
71fa 00        nop     
71fb 00        nop     
71fc 00        nop     
71fd 00        nop     
71fe 00        nop     
71ff 00        nop     
7200 00        nop     
7201 00        nop     
7202 00        nop     
7203 00        nop     
7204 00        nop     
7205 00        nop     
7206 00        nop     
7207 00        nop     
7208 00        nop     
7209 00        nop     
720a 00        nop     
720b 00        nop     
720c 00        nop     
720d 00        nop     
720e 00        nop     
720f 00        nop     
7210 00        nop     
7211 00        nop     
7212 00        nop     
7213 00        nop     
7214 00        nop     
7215 07        rlca    
7216 00        nop     
7217 34        inc     (hl)
7218 00        nop     
7219 24        inc     h
721a 00        nop     
721b 24        inc     h
721c 00        nop     
721d 65        ld      h,l
721e 00        nop     
721f 77        ld      (hl),a
7220 f0        ret     p

7221 f0        ret     p

7222 0a        ld      a,(bc)
7223 0a        ld      a,(bc)
7224 05        dec     b
7225 05        dec     b
7226 0a        ld      a,(bc)
7227 0a        ld      a,(bc)
7228 05        dec     b
7229 05        dec     b
722a 0a        ld      a,(bc)
722b 0a        ld      a,(bc)
722c 05        dec     b
722d 05        dec     b
722e 0a        ld      a,(bc)
722f 0a        ld      a,(bc)
7230 00        nop     
7231 00        nop     
7232 0f        rrca    
7233 0f        rrca    
7234 f0        ret     p

7235 f0        ret     p

7236 f0        ret     p

7237 f0        ret     p

7238 f0        ret     p

7239 f0        ret     p

723a f0        ret     p

723b f0        ret     p

723c f0        ret     p

723d f0        ret     p

723e f0        ret     p

723f f0        ret     p

7240 00        nop     
7241 00        nop     
7242 00        nop     
7243 00        nop     
7244 00        nop     
7245 00        nop     
7246 00        nop     
7247 00        nop     
7248 00        nop     
7249 00        nop     
724a 00        nop     
724b 00        nop     
724c 00        nop     
724d 00        nop     
724e 00        nop     
724f 00        nop     
7250 00        nop     
7251 00        nop     
7252 00        nop     
7253 00        nop     
7254 0f        rrca    
7255 0f        rrca    
7256 f0        ret     p

7257 f0        ret     p

7258 00        nop     
7259 1000      djnz    725bh
725b 00        nop     
725c 0f        rrca    
725d 0f        rrca    
725e ff        rst     38h
725f ff        rst     38h
7260 f0        ret     p

7261 f0        ret     p

7262 0a        ld      a,(bc)
7263 0a        ld      a,(bc)
7264 05        dec     b
7265 05        dec     b
7266 0a        ld      a,(bc)
7267 0a        ld      a,(bc)
7268 05        dec     b
7269 05        dec     b
726a 0a        ld      a,(bc)
726b 0a        ld      a,(bc)
726c 05        dec     b
726d 05        dec     b
726e 0a        ld      a,(bc)
726f 0a        ld      a,(bc)
7270 00        nop     
7271 00        nop     
7272 0f        rrca    
7273 0f        rrca    
7274 f0        ret     p

7275 f0        ret     p

7276 f0        ret     p

7277 f0        ret     p

7278 f0        ret     p

7279 f0        ret     p

727a f0        ret     p

727b f0        ret     p

727c f0        ret     p

727d f0        ret     p

727e f0        ret     p

727f f0        ret     p

7280 00        nop     
7281 00        nop     
7282 00        nop     
7283 00        nop     
7284 00        nop     
7285 00        nop     
7286 00        nop     
7287 00        nop     
7288 00        nop     
7289 00        nop     
728a 00        nop     
728b 00        nop     
728c 00        nop     
728d 00        nop     
728e 00        nop     
728f 00        nop     
7290 00        nop     
7291 00        nop     
7292 00        nop     
7293 00        nop     
7294 0f        rrca    
7295 0f        rrca    
7296 f0        ret     p

7297 f0        ret     p

7298 00        nop     
7299 00        nop     
729a 00        nop     
729b 00        nop     
729c 0f        rrca    
729d 0f        rrca    
729e ff        rst     38h
729f ff        rst     38h
72a0 f0        ret     p

72a1 f0        ret     p

72a2 0a        ld      a,(bc)
72a3 0a        ld      a,(bc)
72a4 05        dec     b
72a5 05        dec     b
72a6 0a        ld      a,(bc)
72a7 0a        ld      a,(bc)
72a8 05        dec     b
72a9 05        dec     b
72aa 0a        ld      a,(bc)
72ab 0a        ld      a,(bc)
72ac 05        dec     b
72ad 05        dec     b
72ae 0a        ld      a,(bc)
72af 0a        ld      a,(bc)
72b0 00        nop     
72b1 00        nop     
72b2 0f        rrca    
72b3 0f        rrca    
72b4 f0        ret     p

72b5 f0        ret     p

72b6 f0        ret     p

72b7 f0        ret     p

72b8 f0        ret     p

72b9 f0        ret     p

72ba f0        ret     p

72bb f0        ret     p

72bc f0        ret     p

72bd f0        ret     p

72be f0        ret     p

72bf f0        ret     p

72c0 00        nop     
72c1 00        nop     
72c2 00        nop     
72c3 00        nop     
72c4 00        nop     
72c5 00        nop     
72c6 00        nop     
72c7 00        nop     
72c8 00        nop     
72c9 00        nop     
72ca 00        nop     
72cb 00        nop     
72cc 00        nop     
72cd 00        nop     
72ce 00        nop     
72cf 00        nop     
72d0 00        nop     
72d1 00        nop     
72d2 00        nop     
72d3 00        nop     
72d4 0f        rrca    
72d5 0f        rrca    
72d6 f0        ret     p

72d7 f0        ret     p

72d8 00        nop     
72d9 02        ld      (bc),a
72da 00        nop     
72db 320f2f    ld      (2f0fh),a
72de ff        rst     38h
72df ff        rst     38h
72e0 f0        ret     p

72e1 7f        ld      a,a
72e2 0a        ld      a,(bc)
72e3 3f        ccf     
72e4 05        dec     b
72e5 a7        and     a
72e6 0a        ld      a,(bc)
72e7 7a        ld      a,d
72e8 05        dec     b
72e9 27        daa     
72ea 0a        ld      a,(bc)
72eb 5a        ld      e,d
72ec 05        dec     b
72ed 07        rlca    
72ee 0a        ld      a,(bc)
72ef 0b        dec     bc
72f0 00        nop     
72f1 010f0f    ld      bc,0f0fh
72f4 f0        ret     p

72f5 f0        ret     p

72f6 f0        ret     p

72f7 f0        ret     p

72f8 f0        ret     p

72f9 f0        ret     p

72fa f0        ret     p

72fb f0        ret     p

72fc f0        ret     p

72fd f0        ret     p

72fe f0        ret     p

72ff f0        ret     p

7300 0f        rrca    
7301 0f        rrca    
7302 0f        rrca    
7303 0f        rrca    
7304 f0        ret     p

7305 f0        ret     p

7306 f0        ret     p

7307 f0        ret     p

7308 f0        ret     p

7309 f0        ret     p

730a f0        ret     p

730b f0        ret     p

730c f0        ret     p

730d f0        ret     p

730e f0        ret     p

730f f0        ret     p

7310 f0        ret     p

7311 f0        ret     p

7312 f0        ret     p

7313 f0        ret     p

7314 f0        ret     p

7315 f0        ret     p

7316 f0        ret     p

7317 f0        ret     p

7318 f0        ret     p

7319 f0        ret     p

731a f0        ret     p

731b f0        ret     p

731c f0        ret     p

731d f0        ret     p

731e 0f        rrca    
731f 0f        rrca    
7320 0f        rrca    
7321 0f        rrca    
7322 0f        rrca    
7323 0f        rrca    
7324 f0        ret     p

7325 f0        ret     p

7326 f0        ret     p

7327 f0        ret     p

7328 f0        ret     p

7329 f0        ret     p

732a f0        ret     p

732b f0        ret     p

732c f0        ret     p

732d f0        ret     p

732e f0        ret     p

732f f0        ret     p

7330 f0        ret     p

7331 f0        ret     p

7332 f0        ret     p

7333 f0        ret     p

7334 f0        ret     p

7335 f0        ret     p

7336 f0        ret     p

7337 f0        ret     p

7338 f0        ret     p

7339 f0        ret     p

733a f0        ret     p

733b f0        ret     p

733c 0f        rrca    
733d 0f        rrca    
733e 0f        rrca    
733f 0f        rrca    
7340 0f        rrca    
7341 0f        rrca    
7342 0f        rrca    
7343 0f        rrca    
7344 f0        ret     p

7345 f0        ret     p

7346 f0        ret     p

7347 f0        ret     p

7348 f0        ret     p

7349 f0        ret     p

734a f0        ret     p

734b f0        ret     p

734c f0        ret     p

734d f0        ret     p

734e f0        ret     p

734f f0        ret     p

7350 f0        ret     p

7351 f0        ret     p

7352 f0        ret     p

7353 f0        ret     p

7354 f0        ret     p

7355 f0        ret     p

7356 f0        ret     p

7357 f0        ret     p

7358 f0        ret     p

7359 f0        ret     p

735a f0        ret     p

735b f0        ret     p

735c f0        ret     p

735d f0        ret     p

735e 0f        rrca    
735f 0f        rrca    
7360 0f        rrca    
7361 0f        rrca    
7362 0f        rrca    
7363 0f        rrca    
7364 f0        ret     p

7365 f0        ret     p

7366 f0        ret     p

7367 f0        ret     p

7368 f0        ret     p

7369 f0        ret     p

736a f0        ret     p

736b f0        ret     p

736c f0        ret     p

736d f0        ret     p

736e f0        ret     p

736f f0        ret     p

7370 f0        ret     p

7371 f0        ret     p

7372 f0        ret     p

7373 f0        ret     p

7374 f0        ret     p

7375 f0        ret     p

7376 f0        ret     p

7377 f0        ret     p

7378 f0        ret     p

7379 f0        ret     p

737a f0        ret     p

737b f0        ret     p

737c 0f        rrca    
737d 0f        rrca    
737e 0f        rrca    
737f 0f        rrca    
7380 f0        ret     p

7381 f0        ret     p

7382 f0        ret     p

7383 f0        ret     p

7384 f0        ret     p

7385 f0        ret     p

7386 f0        ret     p

7387 f0        ret     p

7388 f0        ret     p

7389 f0        ret     p

738a f0        ret     p

738b f0        ret     p

738c f0        ret     p

738d f0        ret     p

738e f0        ret     p

738f f0        ret     p

7390 f0        ret     p

7391 f0        ret     p

7392 f0        ret     p

7393 f0        ret     p

7394 f0        ret     p

7395 f0        ret     p

7396 f0        ret     p

7397 f0        ret     p

7398 f0        ret     p

7399 f0        ret     p

739a f0        ret     p

739b f0        ret     p

739c f0        ret     p

739d f0        ret     p

739e 0f        rrca    
739f 0f        rrca    
73a0 0f        rrca    
73a1 0f        rrca    
73a2 0f        rrca    
73a3 0f        rrca    
73a4 f0        ret     p

73a5 f0        ret     p

73a6 f0        ret     p

73a7 f0        ret     p

73a8 f0        ret     p

73a9 f0        ret     p

73aa f0        ret     p

73ab f0        ret     p

73ac f0        ret     p

73ad f0        ret     p

73ae f0        ret     p

73af f0        ret     p

73b0 f0        ret     p

73b1 f0        ret     p

73b2 f0        ret     p

73b3 f0        ret     p

73b4 f0        ret     p

73b5 f0        ret     p

73b6 f0        ret     p

73b7 f0        ret     p

73b8 f0        ret     p

73b9 f0        ret     p

73ba f0        ret     p

73bb f0        ret     p

73bc f0        ret     p

73bd f0        ret     p

73be f0        ret     p

73bf f0        ret     p

73c0 0f        rrca    
73c1 0f        rrca    
73c2 0f        rrca    
73c3 0f        rrca    
73c4 f0        ret     p

73c5 f0        ret     p

73c6 f0        ret     p

73c7 f0        ret     p

73c8 f0        ret     p

73c9 f0        ret     p

73ca f0        ret     p

73cb f0        ret     p

73cc f0        ret     p

73cd f0        ret     p

73ce f0        ret     p

73cf f0        ret     p

73d0 f0        ret     p

73d1 f0        ret     p

73d2 f0        ret     p

73d3 f0        ret     p

73d4 f0        ret     p

73d5 f0        ret     p

73d6 f0        ret     p

73d7 f0        ret     p

73d8 f0        ret     p

73d9 f0        ret     p

73da f0        ret     p

73db f0        ret     p

73dc f0        ret     p

73dd f0        ret     p

73de 0f        rrca    
73df 0f        rrca    
73e0 0f        rrca    
73e1 0f        rrca    
73e2 0f        rrca    
73e3 0f        rrca    
73e4 f0        ret     p

73e5 f0        ret     p

73e6 f0        ret     p

73e7 f0        ret     p

73e8 f0        ret     p

73e9 f0        ret     p

73ea f0        ret     p

73eb f0        ret     p

73ec f0        ret     p

73ed f0        ret     p

73ee f0        ret     p

73ef f0        ret     p

73f0 f0        ret     p

73f1 f0        ret     p

73f2 f0        ret     p

73f3 f0        ret     p

73f4 f0        ret     p

73f5 f0        ret     p

73f6 f0        ret     p

73f7 f0        ret     p

73f8 f0        ret     p

73f9 f0        ret     p

73fa f0        ret     p

73fb f0        ret     p

73fc 0f        rrca    
73fd 0f        rrca    
73fe 0f        rrca    
73ff 0f        rrca    
7400 7b        ld      a,e
7401 b8        cp      b
7402 5b        ld      e,e
7403 cc4bee    call    z,0ee4bh
7406 69        ld      l,c
7407 7f        ld      a,a
7408 69        ld      l,c
7409 2e78      ld      l,78h
740b 6e        ld      l,(hl)
740c 78        ld      a,b
740d 6e        ld      l,(hl)
740e 78        ld      a,b
740f 4d        ld      c,l
7410 7b        ld      a,e
7411 ff        rst     38h
7412 7b        ld      a,e
7413 ff        rst     38h
7414 78        ld      a,b
7415 f0        ret     p

7416 00        nop     
7417 00        nop     
7418 05        dec     b
7419 05        dec     b
741a 0a        ld      a,(bc)
741b 0a        ld      a,(bc)
741c 05        dec     b
741d 05        dec     b
741e 0a        ld      a,(bc)
741f 0a        ld      a,(bc)
7420 f0        ret     p

7421 f0        ret     p

7422 fb        ei      
7423 11ea1f    ld      de,1feah
7426 89        adc     a,c
7427 e1        pop     hl
7428 a9        xor     c
7429 eb        ex      de,hl
742a edaf      db      0edh, 0afh       ; Undocumented 8 T-State NOP
742c 9f        sbc     a,a
742d 1f        rra     
742e be        cp      (hl)
742f f5        push    af
7430 7f        ld      a,a
7431 5b        ld      e,e
7432 ff        rst     38h
7433 ff        rst     38h
7434 ff        rst     38h
7435 ff        rst     38h
7436 ff        rst     38h
7437 ff        rst     38h
7438 ff        rst     38h
7439 ff        rst     38h
743a f7        rst     30h
743b f7        rst     30h
743c 78        ld      a,b
743d 7b        ld      a,e
743e 0f        rrca    
743f 35        dec     (hl)
7440 97        sub     a
7441 fb        ei      
7442 f3        di      
7443 c7        rst     00h
7444 23        inc     hl
7445 ef        rst     28h
7446 46        ld      b,(hl)
7447 7f        ld      a,a
7448 45        ld      b,l
7449 3f        ccf     
744a dc2fb8    call    c,0b82fh
744d a7        and     a
744e 66        ld      h,(hl)
744f 52        ld      d,d
7450 fc20ff    call    m,0ff20h
7453 ff        rst     38h
7454 f0        ret     p

7455 f0        ret     p

7456 00        nop     
7457 00        nop     
7458 05        dec     b
7459 05        dec     b
745a 0a        ld      a,(bc)
745b 0a        ld      a,(bc)
745c 05        dec     b
745d 05        dec     b
745e 0a        ld      a,(bc)
745f 0a        ld      a,(bc)
7460 f0        ret     p

7461 f0        ret     p

7462 fdff      rst     38h
7464 7d        ld      a,l
7465 ff        rst     38h
7466 d5        push    de
7467 0c        inc     c
7468 d5        push    de
7469 7f        ld      a,a
746a f7        rst     30h
746b 55        ld      d,l
746c 8c        adc     a,h
746d cceeb8    call    z,0b8eeh
7470 ff        rst     38h
7471 23        inc     hl
7472 ee77      xor     77h
7474 ee07      xor     07h
7476 ff        rst     38h
7477 feff      cp      0ffh
7479 edff      db      0edh, 0ffh       ; Undocumented 8 T-State NOP
747b edff      db      0edh, 0ffh       ; Undocumented 8 T-State NOP
747d edff      db      0edh, 0ffh       ; Undocumented 8 T-State NOP
747f edf8      db      0edh, 0f8h       ; Undocumented 8 T-State NOP
7481 4e        ld      c,(hl)
7482 1c        inc     e
7483 c1        pop     bc
7484 c0        ret     nz

7485 01f389    ld      bc,89f3h
7488 1d        dec     e
7489 89        adc     a,c
748a 6e        ld      l,(hl)
748b 89        adc     a,c
748c aa        xor     d
748d 89        adc     a,c
748e dd89      adc     a,c
7490 00        nop     
7491 01ffff    ld      bc,0ffffh
7494 f0        ret     p

7495 f0        ret     p

7496 00        nop     
7497 00        nop     
7498 05        dec     b
7499 05        dec     b
749a 0a        ld      a,(bc)
749b 0a        ld      a,(bc)
749c 05        dec     b
749d 05        dec     b
749e 0a        ld      a,(bc)
749f 0a        ld      a,(bc)
74a0 f0        ret     p

74a1 f0        ret     p

74a2 ff        rst     38h
74a3 f7        rst     30h
74a4 ff        rst     38h
74a5 f7        rst     30h
74a6 9f        sbc     a,a
74a7 07        rlca    
74a8 17        rla     
74a9 77        ld      (hl),a
74aa 9f        sbc     a,a
74ab ff        rst     38h
74ac 9f        sbc     a,a
74ad 7f        ld      a,a
74ae 97        sub     a
74af 7f        ld      a,a
74b0 2f        cpl     
74b1 ff        rst     38h
74b2 df        rst     18h
74b3 ff        rst     38h
74b4 3c        inc     a
74b5 f7        rst     30h
74b6 0f        rrca    
74b7 7b        ld      a,e
74b8 00        nop     
74b9 35        dec     (hl)
74ba 00        nop     
74bb 35        dec     (hl)
74bc 00        nop     
74bd 35        dec     (hl)
74be 00        nop     
74bf 12        ld      (de),a
74c0 ed70      in      f,(c)
74c2 ed70      in      f,(c)
74c4 ed70      in      f,(c)
74c6 ed70      in      f,(c)
74c8 ed70      in      f,(c)
74ca ed70      in      f,(c)
74cc ed70      in      f,(c)
74ce ed70      in      f,(c)
74d0 edf0      db      0edh, 0f0h       ; Undocumented 8 T-State NOP
74d2 edf0      db      0edh, 0f0h       ; Undocumented 8 T-State NOP
74d4 e1        pop     hl
74d5 f0        ret     p

74d6 00        nop     
74d7 00        nop     
74d8 05        dec     b
74d9 05        dec     b
74da 0a        ld      a,(bc)
74db 0a        ld      a,(bc)
74dc 14        inc     d
74dd 05        dec     b
74de 1a        ld      a,(de)
74df 0a        ld      a,(bc)
74e0 f0        ret     p

74e1 f0        ret     p

74e2 feff      cp      0ffh
74e4 9e        sbc     a,(hl)
74e5 0d        dec     c
74e6 5a        ld      e,d
74e7 c1        pop     bc
74e8 9e        sbc     a,(hl)
74e9 49        ld      c,c
74ea fe49      cp      49h
74ec fec1      cp      0c1h
74ee feb0      cp      0b0h
74f0 fe43      cp      43h
74f2 fe84      cp      84h
74f4 ef        rst     28h
74f5 84        add     a,h
74f6 ef        rst     28h
74f7 0c        inc     c
74f8 ed00      db      0edh, 00h        ; Undocumented 8 T-State NOP
74fa ed00      db      0edh, 00h        ; Undocumented 8 T-State NOP
74fc ed00      db      0edh, 00h        ; Undocumented 8 T-State NOP
74fe c2000e    jp      nz,0e00h
7501 12        ld      (de),a
7502 00        nop     
7503 010000    ld      bc,0000h
7506 00        nop     
7507 00        nop     
7508 00        nop     
7509 00        nop     
750a 00        nop     
750b 00        nop     
750c 00        nop     
750d 00        nop     
750e 00        nop     
750f 00        nop     
7510 00        nop     
7511 00        nop     
7512 00        nop     
7513 00        nop     
7514 00        nop     
7515 00        nop     
7516 00        nop     
7517 00        nop     
7518 00        nop     
7519 00        nop     
751a 00        nop     
751b 00        nop     
751c 00        nop     
751d 00        nop     
751e 00        nop     
751f 00        nop     
7520 00        nop     
7521 00        nop     
7522 00        nop     
7523 00        nop     
7524 00        nop     
7525 00        nop     
7526 00        nop     
7527 00        nop     
7528 00        nop     
7529 00        nop     
752a 00        nop     
752b 00        nop     
752c 00        nop     
752d 00        nop     
752e 00        nop     
752f 00        nop     
7530 00        nop     
7531 00        nop     
7532 00        nop     
7533 00        nop     
7534 00        nop     
7535 00        nop     
7536 00        nop     
7537 00        nop     
7538 00        nop     
7539 00        nop     
753a 00        nop     
753b 00        nop     
753c 00        nop     
753d 00        nop     
753e 00        nop     
753f 00        nop     
7540 ff        rst     38h
7541 edf0      db      0edh, 0f0h       ; Undocumented 8 T-State NOP
7543 c20f0c    jp      nz,0c0fh
7546 00        nop     
7547 00        nop     
7548 00        nop     
7549 00        nop     
754a 00        nop     
754b 00        nop     
754c 00        nop     
754d 00        nop     
754e 00        nop     
754f 00        nop     
7550 00        nop     
7551 00        nop     
7552 00        nop     
7553 00        nop     
7554 00        nop     
7555 00        nop     
7556 00        nop     
7557 00        nop     
7558 00        nop     
7559 00        nop     
755a 00        nop     
755b 00        nop     
755c 00        nop     
755d 00        nop     
755e 00        nop     
755f 00        nop     
7560 00        nop     
7561 00        nop     
7562 00        nop     
7563 00        nop     
7564 00        nop     
7565 00        nop     
7566 00        nop     
7567 00        nop     
7568 00        nop     
7569 00        nop     
756a 00        nop     
756b 00        nop     
756c 00        nop     
756d 00        nop     
756e 00        nop     
756f 00        nop     
7570 00        nop     
7571 00        nop     
7572 00        nop     
7573 00        nop     
7574 00        nop     
7575 00        nop     
7576 00        nop     
7577 00        nop     
7578 00        nop     
7579 00        nop     
757a 00        nop     
757b 00        nop     
757c 00        nop     
757d 00        nop     
757e 00        nop     
757f 00        nop     
7580 00        nop     
7581 010000    ld      bc,0000h
7584 00        nop     
7585 00        nop     
7586 00        nop     
7587 00        nop     
7588 00        nop     
7589 00        nop     
758a 00        nop     
758b 00        nop     
758c 00        nop     
758d 00        nop     
758e 00        nop     
758f 00        nop     
7590 00        nop     
7591 00        nop     
7592 00        nop     
7593 00        nop     
7594 00        nop     
7595 00        nop     
7596 00        nop     
7597 00        nop     
7598 00        nop     
7599 00        nop     
759a 00        nop     
759b 00        nop     
759c 00        nop     
759d 00        nop     
759e 00        nop     
759f 00        nop     
75a0 00        nop     
75a1 00        nop     
75a2 00        nop     
75a3 00        nop     
75a4 00        nop     
75a5 00        nop     
75a6 00        nop     
75a7 00        nop     
75a8 00        nop     
75a9 00        nop     
75aa 00        nop     
75ab 00        nop     
75ac 00        nop     
75ad 00        nop     
75ae 00        nop     
75af 00        nop     
75b0 00        nop     
75b1 00        nop     
75b2 00        nop     
75b3 00        nop     
75b4 00        nop     
75b5 00        nop     
75b6 00        nop     
75b7 00        nop     
75b8 00        nop     
75b9 00        nop     
75ba 00        nop     
75bb 00        nop     
75bc 00        nop     
75bd 00        nop     
75be 00        nop     
75bf 00        nop     
75c0 0c        inc     c
75c1 00        nop     
75c2 00        nop     
75c3 00        nop     
75c4 00        nop     
75c5 00        nop     
75c6 00        nop     
75c7 00        nop     
75c8 00        nop     
75c9 00        nop     
75ca 00        nop     
75cb 00        nop     
75cc 00        nop     
75cd 00        nop     
75ce 00        nop     
75cf 00        nop     
75d0 00        nop     
75d1 00        nop     
75d2 00        nop     
75d3 00        nop     
75d4 00        nop     
75d5 00        nop     
75d6 00        nop     
75d7 00        nop     
75d8 00        nop     
75d9 00        nop     
75da 00        nop     
75db 00        nop     
75dc 00        nop     
75dd 00        nop     
75de 00        nop     
75df 00        nop     
75e0 00        nop     
75e1 00        nop     
75e2 00        nop     
75e3 00        nop     
75e4 00        nop     
75e5 00        nop     
75e6 00        nop     
75e7 00        nop     
75e8 00        nop     
75e9 00        nop     
75ea 00        nop     
75eb 00        nop     
75ec 00        nop     
75ed 00        nop     
75ee 00        nop     
75ef 00        nop     
75f0 00        nop     
75f1 00        nop     
75f2 00        nop     
75f3 00        nop     
75f4 00        nop     
75f5 00        nop     
75f6 00        nop     
75f7 00        nop     
75f8 00        nop     
75f9 00        nop     
75fa 00        nop     
75fb 00        nop     
75fc 00        nop     
75fd 00        nop     
75fe 00        nop     
75ff 00        nop     
7600 00        nop     
7601 00        nop     
7602 00        nop     
7603 00        nop     
7604 00        nop     
7605 00        nop     
7606 00        nop     
7607 00        nop     
7608 00        nop     
7609 00        nop     
760a 00        nop     
760b 00        nop     
760c 00        nop     
760d 00        nop     
760e 00        nop     
760f 00        nop     
7610 00        nop     
7611 00        nop     
7612 00        nop     
7613 00        nop     
7614 00        nop     
7615 00        nop     
7616 00        nop     
7617 00        nop     
7618 00        nop     
7619 00        nop     
761a 00        nop     
761b 00        nop     
761c 00        nop     
761d 00        nop     
761e 00        nop     
761f 00        nop     
7620 00        nop     
7621 00        nop     
7622 00        nop     
7623 00        nop     
7624 00        nop     
7625 00        nop     
7626 00        nop     
7627 00        nop     
7628 00        nop     
7629 00        nop     
762a 00        nop     
762b 00        nop     
762c 00        nop     
762d 00        nop     
762e 00        nop     
762f 00        nop     
7630 00        nop     
7631 00        nop     
7632 00        nop     
7633 00        nop     
7634 00        nop     
7635 00        nop     
7636 00        nop     
7637 00        nop     
7638 00        nop     
7639 00        nop     
763a 00        nop     
763b 00        nop     
763c 00        nop     
763d 00        nop     
763e 00        nop     
763f 00        nop     
7640 00        nop     
7641 00        nop     
7642 00        nop     
7643 00        nop     
7644 00        nop     
7645 00        nop     
7646 00        nop     
7647 00        nop     
7648 00        nop     
7649 00        nop     
764a 00        nop     
764b 00        nop     
764c 00        nop     
764d 00        nop     
764e 00        nop     
764f 00        nop     
7650 00        nop     
7651 00        nop     
7652 00        nop     
7653 00        nop     
7654 00        nop     
7655 00        nop     
7656 00        nop     
7657 00        nop     
7658 00        nop     
7659 00        nop     
765a 00        nop     
765b 00        nop     
765c 00        nop     
765d 00        nop     
765e 00        nop     
765f 00        nop     
7660 00        nop     
7661 00        nop     
7662 00        nop     
7663 00        nop     
7664 00        nop     
7665 00        nop     
7666 00        nop     
7667 00        nop     
7668 00        nop     
7669 00        nop     
766a 00        nop     
766b 00        nop     
766c 00        nop     
766d 00        nop     
766e 00        nop     
766f 010012    ld      bc,1200h
7672 00        nop     
7673 33        inc     sp
7674 00        nop     
7675 320033    ld      (3300h),a
7678 00        nop     
7679 320033    ld      (3300h),a
767c 00        nop     
767d 320037    ld      (3700h),a
7680 00        nop     
7681 00        nop     
7682 00        nop     
7683 00        nop     
7684 00        nop     
7685 00        nop     
7686 00        nop     
7687 00        nop     
7688 00        nop     
7689 00        nop     
768a 00        nop     
768b 00        nop     
768c 00        nop     
768d 00        nop     
768e 00        nop     
768f 00        nop     
7690 00        nop     
7691 00        nop     
7692 00        nop     
7693 00        nop     
7694 00        nop     
7695 0f        rrca    
7696 00        nop     
7697 78        ld      a,b
7698 00        nop     
7699 7b        ld      a,e
769a 00        nop     
769b 7b        ld      a,e
769c 00        nop     
769d 7b        ld      a,e
769e 00        nop     
769f 7b        ld      a,e
76a0 00        nop     
76a1 7b        ld      a,e
76a2 00        nop     
76a3 7b        ld      a,e
76a4 00        nop     
76a5 0f        rrca    
76a6 018a13    ld      bc,138ah
76a9 85        add     a,l
76aa 34        inc     (hl)
76ab 8a        adc     a,d
76ac 5b        ld      e,e
76ad 85        add     a,l
76ae 94        sub     h
76af 8a        adc     a,d
76b0 9b        sbc     a,e
76b1 85        add     a,l
76b2 94        sub     h
76b3 8a        adc     a,d
76b4 9b        sbc     a,e
76b5 85        add     a,l
76b6 94        sub     h
76b7 8a        adc     a,d
76b8 9b        sbc     a,e
76b9 85        add     a,l
76ba 94        sub     h
76bb 8a        adc     a,d
76bc 9b        sbc     a,e
76bd 85        add     a,l
76be 94        sub     h
76bf 8a        adc     a,d
76c0 00        nop     
76c1 00        nop     
76c2 00        nop     
76c3 00        nop     
76c4 78        ld      a,b
76c5 f0        ret     p

76c6 0a        ld      a,(bc)
76c7 1a        ld      a,(de)
76c8 0d        dec     c
76c9 14        inc     d
76ca 0a        ld      a,(bc)
76cb 1a        ld      a,(de)
76cc 0d        dec     c
76cd 14        inc     d
76ce 0a        ld      a,(bc)
76cf 1a        ld      a,(de)
76d0 0d        dec     c
76d1 14        inc     d
76d2 0a        ld      a,(bc)
76d3 1a        ld      a,(de)
76d4 0d        dec     c
76d5 14        inc     d
76d6 0a        ld      a,(bc)
76d7 1a        ld      a,(de)
76d8 0d        dec     c
76d9 14        inc     d
76da 0a        ld      a,(bc)
76db 1a        ld      a,(de)
76dc 0d        dec     c
76dd 14        inc     d
76de 0a        ld      a,(bc)
76df 1a        ld      a,(de)
76e0 0d        dec     c
76e1 14        inc     d
76e2 0a        ld      a,(bc)
76e3 0a        ld      a,(bc)
76e4 0d        dec     c
76e5 05        dec     b
76e6 0a        ld      a,(bc)
76e7 0a        ld      a,(bc)
76e8 05        dec     b
76e9 05        dec     b
76ea 0a        ld      a,(bc)
76eb 0a        ld      a,(bc)
76ec 05        dec     b
76ed 05        dec     b
76ee 0a        ld      a,(bc)
76ef 0a        ld      a,(bc)
76f0 00        nop     
76f1 00        nop     
76f2 0f        rrca    
76f3 0f        rrca    
76f4 7c        ld      a,h
76f5 f0        ret     p

76f6 7c        ld      a,h
76f7 f0        ret     p

76f8 7c        ld      a,h
76f9 f0        ret     p

76fa 7c        ld      a,h
76fb f0        ret     p

76fc 7c        ld      a,h
76fd f0        ret     p

76fe 7c        ld      a,h
76ff f0        ret     p

7700 00        nop     
7701 00        nop     
7702 00        nop     
7703 00        nop     
7704 00        nop     
7705 00        nop     
7706 00        nop     
7707 00        nop     
7708 00        nop     
7709 00        nop     
770a 00        nop     
770b 00        nop     
770c 00        nop     
770d 00        nop     
770e 00        nop     
770f 00        nop     
7710 00        nop     
7711 00        nop     
7712 00        nop     
7713 00        nop     
7714 00        nop     
7715 010013    ld      bc,1300h
7718 00        nop     
7719 35        dec     (hl)
771a 00        nop     
771b 6b        ld      l,e
771c 00        nop     
771d 7b        ld      a,e
771e 01e701    ld      bc,01e7h
7721 c5        push    bc
7722 01d501    ld      bc,01d5h
7725 d5        push    de
7726 01e601    ld      bc,01e6h
7729 f600      or      00h
772b 7b        ld      a,e
772c 00        nop     
772d 35        dec     (hl)
772e 00        nop     
772f 12        ld      (de),a
7730 00        nop     
7731 010000    ld      bc,0000h
7734 00        nop     
7735 00        nop     
7736 00        nop     
7737 00        nop     
7738 00        nop     
7739 00        nop     
773a 00        nop     
773b 00        nop     
773c 00        nop     
773d 00        nop     
773e 00        nop     
773f 00        nop     
7740 00        nop     
7741 7a        ld      a,d
7742 01f701    ld      bc,01f7h
7745 f601      or      01h
7747 f7        rst     30h
7748 01f601    ld      bc,01f6h
774b f7        rst     30h
774c 01f610    ld      bc,10f6h
774f 33        inc     sp
7750 04        inc     b
7751 7e        ld      a,(hl)
7752 6f        ld      l,a
7753 bf        cp      a
7754 df        rst     18h
7755 7e        ld      a,(hl)
7756 af        xor     a
7757 bf        cp      a
7758 5f        ld      e,a
7759 7e        ld      a,(hl)
775a af        xor     a
775b bf        cp      a
775c 5f        ld      e,a
775d 7e        ld      a,(hl)
775e af        xor     a
775f bf        cp      a
7760 df        rst     18h
7761 7e        ld      a,(hl)
7762 af        xor     a
7763 bf        cp      a
7764 5f        ld      e,a
7765 7e        ld      a,(hl)
7766 af        xor     a
7767 bf        cp      a
7768 5f        ld      e,a
7769 7e        ld      a,(hl)
776a a7        and     a
776b bf        cp      a
776c db7e      in      a,(7eh)
776e fc3fe7    call    m,0e73fh
7771 f279ff    jp      p,0ff79h
7774 16fe      ld      d,0feh
7776 01f701    ld      bc,01f7h
7779 f601      or      01h
777b f7        rst     30h
777c 01f601    ld      bc,01f6h
777f f7        rst     30h
7780 9b        sbc     a,e
7781 85        add     a,l
7782 94        sub     h
7783 8a        adc     a,d
7784 9b        sbc     a,e
7785 85        add     a,l
7786 94        sub     h
7787 8a        adc     a,d
7788 9b        sbc     a,e
7789 85        add     a,l
778a 94        sub     h
778b 8a        adc     a,d
778c 9b        sbc     a,e
778d 85        add     a,l
778e 94        sub     h
778f 8a        adc     a,d
7790 9b        sbc     a,e
7791 85        add     a,l
7792 94        sub     h
7793 8a        adc     a,d
7794 9b        sbc     a,e
7795 85        add     a,l
7796 94        sub     h
7797 8a        adc     a,d
7798 9b        sbc     a,e
7799 85        add     a,l
779a 94        sub     h
779b 8a        adc     a,d
779c 9b        sbc     a,e
779d 85        add     a,l
779e 94        sub     h
779f 8a        adc     a,d
77a0 9b        sbc     a,e
77a1 85        add     a,l
77a2 94        sub     h
77a3 8a        adc     a,d
77a4 9b        sbc     a,e
77a5 85        add     a,l
77a6 94        sub     h
77a7 8a        adc     a,d
77a8 9b        sbc     a,e
77a9 85        add     a,l
77aa 94        sub     h
77ab 8a        adc     a,d
77ac 9b        sbc     a,e
77ad 85        add     a,l
77ae 94        sub     h
77af 8a        adc     a,d
77b0 9b        sbc     a,e
77b1 85        add     a,l
77b2 94        sub     h
77b3 8a        adc     a,d
77b4 9b        sbc     a,e
77b5 85        add     a,l
77b6 94        sub     h
77b7 8a        adc     a,d
77b8 9b        sbc     a,e
77b9 85        add     a,l
77ba 94        sub     h
77bb 8a        adc     a,d
77bc 9b        sbc     a,e
77bd 85        add     a,l
77be 94        sub     h
77bf 8a        adc     a,d
77c0 4f        ld      c,a
77c1 0f        rrca    
77c2 4f        ld      c,a
77c3 0f        rrca    
77c4 7c        ld      a,h
77c5 f0        ret     p

77c6 7c        ld      a,h
77c7 f0        ret     p

77c8 7c        ld      a,h
77c9 f0        ret     p

77ca 7c        ld      a,h
77cb f0        ret     p

77cc 7c        ld      a,h
77cd f0        ret     p

77ce 7c        ld      a,h
77cf f0        ret     p

77d0 7c        ld      a,h
77d1 f0        ret     p

77d2 7c        ld      a,h
77d3 f0        ret     p

77d4 7c        ld      a,h
77d5 f0        ret     p

77d6 7c        ld      a,h
77d7 f0        ret     p

77d8 7c        ld      a,h
77d9 f0        ret     p

77da 7c        ld      a,h
77db f0        ret     p

77dc 7c        ld      a,h
77dd f0        ret     p

77de 4f        ld      c,a
77df 0f        rrca    
77e0 4f        ld      c,a
77e1 0f        rrca    
77e2 4f        ld      c,a
77e3 0f        rrca    
77e4 7c        ld      a,h
77e5 f0        ret     p

77e6 7c        ld      a,h
77e7 f0        ret     p

77e8 7c        ld      a,h
77e9 f0        ret     p

77ea 7c        ld      a,h
77eb f0        ret     p

77ec 7c        ld      a,h
77ed f0        ret     p

77ee 7c        ld      a,h
77ef f0        ret     p

77f0 7c        ld      a,h
77f1 f0        ret     p

77f2 7c        ld      a,h
77f3 f0        ret     p

77f4 7c        ld      a,h
77f5 f0        ret     p

77f6 7c        ld      a,h
77f7 f0        ret     p

77f8 7c        ld      a,h
77f9 f0        ret     p

77fa 7c        ld      a,h
77fb f0        ret     p

77fc 4f        ld      c,a
77fd 0f        rrca    
77fe 4f        ld      c,a
77ff 0f        rrca    
7800 f0        ret     p

7801 f0        ret     p

7802 f0        ret     p

7803 f0        ret     p

7804 f0        ret     p

7805 f0        ret     p

7806 f0        ret     p

7807 f0        ret     p

7808 f0        ret     p

7809 f0        ret     p

780a f0        ret     p

780b f0        ret     p

780c f0        ret     p

780d f0        ret     p

780e 0f        rrca    
780f 0f        rrca    
7810 00        nop     
7811 00        nop     
7812 0a        ld      a,(bc)
7813 0a        ld      a,(bc)
7814 05        dec     b
7815 05        dec     b
7816 0a        ld      a,(bc)
7817 0a        ld      a,(bc)
7818 05        dec     b
7819 05        dec     b
781a 0a        ld      a,(bc)
781b 0a        ld      a,(bc)
781c 05        dec     b
781d 05        dec     b
781e 0a        ld      a,(bc)
781f 0a        ld      a,(bc)
7820 f0        ret     p

7821 f0        ret     p

7822 ff        rst     38h
7823 73        ld      (hl),e
7824 ff        rst     38h
7825 73        ld      (hl),e
7826 1f        rra     
7827 23        inc     hl
7828 f1        pop     af
7829 ab        xor     e
782a f1        pop     af
782b ff        rst     38h
782c 1f        rra     
782d dd0f      rrca    
782f 88        adc     a,b
7830 fdccf9ff  call    z,0fff9h
7834 f9        ld      sp,hl
7835 ff        rst     38h
7836 f9        ld      sp,hl
7837 ff        rst     38h
7838 f1        pop     af
7839 ff        rst     38h
783a 1eff      ld      e,0ffh
783c 03        inc     bc
783d f0        ret     p

783e 010ff0    ld      bc,0f00fh
7841 f0        ret     p

7842 f0        ret     p

7843 f0        ret     p

7844 f0        ret     p

7845 f0        ret     p

7846 f0        ret     p

7847 f0        ret     p

7848 f0        ret     p

7849 f0        ret     p

784a f0        ret     p

784b f0        ret     p

784c f0        ret     p

784d f0        ret     p

784e 0f        rrca    
784f 0f        rrca    
7850 00        nop     
7851 00        nop     
7852 0a        ld      a,(bc)
7853 0a        ld      a,(bc)
7854 05        dec     b
7855 05        dec     b
7856 0a        ld      a,(bc)
7857 0a        ld      a,(bc)
7858 05        dec     b
7859 05        dec     b
785a 0a        ld      a,(bc)
785b 0a        ld      a,(bc)
785c 05        dec     b
785d 05        dec     b
785e 0a        ld      a,(bc)
785f 0a        ld      a,(bc)
7860 f0        ret     p

7861 f0        ret     p

7862 ff        rst     38h
7863 feff      cp      0ffh
7865 fe7e      cp      7eh
7867 2e33      ld      l,33h
7869 2e33      ld      l,33h
786b 3f        ccf     
786c fe2f      cp      2fh
786e fc2fcf    call    m,0cf2fh
7871 5f        ld      e,a
7872 ff        rst     38h
7873 bf        cp      a
7874 0f        rrca    
7875 7f        ld      a,a
7876 ed3d      db      0edh, 3dh        ; Undocumented 8 T-State NOP
7878 ed12      db      0edh, 12h        ; Undocumented 8 T-State NOP
787a ed12      db      0edh, 12h        ; Undocumented 8 T-State NOP
787c c2010c    jp      nz,0c01h
787f 00        nop     
7880 f0        ret     p

7881 f0        ret     p

7882 f0        ret     p

7883 f0        ret     p

7884 f0        ret     p

7885 f0        ret     p

7886 f0        ret     p

7887 f0        ret     p

7888 f0        ret     p

7889 f0        ret     p

788a f0        ret     p

788b f0        ret     p

788c f0        ret     p

788d f0        ret     p

788e 0f        rrca    
788f 0f        rrca    
7890 00        nop     
7891 00        nop     
7892 0a        ld      a,(bc)
7893 0a        ld      a,(bc)
7894 05        dec     b
7895 05        dec     b
7896 0a        ld      a,(bc)
7897 0a        ld      a,(bc)
7898 05        dec     b
7899 05        dec     b
789a 0a        ld      a,(bc)
789b 0a        ld      a,(bc)
789c 05        dec     b
789d 05        dec     b
789e 0a        ld      a,(bc)
789f 0a        ld      a,(bc)
78a0 f0        ret     p

78a1 f0        ret     p

78a2 cc76bb    call    z,0bb76h
78a5 7e        ld      a,(hl)
78a6 47        ld      b,a
78a7 0c        inc     c
78a8 a7        and     a
78a9 ae        xor     (hl)
78aa a7        and     a
78ab bf        cp      a
78ac 4f        ld      c,a
78ad 5d        ld      e,l
78ae f9        ld      sp,hl
78af f7        rst     30h
78b0 de6e      sbc     a,6eh
78b2 ff        rst     38h
78b3 ff        rst     38h
78b4 ff        rst     38h
78b5 ff        rst     38h
78b6 ff        rst     38h
78b7 ff        rst     38h
78b8 ff        rst     38h
78b9 f3        di      
78ba fe79      cp      79h
78bc e1        pop     hl
78bd 34        inc     (hl)
78be 0e03      ld      c,03h
78c0 f0        ret     p

78c1 f0        ret     p

78c2 f0        ret     p

78c3 f0        ret     p

78c4 f0        ret     p

78c5 f0        ret     p

78c6 f0        ret     p

78c7 f0        ret     p

78c8 f0        ret     p

78c9 f0        ret     p

78ca f0        ret     p

78cb f0        ret     p

78cc f0        ret     p

78cd f0        ret     p

78ce 0f        rrca    
78cf 0f        rrca    
78d0 00        nop     
78d1 010a0b    ld      bc,0b0ah
78d4 05        dec     b
78d5 05        dec     b
78d6 0a        ld      a,(bc)
78d7 0a        ld      a,(bc)
78d8 05        dec     b
78d9 05        dec     b
78da 0a        ld      a,(bc)
78db 0a        ld      a,(bc)
78dc 05        dec     b
78dd 05        dec     b
78de 0a        ld      a,(bc)
78df 0a        ld      a,(bc)
78e0 f0        ret     p

78e1 f0        ret     p

78e2 ff        rst     38h
78e3 ff        rst     38h
78e4 ff        rst     38h
78e5 ff        rst     38h
78e6 9f        sbc     a,a
78e7 cbae      res     5,(hl)
78e9 47        ld      b,a
78ea ee47      xor     47h
78ec f7        rst     30h
78ed cbea      set     5,d
78ef c3ff1f    jp      1fffh
78f2 77        ld      (hl),a
78f3 67        ld      h,a
78f4 03        inc     bc
78f5 1eff      ld      e,0ffh
78f7 fcfffc    call    m,0fcffh
78fa ff        rst     38h
78fb edf0      db      0edh, 0f0h       ; Undocumented 8 T-State NOP
78fd c30f0c    jp      0c0fh
7900 00        nop     
7901 00        nop     
7902 00        nop     
7903 00        nop     
7904 00        nop     
7905 00        nop     
7906 0f        rrca    
7907 88        adc     a,b
7908 0f        rrca    
7909 08        ex      af,af'
790a ad        xor     l
790b 08        ex      af,af'
790c cf        rst     08h
790d 88        adc     a,b
790e de88      sbc     a,88h
7910 ff        rst     38h
7911 ff        rst     38h
7912 ff        rst     38h
7913 ff        rst     38h
7914 0f        rrca    
7915 2e2f      ld      l,2fh
7917 8d        adc     a,l
7918 0f        rrca    
7919 9b        sbc     a,e
791a 7f        ld      a,a
791b 27        daa     
791c ee4f      xor     4fh
791e 0d        dec     c
791f df        rst     18h
7920 1b        dec     de
7921 2d        dec     l
7922 27        daa     
7923 df        rst     18h
7924 7f        ld      a,a
7925 e1        pop     hl
7926 5a        ld      e,d
7927 f1        pop     af
7928 2f        cpl     
7929 f1        pop     af
792a 87        add     a,a
792b 79        ld      a,c
792c 2d        dec     l
792d bd        cp      l
792e 1e7d      ld      e,7dh
7930 0f        rrca    
7931 86        add     a,(hl)
7932 0f        rrca    
7933 2f        cpl     
7934 0f        rrca    
7935 0f        rrca    
7936 0f        rrca    
7937 2d        dec     l
7938 0f        rrca    
7939 2d        dec     l
793a 0f        rrca    
793b 2d        dec     l
793c 0f        rrca    
793d ad        xor     l
793e 0f        rrca    
793f cd0000    call    0000h
7942 00        nop     
7943 00        nop     
7944 00        nop     
7945 00        nop     
7946 00        nop     
7947 00        nop     
7948 00        nop     
7949 00        nop     
794a 00        nop     
794b 00        nop     
794c 00        nop     
794d 00        nop     
794e 00        nop     
794f 00        nop     
7950 40        ld      b,b
7951 00        nop     
7952 23        inc     hl
7953 0f        rrca    
7954 1f        rra     
7955 bb        cp      e
7956 ff        rst     38h
7957 ee1f      xor     1fh
7959 ff        rst     38h
795a f3        di      
795b b7        or      a
795c 3c        inc     a
795d f7        rst     30h
795e df        rst     18h
795f ff        rst     38h
7960 d2f0df    jp      nc,0dff0h
7963 ff        rst     38h
7964 3ef0      ld      a,0f0h
7966 f6f0      or      0f0h
7968 f5        push    af
7969 f0        ret     p

796a f5        push    af
796b f0        ret     p

796c f4f8f6    call    p,0f6f8h
796f f8        ret     m

7970 f6f5      or      0f5h
7972 f5        push    af
7973 f5        push    af
7974 f5        push    af
7975 87        add     a,a
7976 f47df4    call    p,0f47dh
7979 7d        ld      a,l
797a f47df4    call    p,0f47dh
797d 7d        ld      a,l
797e f5        push    af
797f 87        add     a,a
7980 00        nop     
7981 00        nop     
7982 00        nop     
7983 03        inc     bc
7984 00        nop     
7985 00        nop     
7986 00        nop     
7987 0600      ld      b,00h
7989 0e01      ld      c,01h
798b 3c        inc     a
798c 03        inc     bc
798d e7        rst     20h
798e 168b      ld      d,8bh
7990 34        inc     (hl)
7991 2f        cpl     
7992 9a        sbc     a,d
7993 9f        sbc     a,a
7994 3b        dec     sp
7995 55        ld      d,l
7996 8f        adc     a,a
7997 f5        push    af
7998 7f        ld      a,a
7999 ff        rst     38h
799a cf        rst     08h
799b 0f        rrca    
799c e9        jp      (hl)
799d 3c        inc     a
799e df        rst     18h
799f df        rst     18h
79a0 d2d2df    jp      nc,0dfd2h
79a3 df        rst     18h
79a4 e3        ex      (sp),hl
79a5 3c        inc     a
79a6 f2f4f5    jp      p,0f5f4h
79a9 f4f5e5    call    p,0e5f5h
79ac f9        ld      sp,hl
79ad d7        rst     10h
79ae fb        ei      
79af f6f3      or      0f3h
79b1 f7        rst     30h
79b2 f5        push    af
79b3 d7        rst     10h
79b4 f5        push    af
79b5 c7        rst     00h
79b6 79        ld      a,c
79b7 d7        rst     10h
79b8 79        ld      a,c
79b9 f7        rst     30h
79ba 79        ld      a,c
79bb f7        rst     30h
79bc 79        ld      a,c
79bd f7        rst     30h
79be f5        push    af
79bf f7        rst     30h
79c0 013c0c    ld      bc,0c3ch
79c3 69        ld      l,c
79c4 1ec2      ld      e,0c2h
79c6 3c        inc     a
79c7 0ee1      ld      c,0e1h
79c9 2b        dec     hl
79ca c29f23    jp      nz,239fh
79cd 4c        ld      c,h
79ce 9f        sbc     a,a
79cf 205d      jr      nz,7a2eh
79d1 ab        xor     e
79d2 3b        dec     sp
79d3 ff        rst     38h
79d4 ef        rst     28h
79d5 ee76      xor     76h
79d7 3f        ccf     
79d8 fcb778    call    m,78b7h
79db b7        or      a
79dc f0        ret     p

79dd 87        add     a,a
79de ff        rst     38h
79df fef0      cp      0f0h
79e1 f7        rst     30h
79e2 feef      cp      0efh
79e4 f1        pop     af
79e5 ddf3      di      
79e7 ccf7bf    call    z,0bff7h
79ea ff        rst     38h
79eb dd11bf00  ld      de,00bfh
79ef 7f        ld      a,a
79f0 09        add     hl,bc
79f1 3b        dec     sp
79f2 edbb      otdr    
79f4 ab        xor     e
79f5 bb        cp      e
79f6 53        ld      d,e
79f7 77        ld      (hl),a
79f8 52        ld      d,d
79f9 ff        rst     38h
79fa 37        scf     
79fb fe37      cp      37h
79fd e7        rst     20h
79fe ff        rst     38h
79ff eb        ex      de,hl
7a00 00        nop     
7a01 00        nop     
7a02 00        nop     
7a03 00        nop     
7a04 00        nop     
7a05 00        nop     
7a06 00        nop     
7a07 00        nop     
7a08 00        nop     
7a09 00        nop     
7a0a 00        nop     
7a0b 00        nop     
7a0c 00        nop     
7a0d 00        nop     
7a0e 00        nop     
7a0f 00        nop     
7a10 00        nop     
7a11 00        nop     
7a12 00        nop     
7a13 00        nop     
7a14 00        nop     
7a15 00        nop     
7a16 00        nop     
7a17 00        nop     
7a18 00        nop     
7a19 00        nop     
7a1a 00        nop     
7a1b 00        nop     
7a1c 00        nop     
7a1d 00        nop     
7a1e 00        nop     
7a1f 00        nop     
7a20 00        nop     
7a21 00        nop     
7a22 00        nop     
7a23 00        nop     
7a24 00        nop     
7a25 00        nop     
7a26 00        nop     
7a27 00        nop     
7a28 00        nop     
7a29 00        nop     
7a2a 00        nop     
7a2b 00        nop     
7a2c 00        nop     
7a2d 00        nop     
7a2e 00        nop     
7a2f 00        nop     
7a30 00        nop     
7a31 00        nop     
7a32 00        nop     
7a33 00        nop     
7a34 00        nop     
7a35 00        nop     
7a36 00        nop     
7a37 00        nop     
7a38 00        nop     
7a39 00        nop     
7a3a 00        nop     
7a3b 00        nop     
7a3c 00        nop     
7a3d 00        nop     
7a3e 00        nop     
7a3f 00        nop     
7a40 00        nop     
7a41 00        nop     
7a42 00        nop     
7a43 00        nop     
7a44 00        nop     
7a45 00        nop     
7a46 00        nop     
7a47 00        nop     
7a48 00        nop     
7a49 00        nop     
7a4a 00        nop     
7a4b 00        nop     
7a4c 00        nop     
7a4d 00        nop     
7a4e 00        nop     
7a4f 00        nop     
7a50 00        nop     
7a51 00        nop     
7a52 00        nop     
7a53 00        nop     
7a54 00        nop     
7a55 00        nop     
7a56 00        nop     
7a57 00        nop     
7a58 00        nop     
7a59 00        nop     
7a5a 00        nop     
7a5b 00        nop     
7a5c 00        nop     
7a5d 00        nop     
7a5e 00        nop     
7a5f 00        nop     
7a60 00        nop     
7a61 00        nop     
7a62 00        nop     
7a63 00        nop     
7a64 00        nop     
7a65 00        nop     
7a66 00        nop     
7a67 00        nop     
7a68 00        nop     
7a69 00        nop     
7a6a 00        nop     
7a6b 00        nop     
7a6c 00        nop     
7a6d 00        nop     
7a6e 00        nop     
7a6f 00        nop     
7a70 00        nop     
7a71 00        nop     
7a72 00        nop     
7a73 00        nop     
7a74 00        nop     
7a75 00        nop     
7a76 00        nop     
7a77 00        nop     
7a78 00        nop     
7a79 00        nop     
7a7a 00        nop     
7a7b 00        nop     
7a7c 00        nop     
7a7d 00        nop     
7a7e 00        nop     
7a7f 00        nop     
7a80 00        nop     
7a81 00        nop     
7a82 00        nop     
7a83 00        nop     
7a84 00        nop     
7a85 00        nop     
7a86 00        nop     
7a87 00        nop     
7a88 00        nop     
7a89 00        nop     
7a8a 00        nop     
7a8b 00        nop     
7a8c 00        nop     
7a8d 00        nop     
7a8e 00        nop     
7a8f 00        nop     
7a90 00        nop     
7a91 00        nop     
7a92 00        nop     
7a93 00        nop     
7a94 00        nop     
7a95 00        nop     
7a96 00        nop     
7a97 00        nop     
7a98 00        nop     
7a99 00        nop     
7a9a 00        nop     
7a9b 00        nop     
7a9c 00        nop     
7a9d 00        nop     
7a9e 00        nop     
7a9f 00        nop     
7aa0 00        nop     
7aa1 00        nop     
7aa2 00        nop     
7aa3 00        nop     
7aa4 00        nop     
7aa5 00        nop     
7aa6 00        nop     
7aa7 00        nop     
7aa8 00        nop     
7aa9 00        nop     
7aaa 00        nop     
7aab 00        nop     
7aac 00        nop     
7aad 00        nop     
7aae 00        nop     
7aaf 00        nop     
7ab0 00        nop     
7ab1 00        nop     
7ab2 00        nop     
7ab3 00        nop     
7ab4 00        nop     
7ab5 00        nop     
7ab6 00        nop     
7ab7 00        nop     
7ab8 00        nop     
7ab9 00        nop     
7aba 00        nop     
7abb 00        nop     
7abc 00        nop     
7abd 00        nop     
7abe 00        nop     
7abf 00        nop     
7ac0 00        nop     
7ac1 00        nop     
7ac2 00        nop     
7ac3 00        nop     
7ac4 00        nop     
7ac5 00        nop     
7ac6 00        nop     
7ac7 00        nop     
7ac8 00        nop     
7ac9 00        nop     
7aca 00        nop     
7acb 00        nop     
7acc 00        nop     
7acd 00        nop     
7ace 00        nop     
7acf 00        nop     
7ad0 00        nop     
7ad1 00        nop     
7ad2 00        nop     
7ad3 00        nop     
7ad4 00        nop     
7ad5 00        nop     
7ad6 00        nop     
7ad7 00        nop     
7ad8 00        nop     
7ad9 00        nop     
7ada 00        nop     
7adb 00        nop     
7adc 00        nop     
7add 00        nop     
7ade 00        nop     
7adf 00        nop     
7ae0 00        nop     
7ae1 00        nop     
7ae2 00        nop     
7ae3 00        nop     
7ae4 00        nop     
7ae5 00        nop     
7ae6 00        nop     
7ae7 00        nop     
7ae8 00        nop     
7ae9 00        nop     
7aea 00        nop     
7aeb 00        nop     
7aec 00        nop     
7aed 00        nop     
7aee 00        nop     
7aef 00        nop     
7af0 00        nop     
7af1 00        nop     
7af2 00        nop     
7af3 00        nop     
7af4 00        nop     
7af5 00        nop     
7af6 00        nop     
7af7 00        nop     
7af8 00        nop     
7af9 00        nop     
7afa 00        nop     
7afb 00        nop     
7afc 00        nop     
7afd 00        nop     
7afe 00        nop     
7aff 00        nop     
7b00 e0        ret     po

7b01 00        nop     
7b02 5c        ld      e,h
7b03 f0        ret     p

7b04 f0        ret     p

7b05 d3ec      out     (0ech),a
7b07 bc        cp      h
7b08 3f        ccf     
7b09 ff        rst     38h
7b0a f7        rst     30h
7b0b b8        cp      b
7b0c cf        rst     08h
7b0d 0f        rrca    
7b0e fcf001    call    m,01f0h
7b11 9a        sbc     a,d
7b12 ff        rst     38h
7b13 1699      ld      d,99h
7b15 27        daa     
7b16 ff        rst     38h
7b17 07        rlca    
7b18 ed88      db      0edh, 88h        ; Undocumented 8 T-State NOP
7b1a 74        ld      (hl),h
7b1b 4c        ld      c,h
7b1c 00        nop     
7b1d 47        ld      b,a
7b1e 0f        rrca    
7b1f 2eb7      ld      l,0b7h
7b21 ff        rst     38h
7b22 ff        rst     38h
7b23 ff        rst     38h
7b24 ff        rst     38h
7b25 ff        rst     38h
7b26 ff        rst     38h
7b27 ff        rst     38h
7b28 ff        rst     38h
7b29 ff        rst     38h
7b2a ff        rst     38h
7b2b ff        rst     38h
7b2c f0        ret     p

7b2d f0        ret     p

7b2e f0        ret     p

7b2f f0        ret     p

7b30 e1        pop     hl
7b31 0f        rrca    
7b32 0f        rrca    
7b33 08        ex      af,af'
7b34 08        ex      af,af'
7b35 00        nop     
7b36 00        nop     
7b37 00        nop     
7b38 00        nop     
7b39 00        nop     
7b3a 00        nop     
7b3b 00        nop     
7b3c 00        nop     
7b3d 00        nop     
7b3e 00        nop     
7b3f 00        nop     
7b40 00        nop     
7b41 00        nop     
7b42 80        add     a,b
7b43 00        nop     
7b44 70        ld      (hl),b
7b45 80        add     a,b
7b46 e1        pop     hl
7b47 f8        ret     m

7b48 dee1      sbc     a,0e1h
7b4a 7f        ld      a,a
7b4b deb8      sbc     a,0b8h
7b4d 7f        ld      a,a
7b4e 87        add     a,a
7b4f a9        xor     c
7b50 78        ld      a,b
7b51 2ef0      ld      l,0f0h
7b53 e1        pop     hl
7b54 78        ld      a,b
7b55 e1        pop     hl
7b56 70        ld      (hl),b
7b57 a6        and     (hl)
7b58 ee23      xor     23h
7b5a 23        inc     hl
7b5b 1f        rra     
7b5c 1f        rra     
7b5d 77        ld      (hl),a
7b5e b7        or      a
7b5f ff        rst     38h
7b60 ff        rst     38h
7b61 ff        rst     38h
7b62 ff        rst     38h
7b63 eeff      xor     0ffh
7b65 ecffec    call    pe,0ecffh
7b68 ff        rst     38h
7b69 fcfff0    call    m,0f0ffh
7b6c f0        ret     p

7b6d c2c30c    jp      nz,0cc3h
7b70 0e00      ld      c,00h
7b72 00        nop     
7b73 00        nop     
7b74 00        nop     
7b75 00        nop     
7b76 00        nop     
7b77 00        nop     
7b78 00        nop     
7b79 00        nop     
7b7a 00        nop     
7b7b 00        nop     
7b7c 00        nop     
7b7d 00        nop     
7b7e 00        nop     
7b7f 00        nop     
7b80 00        nop     
7b81 00        nop     
7b82 00        nop     
7b83 00        nop     
7b84 00        nop     
7b85 00        nop     
7b86 80        add     a,b
7b87 00        nop     
7b88 f8        ret     m

7b89 00        nop     
7b8a d3c0      out     (0c0h),a
7b8c bc        cp      h
7b8d 6c        ld      l,h
7b8e ef        rst     28h
7b8f d2b7ad    jp      nc,0adb7h
7b92 cb9f      res     3,a
7b94 99        sbc     a,c
7b95 0c        inc     c
7b96 47        ld      b,a
7b97 88        adc     a,b
7b98 2f        cpl     
7b99 00        nop     
7b9a 44        ld      b,h
7b9b 00        nop     
7b9c 88        adc     a,b
7b9d 00        nop     
7b9e 00        nop     
7b9f 00        nop     
7ba0 00        nop     
7ba1 00        nop     
7ba2 00        nop     
7ba3 00        nop     
7ba4 00        nop     
7ba5 00        nop     
7ba6 00        nop     
7ba7 00        nop     
7ba8 00        nop     
7ba9 00        nop     
7baa 00        nop     
7bab 00        nop     
7bac 00        nop     
7bad 00        nop     
7bae 00        nop     
7baf 00        nop     
7bb0 00        nop     
7bb1 00        nop     
7bb2 00        nop     
7bb3 00        nop     
7bb4 00        nop     
7bb5 00        nop     
7bb6 00        nop     
7bb7 00        nop     
7bb8 00        nop     
7bb9 00        nop     
7bba 00        nop     
7bbb 00        nop     
7bbc 00        nop     
7bbd 00        nop     
7bbe 00        nop     
7bbf 00        nop     
7bc0 00        nop     
7bc1 00        nop     
7bc2 00        nop     
7bc3 00        nop     
7bc4 00        nop     
7bc5 00        nop     
7bc6 00        nop     
7bc7 00        nop     
7bc8 00        nop     
7bc9 00        nop     
7bca 00        nop     
7bcb 00        nop     
7bcc 00        nop     
7bcd 00        nop     
7bce 00        nop     
7bcf 00        nop     
7bd0 00        nop     
7bd1 00        nop     
7bd2 00        nop     
7bd3 00        nop     
7bd4 00        nop     
7bd5 00        nop     
7bd6 00        nop     
7bd7 00        nop     
7bd8 00        nop     
7bd9 00        nop     
7bda 00        nop     
7bdb 00        nop     
7bdc 00        nop     
7bdd 00        nop     
7bde 00        nop     
7bdf 00        nop     
7be0 00        nop     
7be1 00        nop     
7be2 00        nop     
7be3 00        nop     
7be4 00        nop     
7be5 00        nop     
7be6 00        nop     
7be7 00        nop     
7be8 00        nop     
7be9 00        nop     
7bea 00        nop     
7beb 00        nop     
7bec 00        nop     
7bed 00        nop     
7bee 00        nop     
7bef 00        nop     
7bf0 00        nop     
7bf1 00        nop     
7bf2 00        nop     
7bf3 00        nop     
7bf4 00        nop     
7bf5 00        nop     
7bf6 00        nop     
7bf7 00        nop     
7bf8 00        nop     
7bf9 00        nop     
7bfa 00        nop     
7bfb 00        nop     
7bfc 00        nop     
7bfd 00        nop     
7bfe 00        nop     
7bff 00        nop     
7c00 00        nop     
7c01 00        nop     
7c02 00        nop     
7c03 00        nop     
7c04 00        nop     
7c05 00        nop     
7c06 00        nop     
7c07 00        nop     
7c08 00        nop     
7c09 00        nop     
7c0a 00        nop     
7c0b 00        nop     
7c0c 00        nop     
7c0d 00        nop     
7c0e 00        nop     
7c0f 00        nop     
7c10 00        nop     
7c11 00        nop     
7c12 00        nop     
7c13 00        nop     
7c14 00        nop     
7c15 00        nop     
7c16 00        nop     
7c17 00        nop     
7c18 00        nop     
7c19 00        nop     
7c1a 00        nop     
7c1b 00        nop     
7c1c 00        nop     
7c1d 00        nop     
7c1e 00        nop     
7c1f 00        nop     
7c20 00        nop     
7c21 00        nop     
7c22 00        nop     
7c23 00        nop     
7c24 00        nop     
7c25 00        nop     
7c26 00        nop     
7c27 00        nop     
7c28 00        nop     
7c29 00        nop     
7c2a 00        nop     
7c2b 00        nop     
7c2c 00        nop     
7c2d 00        nop     
7c2e 00        nop     
7c2f 00        nop     
7c30 00        nop     
7c31 00        nop     
7c32 00        nop     
7c33 00        nop     
7c34 00        nop     
7c35 00        nop     
7c36 00        nop     
7c37 00        nop     
7c38 00        nop     
7c39 00        nop     
7c3a 00        nop     
7c3b 00        nop     
7c3c 00        nop     
7c3d 00        nop     
7c3e 00        nop     
7c3f 00        nop     
7c40 01f601    ld      bc,01f6h
7c43 f7        rst     30h
7c44 01f601    ld      bc,01f6h
7c47 f7        rst     30h
7c48 01f601    ld      bc,01f6h
7c4b f7        rst     30h
7c4c 01f601    ld      bc,01f6h
7c4f f7        rst     30h
7c50 01d700    ld      bc,00d7h
7c53 6b        ld      l,e
7c54 00        nop     
7c55 35        dec     (hl)
7c56 00        nop     
7c57 12        ld      (de),a
7c58 00        nop     
7c59 010000    ld      bc,0000h
7c5c 00        nop     
7c5d 00        nop     
7c5e 00        nop     
7c5f 00        nop     
7c60 00        nop     
7c61 00        nop     
7c62 00        nop     
7c63 00        nop     
7c64 00        nop     
7c65 00        nop     
7c66 00        nop     
7c67 00        nop     
7c68 00        nop     
7c69 00        nop     
7c6a 00        nop     
7c6b 00        nop     
7c6c 00        nop     
7c6d 00        nop     
7c6e 00        nop     
7c6f 00        nop     
7c70 00        nop     
7c71 00        nop     
7c72 00        nop     
7c73 00        nop     
7c74 00        nop     
7c75 00        nop     
7c76 00        nop     
7c77 00        nop     
7c78 00        nop     
7c79 00        nop     
7c7a 00        nop     
7c7b 00        nop     
7c7c 00        nop     
7c7d 00        nop     
7c7e 00        nop     
7c7f 00        nop     
7c80 9b        sbc     a,e
7c81 85        add     a,l
7c82 94        sub     h
7c83 8a        adc     a,d
7c84 9b        sbc     a,e
7c85 85        add     a,l
7c86 94        sub     h
7c87 8a        adc     a,d
7c88 9b        sbc     a,e
7c89 85        add     a,l
7c8a 94        sub     h
7c8b 8a        adc     a,d
7c8c 9b        sbc     a,e
7c8d 85        add     a,l
7c8e 94        sub     h
7c8f 8a        adc     a,d
7c90 9b        sbc     a,e
7c91 85        add     a,l
7c92 9c        sbc     a,h
7c93 8a        adc     a,d
7c94 5f        ld      e,a
7c95 85        add     a,l
7c96 be        cp      (hl)
7c97 8a        adc     a,d
7c98 d7        rst     10h
7c99 85        add     a,l
7c9a 6b        ld      l,e
7c9b 8a        adc     a,d
7c9c 35        dec     (hl)
7c9d 0f        rrca    
7c9e 12        ld      (de),a
7c9f ff        rst     38h
7ca0 01f700    ld      bc,00f7h
7ca3 7b        ld      a,e
7ca4 00        nop     
7ca5 7b        ld      a,e
7ca6 00        nop     
7ca7 7b        ld      a,e
7ca8 00        nop     
7ca9 7b        ld      a,e
7caa 00        nop     
7cab 7b        ld      a,e
7cac 00        nop     
7cad 7b        ld      a,e
7cae 00        nop     
7caf 7b        ld      a,e
7cb0 00        nop     
7cb1 7b        ld      a,e
7cb2 00        nop     
7cb3 7b        ld      a,e
7cb4 00        nop     
7cb5 7b        ld      a,e
7cb6 00        nop     
7cb7 7b        ld      a,e
7cb8 00        nop     
7cb9 7b        ld      a,e
7cba 00        nop     
7cbb 7b        ld      a,e
7cbc 00        nop     
7cbd 7b        ld      a,e
7cbe 00        nop     
7cbf 7b        ld      a,e
7cc0 7c        ld      a,h
7cc1 f0        ret     p

7cc2 7c        ld      a,h
7cc3 f0        ret     p

7cc4 7c        ld      a,h
7cc5 f0        ret     p

7cc6 7c        ld      a,h
7cc7 f0        ret     p

7cc8 7c        ld      a,h
7cc9 f0        ret     p

7cca 7c        ld      a,h
7ccb f0        ret     p

7ccc 7c        ld      a,h
7ccd f0        ret     p

7cce 0f        rrca    
7ccf 0f        rrca    
7cd0 00        nop     
7cd1 00        nop     
7cd2 0a        ld      a,(bc)
7cd3 0a        ld      a,(bc)
7cd4 05        dec     b
7cd5 05        dec     b
7cd6 0a        ld      a,(bc)
7cd7 0a        ld      a,(bc)
7cd8 05        dec     b
7cd9 05        dec     b
7cda 0a        ld      a,(bc)
7cdb 0a        ld      a,(bc)
7cdc 05        dec     b
7cdd 05        dec     b
7cde 0a        ld      a,(bc)
7cdf 0a        ld      a,(bc)
7ce0 0d        dec     c
7ce1 14        inc     d
7ce2 0a        ld      a,(bc)
7ce3 1a        ld      a,(de)
7ce4 0d        dec     c
7ce5 14        inc     d
7ce6 0a        ld      a,(bc)
7ce7 1a        ld      a,(de)
7ce8 0d        dec     c
7ce9 14        inc     d
7cea 0a        ld      a,(bc)
7ceb 1a        ld      a,(de)
7cec 0d        dec     c
7ced 14        inc     d
7cee 0a        ld      a,(bc)
7cef 1a        ld      a,(de)
7cf0 0d        dec     c
7cf1 14        inc     d
7cf2 0a        ld      a,(bc)
7cf3 1a        ld      a,(de)
7cf4 0d        dec     c
7cf5 14        inc     d
7cf6 0a        ld      a,(bc)
7cf7 1a        ld      a,(de)
7cf8 0d        dec     c
7cf9 14        inc     d
7cfa 0a        ld      a,(bc)
7cfb 1a        ld      a,(de)
7cfc f0        ret     p

7cfd f0        ret     p

7cfe fe0f      cp      0fh
7d00 00        nop     
7d01 00        nop     
7d02 00        nop     
7d03 00        nop     
7d04 00        nop     
7d05 00        nop     
7d06 00        nop     
7d07 00        nop     
7d08 00        nop     
7d09 00        nop     
7d0a 00        nop     
7d0b 00        nop     
7d0c 00        nop     
7d0d 00        nop     
7d0e 00        nop     
7d0f 00        nop     
7d10 00        nop     
7d11 00        nop     
7d12 00        nop     
7d13 00        nop     
7d14 00        nop     
7d15 00        nop     
7d16 00        nop     
7d17 00        nop     
7d18 00        nop     
7d19 00        nop     
7d1a 00        nop     
7d1b 00        nop     
7d1c 00        nop     
7d1d 00        nop     
7d1e 00        nop     
7d1f 00        nop     
7d20 00        nop     
7d21 00        nop     
7d22 00        nop     
7d23 00        nop     
7d24 00        nop     
7d25 00        nop     
7d26 00        nop     
7d27 00        nop     
7d28 00        nop     
7d29 00        nop     
7d2a 00        nop     
7d2b 00        nop     
7d2c 00        nop     
7d2d 00        nop     
7d2e 00        nop     
7d2f 00        nop     
7d30 00        nop     
7d31 00        nop     
7d32 00        nop     
7d33 00        nop     
7d34 00        nop     
7d35 00        nop     
7d36 00        nop     
7d37 00        nop     
7d38 00        nop     
7d39 00        nop     
7d3a 00        nop     
7d3b 00        nop     
7d3c 00        nop     
7d3d 00        nop     
7d3e 00        nop     
7d3f 00        nop     
7d40 00        nop     
7d41 00        nop     
7d42 00        nop     
7d43 00        nop     
7d44 00        nop     
7d45 00        nop     
7d46 00        nop     
7d47 00        nop     
7d48 00        nop     
7d49 00        nop     
7d4a 00        nop     
7d4b 00        nop     
7d4c 00        nop     
7d4d 00        nop     
7d4e 00        nop     
7d4f 00        nop     
7d50 00        nop     
7d51 00        nop     
7d52 00        nop     
7d53 00        nop     
7d54 00        nop     
7d55 00        nop     
7d56 00        nop     
7d57 00        nop     
7d58 00        nop     
7d59 00        nop     
7d5a 00        nop     
7d5b 00        nop     
7d5c 00        nop     
7d5d 00        nop     
7d5e 00        nop     
7d5f 00        nop     
7d60 00        nop     
7d61 00        nop     
7d62 00        nop     
7d63 00        nop     
7d64 00        nop     
7d65 00        nop     
7d66 00        nop     
7d67 00        nop     
7d68 00        nop     
7d69 00        nop     
7d6a 00        nop     
7d6b 00        nop     
7d6c 00        nop     
7d6d 00        nop     
7d6e 00        nop     
7d6f 00        nop     
7d70 00        nop     
7d71 00        nop     
7d72 00        nop     
7d73 00        nop     
7d74 00        nop     
7d75 00        nop     
7d76 00        nop     
7d77 00        nop     
7d78 00        nop     
7d79 00        nop     
7d7a 00        nop     
7d7b 00        nop     
7d7c 00        nop     
7d7d 00        nop     
7d7e 00        nop     
7d7f 00        nop     
7d80 00        nop     
7d81 7b        ld      a,e
7d82 00        nop     
7d83 7b        ld      a,e
7d84 00        nop     
7d85 7b        ld      a,e
7d86 00        nop     
7d87 7b        ld      a,e
7d88 00        nop     
7d89 7b        ld      a,e
7d8a 00        nop     
7d8b 78        ld      a,b
7d8c 00        nop     
7d8d 0f        rrca    
7d8e 00        nop     
7d8f 00        nop     
7d90 00        nop     
7d91 00        nop     
7d92 00        nop     
7d93 00        nop     
7d94 00        nop     
7d95 00        nop     
7d96 00        nop     
7d97 00        nop     
7d98 00        nop     
7d99 00        nop     
7d9a 00        nop     
7d9b 00        nop     
7d9c 00        nop     
7d9d 00        nop     
7d9e 00        nop     
7d9f 00        nop     
7da0 00        nop     
7da1 00        nop     
7da2 00        nop     
7da3 00        nop     
7da4 00        nop     
7da5 00        nop     
7da6 00        nop     
7da7 00        nop     
7da8 00        nop     
7da9 00        nop     
7daa 00        nop     
7dab 00        nop     
7dac 00        nop     
7dad 00        nop     
7dae 00        nop     
7daf 00        nop     
7db0 00        nop     
7db1 00        nop     
7db2 00        nop     
7db3 00        nop     
7db4 00        nop     
7db5 00        nop     
7db6 00        nop     
7db7 00        nop     
7db8 00        nop     
7db9 00        nop     
7dba 00        nop     
7dbb 00        nop     
7dbc 00        nop     
7dbd 00        nop     
7dbe 00        nop     
7dbf 00        nop     
7dc0 fe08      cp      08h
7dc2 fe08      cp      08h
7dc4 fe08      cp      08h
7dc6 fe08      cp      08h
7dc8 fe08      cp      08h
7dca f0        ret     p

7dcb 08        ex      af,af'
7dcc 0f        rrca    
7dcd 08        ex      af,af'
7dce 00        nop     
7dcf 00        nop     
7dd0 00        nop     
7dd1 00        nop     
7dd2 00        nop     
7dd3 00        nop     
7dd4 00        nop     
7dd5 00        nop     
7dd6 00        nop     
7dd7 00        nop     
7dd8 00        nop     
7dd9 00        nop     
7dda 00        nop     
7ddb 00        nop     
7ddc 00        nop     
7ddd 00        nop     
7dde 00        nop     
7ddf 00        nop     
7de0 00        nop     
7de1 00        nop     
7de2 00        nop     
7de3 00        nop     
7de4 00        nop     
7de5 00        nop     
7de6 00        nop     
7de7 00        nop     
7de8 00        nop     
7de9 00        nop     
7dea 00        nop     
7deb 00        nop     
7dec 00        nop     
7ded 00        nop     
7dee 00        nop     
7def 00        nop     
7df0 00        nop     
7df1 00        nop     
7df2 00        nop     
7df3 00        nop     
7df4 00        nop     
7df5 00        nop     
7df6 00        nop     
7df7 00        nop     
7df8 00        nop     
7df9 00        nop     
7dfa 00        nop     
7dfb 00        nop     
7dfc 00        nop     
7dfd 00        nop     
7dfe 00        nop     
7dff 00        nop     
7e00 00        nop     
7e01 00        nop     
7e02 00        nop     
7e03 00        nop     
7e04 00        nop     
7e05 00        nop     
7e06 00        nop     
7e07 00        nop     
7e08 00        nop     
7e09 00        nop     
7e0a 00        nop     
7e0b 00        nop     
7e0c 00        nop     
7e0d 00        nop     
7e0e 00        nop     
7e0f 00        nop     
7e10 00        nop     
7e11 00        nop     
7e12 00        nop     
7e13 00        nop     
7e14 00        nop     
7e15 00        nop     
7e16 00        nop     
7e17 00        nop     
7e18 00        nop     
7e19 00        nop     
7e1a 00        nop     
7e1b 00        nop     
7e1c 00        nop     
7e1d 00        nop     
7e1e 00        nop     
7e1f 00        nop     
7e20 00        nop     
7e21 00        nop     
7e22 00        nop     
7e23 00        nop     
7e24 00        nop     
7e25 00        nop     
7e26 40        ld      b,b
7e27 00        nop     
7e28 d340      out     (40h),a
7e2a 8f        adc     a,a
7e2b d3e6      out     (0e6h),a
7e2d 8f        adc     a,a
7e2e 4c        ld      c,h
7e2f e6f0      and     0f0h
7e31 a6        and     (hl)
7e32 f0        ret     p

7e33 e1        pop     hl
7e34 f0        ret     p

7e35 f0        ret     p

7e36 113c2e    ld      de,2e3ch
7e39 00        nop     
7e3a e1        pop     hl
7e3b 0f        rrca    
7e3c f0        ret     p

7e3d f0        ret     p

7e3e f0        ret     p

7e3f f0        ret     p

7e40 00        nop     
7e41 00        nop     
7e42 00        nop     
7e43 00        nop     
7e44 00        nop     
7e45 00        nop     
7e46 00        nop     
7e47 00        nop     
7e48 00        nop     
7e49 00        nop     
7e4a 00        nop     
7e4b 00        nop     
7e4c 00        nop     
7e4d 00        nop     
7e4e 00        nop     
7e4f 00        nop     
7e50 00        nop     
7e51 00        nop     
7e52 00        nop     
7e53 00        nop     
7e54 00        nop     
7e55 00        nop     
7e56 00        nop     
7e57 00        nop     
7e58 00        nop     
7e59 00        nop     
7e5a 00        nop     
7e5b 00        nop     
7e5c 00        nop     
7e5d 00        nop     
7e5e 00        nop     
7e5f 00        nop     
7e60 00        nop     
7e61 00        nop     
7e62 00        nop     
7e63 00        nop     
7e64 00        nop     
7e65 00        nop     
7e66 00        nop     
7e67 00        nop     
7e68 00        nop     
7e69 00        nop     
7e6a 40        ld      b,b
7e6b 00        nop     
7e6c d340      out     (40h),a
7e6e 8f        adc     a,a
7e6f d373      out     (73h),a
7e71 47        ld      b,a
7e72 88        adc     a,b
7e73 e6c3      and     0c3h
7e75 4c        ld      c,h
7e76 f0        ret     p

7e77 c3113c    jp      3c11h
7e7a 2e00      ld      l,00h
7e7c e1        pop     hl
7e7d 0f        rrca    
7e7e f0        ret     p

7e7f f0        ret     p

7e80 00        nop     
7e81 00        nop     
7e82 00        nop     
7e83 00        nop     
7e84 00        nop     
7e85 00        nop     
7e86 00        nop     
7e87 00        nop     
7e88 00        nop     
7e89 00        nop     
7e8a 00        nop     
7e8b 00        nop     
7e8c 00        nop     
7e8d 00        nop     
7e8e 00        nop     
7e8f 00        nop     
7e90 00        nop     
7e91 00        nop     
7e92 00        nop     
7e93 00        nop     
7e94 00        nop     
7e95 00        nop     
7e96 00        nop     
7e97 00        nop     
7e98 00        nop     
7e99 00        nop     
7e9a 00        nop     
7e9b 00        nop     
7e9c 00        nop     
7e9d 00        nop     
7e9e 00        nop     
7e9f 00        nop     
7ea0 00        nop     
7ea1 00        nop     
7ea2 00        nop     
7ea3 00        nop     
7ea4 00        nop     
7ea5 00        nop     
7ea6 00        nop     
7ea7 00        nop     
7ea8 00        nop     
7ea9 00        nop     
7eaa 00        nop     
7eab 00        nop     
7eac 00        nop     
7ead 00        nop     
7eae 40        ld      b,b
7eaf 00        nop     
7eb0 a6        and     (hl)
7eb1 00        nop     
7eb2 9e        sbc     a,(hl)
7eb3 4c        ld      c,h
7eb4 73        ld      (hl),e
7eb5 bd        cp      l
7eb6 cce791    call    z,91e7h
7eb9 3170cc    ld      sp,0cc70h
7ebc 5d        ld      e,l
7ebd f1        pop     af
7ebe f0        ret     p

7ebf f0        ret     p

7ec0 00        nop     
7ec1 00        nop     
7ec2 00        nop     
7ec3 00        nop     
7ec4 00        nop     
7ec5 00        nop     
7ec6 00        nop     
7ec7 00        nop     
7ec8 00        nop     
7ec9 00        nop     
7eca 00        nop     
7ecb 00        nop     
7ecc 00        nop     
7ecd 00        nop     
7ece 00        nop     
7ecf 00        nop     
7ed0 00        nop     
7ed1 00        nop     
7ed2 00        nop     
7ed3 00        nop     
7ed4 00        nop     
7ed5 00        nop     
7ed6 00        nop     
7ed7 00        nop     
7ed8 00        nop     
7ed9 00        nop     
7eda 00        nop     
7edb 00        nop     
7edc 00        nop     
7edd 00        nop     
7ede 00        nop     
7edf 00        nop     
7ee0 00        nop     
7ee1 00        nop     
7ee2 00        nop     
7ee3 00        nop     
7ee4 00        nop     
7ee5 00        nop     
7ee6 00        nop     
7ee7 00        nop     
7ee8 00        nop     
7ee9 00        nop     
7eea 00        nop     
7eeb 00        nop     
7eec 00        nop     
7eed 00        nop     
7eee 00        nop     
7eef 00        nop     
7ef0 00        nop     
7ef1 00        nop     
7ef2 00        nop     
7ef3 00        nop     
7ef4 00        nop     
7ef5 00        nop     
7ef6 80        add     a,b
7ef7 00        nop     
7ef8 ac        xor     h
7ef9 00        nop     
7efa e7        rst     20h
7efb 80        add     a,b
7efc 318498    ld      sp,9884h
7eff 84        add     a,h
7f00 7e        ld      a,(hl)
7f01 f0        ret     p

7f02 df        rst     18h
7f03 ff        rst     38h
7f04 8f        adc     a,a
7f05 0f        rrca    
7f06 78        ld      a,b
7f07 f0        ret     p

7f08 00        nop     
7f09 31fffd    ld      sp,0fdffh
7f0c ff        rst     38h
7f0d a9        xor     c
7f0e ff        rst     38h
7f0f 43        ld      b,e
7f10 ee87      xor     87h
7f12 104f      djnz    7f63h
7f14 0f        rrca    
7f15 cf        rst     08h
7f16 7f        ld      a,a
7f17 ef        rst     28h
7f18 7f        ld      a,a
7f19 ff        rst     38h
7f1a 7f        ld      a,a
7f1b ff        rst     38h
7f1c 17        rla     
7f1d ff        rst     38h
7f1e 8b        adc     a,e
7f1f ff        rst     38h
7f20 cd7fee    call    0ee7fh
7f23 00        nop     
7f24 ff        rst     38h
7f25 ff        rst     38h
7f26 ff        rst     38h
7f27 ff        rst     38h
7f28 ff        rst     38h
7f29 ff        rst     38h
7f2a ff        rst     38h
7f2b ff        rst     38h
7f2c ff        rst     38h
7f2d ff        rst     38h
7f2e ff        rst     38h
7f2f ff        rst     38h
7f30 ff        rst     38h
7f31 ff        rst     38h
7f32 ff        rst     38h
7f33 f0        ret     p

7f34 fef0      cp      0f0h
7f36 fc0fe9    call    m,0e90fh
7f39 0f        rrca    
7f3a c30086    jp      8600h
7f3d 00        nop     
7f3e 0c        inc     c
7f3f 00        nop     
7f40 f0        ret     p

7f41 f0        ret     p

7f42 ff        rst     38h
7f43 ff        rst     38h
7f44 0f        rrca    
7f45 0f        rrca    
7f46 f0        ret     p

7f47 f0        ret     p

7f48 d8        ret     c

7f49 80        add     a,b
7f4a 78        ld      a,b
7f4b db1c      in      a,(1ch)
7f4d bc        cp      h
7f4e 7c        ld      a,h
7f4f d2dae1    jp      nc,0e1dah
7f52 af        xor     a
7f53 2d        dec     l
7f54 b7        or      a
7f55 2d        dec     l
7f56 b7        or      a
7f57 cbd3      set     2,e
7f59 9e        sbc     a,(hl)
7f5a ff        rst     38h
7f5b 5e        ld      e,(hl)
7f5c ef        rst     28h
7f5d a4        and     h
7f5e df        rst     18h
7f5f 8c        adc     a,h
7f60 9f        sbc     a,a
7f61 bc        cp      h
7f62 9f        sbc     a,a
7f63 8f        adc     a,a
7f64 ff        rst     38h
7f65 ff        rst     38h
7f66 ff        rst     38h
7f67 ff        rst     38h
7f68 ff        rst     38h
7f69 ff        rst     38h
7f6a ff        rst     38h
7f6b ff        rst     38h
7f6c ff        rst     38h
7f6d ff        rst     38h
7f6e ff        rst     38h
7f6f ff        rst     38h
7f70 ff        rst     38h
7f71 ff        rst     38h
7f72 f0        ret     p

7f73 f0        ret     p

7f74 f0        ret     p

7f75 f0        ret     p

7f76 0f        rrca    
7f77 0f        rrca    
7f78 0f        rrca    
7f79 0f        rrca    
7f7a 00        nop     
7f7b 00        nop     
7f7c 00        nop     
7f7d 00        nop     
7f7e 00        nop     
7f7f 00        nop     
7f80 f0        ret     p

7f81 f0        ret     p

7f82 ff        rst     38h
7f83 d9        exx     
7f84 0f        rrca    
7f85 7f        ld      a,a
7f86 f0        ret     p

7f87 0f        rrca    
7f88 00        nop     
7f89 30cc      jr      nc,7f57h
7f8b 00        nop     
7f8c 7f        ld      a,a
7f8d ff        rst     38h
7f8e b7        or      a
7f8f ff        rst     38h
7f90 d1        pop     de
7f91 ff        rst     38h
7f92 95        sub     l
7f93 ff        rst     38h
7f94 1d        dec     e
7f95 ff        rst     38h
7f96 59        ld      e,c
7f97 ff        rst     38h
7f98 b3        or      e
7f99 ff        rst     38h
7f9a 77        ld      (hl),a
7f9b ff        rst     38h
7f9c ff        rst     38h
7f9d ff        rst     38h
7f9e 00        nop     
7f9f 00        nop     
7fa0 f0        ret     p

7fa1 e0        ret     po

7fa2 0f        rrca    
7fa3 0f        rrca    
7fa4 ff        rst     38h
7fa5 ff        rst     38h
7fa6 ff        rst     38h
7fa7 ff        rst     38h
7fa8 ff        rst     38h
7fa9 ff        rst     38h
7faa ff        rst     38h
7fab ff        rst     38h
7fac ff        rst     38h
7fad ff        rst     38h
7fae ff        rst     38h
7faf ff        rst     38h
7fb0 ff        rst     38h
7fb1 fcf0f0    call    m,0f0f0h
7fb4 f0        ret     p

7fb5 c30f0f    jp      0f0fh
7fb8 0f        rrca    
7fb9 0c        inc     c
7fba 00        nop     
7fbb 00        nop     
7fbc 00        nop     
7fbd 00        nop     
7fbe 00        nop     
7fbf 00        nop     
7fc0 a6        and     (hl)
7fc1 f0        ret     p

7fc2 78        ld      a,b
7fc3 f0        ret     p

7fc4 ff        rst     38h
7fc5 a3        and     e
7fc6 0f        rrca    
7fc7 ff        rst     38h
7fc8 f0        ret     p

7fc9 0f        rrca    
7fca 30f5      jr      nc,7fc1h
7fcc 00        nop     
7fcd ff        rst     38h
7fce eeff      xor     0ffh
7fd0 fcaeb9    call    m,0b9aeh
7fd3 7f        ld      a,a
7fd4 77        ld      (hl),a
7fd5 cc77cc    call    z,0cc77h
7fd8 dbee      in      a,(0eeh)
7fda a9        xor     c
7fdb a6        and     (hl)
7fdc 88        adc     a,b
7fdd 228810    ld      (1088h),hl
7fe0 8f        adc     a,a
7fe1 0f        rrca    
7fe2 5c        ld      e,h
7fe3 f7        rst     30h
7fe4 ff        rst     38h
7fe5 ff        rst     38h
7fe6 ff        rst     38h
7fe7 ff        rst     38h
7fe8 ff        rst     38h
7fe9 ff        rst     38h
7fea ff        rst     38h
7feb ff        rst     38h
7fec ff        rst     38h
7fed ff        rst     38h
7fee ff        rst     38h
7fef f0        ret     p

7ff0 f0        ret     p

7ff1 f0        ret     p

7ff2 f0        ret     p

7ff3 0f        rrca    
7ff4 0f        rrca    
7ff5 0f        rrca    
7ff6 0e00      ld      c,00h
7ff8 00        nop     
7ff9 00        nop     
7ffa 00        nop     
7ffb 00        nop     
7ffc 00        nop     
7ffd 00        nop     
7ffe 00        nop     
7fff 00        nop     
